
/usr/local/bin/hunspell:     file format elf64-x86-64


Disassembly of section .text:

0000000000004c10 <main>:
    4c10:	41 57                	push   %r15
    4c12:	41 56                	push   %r14
    4c14:	49 89 f7             	mov    %rsi,%r15
    4c17:	41 55                	push   %r13
    4c19:	41 54                	push   %r12
    4c1b:	55                   	push   %rbp
    4c1c:	53                   	push   %rbx
    4c1d:	89 fb                	mov    %edi,%ebx
    4c1f:	bf 06 00 00 00       	mov    $0x6,%edi
    4c24:	48 81 ec c8 00 00 00 	sub    $0xc8,%rsp
    4c2b:	64 48 8b 04 25 28 00 	mov    %fs:0x28,%rax
    4c32:	00 00 
    4c34:	48 89 84 24 b8 00 00 	mov    %rax,0xb8(%rsp)
    4c3b:	00 
    4c3c:	31 c0                	xor    %eax,%eax
    4c3e:	48 8d 44 24 20       	lea    0x20(%rsp),%rax
    4c43:	48 89 74 24 18       	mov    %rsi,0x18(%rsp)
    4c48:	48 8d 35 c5 c7 00 00 	lea    0xc7c5(%rip),%rsi        # 11414 <_IO_stdin_used+0x1014>
    4c4f:	48 c7 44 24 28 00 00 	movq   $0x0,0x28(%rsp)
    4c56:	00 00 
    4c58:	c6 44 24 30 00       	movb   $0x0,0x30(%rsp)
    4c5d:	48 89 44 24 10       	mov    %rax,0x10(%rsp)
    4c62:	48 8d 44 24 30       	lea    0x30(%rsp),%rax
    4c67:	48 89 44 24 20       	mov    %rax,0x20(%rsp)
    4c6c:	e8 6f fb ff ff       	callq  47e0 <setlocale@plt>
    4c71:	bf 0e 00 00 00       	mov    $0xe,%edi
    4c76:	e8 95 fb ff ff       	callq  4810 <nl_langinfo@plt>
    4c7b:	48 8d 3d 01 c7 00 00 	lea    0xc701(%rip),%rdi        # 11383 <_IO_stdin_used+0xf83>
    4c82:	48 89 05 0f 06 21 00 	mov    %rax,0x21060f(%rip)        # 215298 <ui_enc>
    4c89:	e8 02 fe ff ff       	callq  4a90 <textdomain@plt>
    4c8e:	83 fb 01             	cmp    $0x1,%ebx
    4c91:	0f 8e 11 08 00 00    	jle    54a8 <main+0x898>
    4c97:	4d 8d 67 08          	lea    0x8(%r15),%r12
    4c9b:	41 bd 01 00 00 00    	mov    $0x1,%r13d
    4ca1:	31 ed                	xor    %ebp,%ebp
    4ca3:	c7 44 24 08 00 00 00 	movl   $0x0,0x8(%rsp)
    4caa:	00 
    4cab:	c7 44 24 0c ff ff ff 	movl   $0xffffffff,0xc(%rsp)
    4cb2:	ff 
    4cb3:	45 31 ff             	xor    %r15d,%r15d
    4cb6:	66 2e 0f 1f 84 00 00 	nopw   %cs:0x0(%rax,%rax,1)
    4cbd:	00 00 00 
    4cc0:	83 fd 01             	cmp    $0x1,%ebp
    4cc3:	0f 84 37 01 00 00    	je     4e00 <main+0x1f0>
    4cc9:	83 fd 02             	cmp    $0x2,%ebp
    4ccc:	0f 84 f6 07 00 00    	je     54c8 <main+0x8b8>
    4cd2:	83 fd 03             	cmp    $0x3,%ebp
    4cd5:	4d 8b 34 24          	mov    (%r12),%r14
    4cd9:	0f 84 11 08 00 00    	je     54f0 <main+0x8e0>
    4cdf:	83 fd 04             	cmp    $0x4,%ebp
    4ce2:	0f 84 18 08 00 00    	je     5500 <main+0x8f0>
    4ce8:	48 8d 3d 9d c6 00 00 	lea    0xc69d(%rip),%rdi        # 1138c <_IO_stdin_used+0xf8c>
    4cef:	b9 03 00 00 00       	mov    $0x3,%ecx
    4cf4:	4c 89 f6             	mov    %r14,%rsi
    4cf7:	f3 a6                	repz cmpsb %es:(%rdi),%ds:(%rsi)
    4cf9:	0f 97 c0             	seta   %al
    4cfc:	1c 00                	sbb    $0x0,%al
    4cfe:	84 c0                	test   %al,%al
    4d00:	0f 84 0a 08 00 00    	je     5510 <main+0x900>
    4d06:	48 8d 3d 82 c6 00 00 	lea    0xc682(%rip),%rdi        # 1138f <_IO_stdin_used+0xf8f>
    4d0d:	b9 03 00 00 00       	mov    $0x3,%ecx
    4d12:	4c 89 f6             	mov    %r14,%rsi
    4d15:	f3 a6                	repz cmpsb %es:(%rdi),%ds:(%rsi)
    4d17:	0f 97 c0             	seta   %al
    4d1a:	1c 00                	sbb    $0x0,%al
    4d1c:	84 c0                	test   %al,%al
    4d1e:	0f 84 2c 08 00 00    	je     5550 <main+0x940>
    4d24:	48 8d 3d 67 c6 00 00 	lea    0xc667(%rip),%rdi        # 11392 <_IO_stdin_used+0xf92>
    4d2b:	b9 03 00 00 00       	mov    $0x3,%ecx
    4d30:	4c 89 f6             	mov    %r14,%rsi
    4d33:	f3 a6                	repz cmpsb %es:(%rdi),%ds:(%rsi)
    4d35:	0f 97 c0             	seta   %al
    4d38:	1c 00                	sbb    $0x0,%al
    4d3a:	84 c0                	test   %al,%al
    4d3c:	0f 84 1e 08 00 00    	je     5560 <main+0x950>
    4d42:	48 8d 3d 4c c6 00 00 	lea    0xc64c(%rip),%rdi        # 11395 <_IO_stdin_used+0xf95>
    4d49:	b9 03 00 00 00       	mov    $0x3,%ecx
    4d4e:	4c 89 f6             	mov    %r14,%rsi
    4d51:	f3 a6                	repz cmpsb %es:(%rdi),%ds:(%rsi)
    4d53:	0f 97 c0             	seta   %al
    4d56:	1c 00                	sbb    $0x0,%al
    4d58:	84 c0                	test   %al,%al
    4d5a:	0f 84 0a 08 00 00    	je     556a <main+0x95a>
    4d60:	48 8d 35 31 c6 00 00 	lea    0xc631(%rip),%rsi        # 11398 <_IO_stdin_used+0xf98>
    4d67:	4c 89 f7             	mov    %r14,%rdi
    4d6a:	e8 61 fc ff ff       	callq  49d0 <strcmp@plt>
    4d6f:	85 c0                	test   %eax,%eax
    4d71:	0f 84 bb 0b 00 00    	je     5932 <main+0xd22>
    4d77:	48 8d 35 1d c6 00 00 	lea    0xc61d(%rip),%rsi        # 1139b <_IO_stdin_used+0xf9b>
    4d7e:	4c 89 f7             	mov    %r14,%rdi
    4d81:	e8 4a fc ff ff       	callq  49d0 <strcmp@plt>
    4d86:	85 c0                	test   %eax,%eax
    4d88:	0f 84 a4 0b 00 00    	je     5932 <main+0xd22>
    4d8e:	48 8d 35 80 c6 00 00 	lea    0xc680(%rip),%rsi        # 11415 <_IO_stdin_used+0x1015>
    4d95:	4c 89 f7             	mov    %r14,%rdi
    4d98:	e8 33 fc ff ff       	callq  49d0 <strcmp@plt>
    4d9d:	85 c0                	test   %eax,%eax
    4d9f:	0f 84 a1 0e 00 00    	je     5c46 <main+0x1036>
    4da5:	48 8d 35 6d c6 00 00 	lea    0xc66d(%rip),%rsi        # 11419 <_IO_stdin_used+0x1019>
    4dac:	4c 89 f7             	mov    %r14,%rdi
    4daf:	e8 1c fc ff ff       	callq  49d0 <strcmp@plt>
    4db4:	85 c0                	test   %eax,%eax
    4db6:	0f 84 8a 0e 00 00    	je     5c46 <main+0x1036>
    4dbc:	48 8d 35 59 c6 00 00 	lea    0xc659(%rip),%rsi        # 1141c <_IO_stdin_used+0x101c>
    4dc3:	4c 89 f7             	mov    %r14,%rdi
    4dc6:	e8 05 fc ff ff       	callq  49d0 <strcmp@plt>
    4dcb:	85 c0                	test   %eax,%eax
    4dcd:	0f 84 73 0e 00 00    	je     5c46 <main+0x1036>
    4dd3:	48 8d 35 4c c6 00 00 	lea    0xc64c(%rip),%rsi        # 11426 <_IO_stdin_used+0x1026>
    4dda:	4c 89 f7             	mov    %r14,%rdi
    4ddd:	e8 ee fb ff ff       	callq  49d0 <strcmp@plt>
    4de2:	85 c0                	test   %eax,%eax
    4de4:	0f 85 b5 08 00 00    	jne    569f <main+0xa8f>
    4dea:	c7 05 c0 04 21 00 06 	movl   $0x6,0x2104c0(%rip)        # 2152b4 <filter_mode>
    4df1:	00 00 00 
    4df4:	eb 2d                	jmp    4e23 <main+0x213>
    4df6:	66 2e 0f 1f 84 00 00 	nopw   %cs:0x0(%rax,%rax,1)
    4dfd:	00 00 00 
    4e00:	48 8b 3d c9 04 21 00 	mov    0x2104c9(%rip),%rdi        # 2152d0 <dicname>
    4e07:	48 85 ff             	test   %rdi,%rdi
    4e0a:	74 05                	je     4e11 <main+0x201>
    4e0c:	e8 3f fb ff ff       	callq  4950 <free@plt>
    4e11:	49 8b 3c 24          	mov    (%r12),%rdi
    4e15:	e8 e6 f7 ff ff       	callq  4600 <_Z8mystrdupPKc@plt>
    4e1a:	48 89 05 af 04 21 00 	mov    %rax,0x2104af(%rip)        # 2152d0 <dicname>
    4e21:	31 ed                	xor    %ebp,%ebp
    4e23:	41 83 c5 01          	add    $0x1,%r13d
    4e27:	49 83 c4 08          	add    $0x8,%r12
    4e2b:	44 39 eb             	cmp    %r13d,%ebx
    4e2e:	0f 85 8c fe ff ff    	jne    4cc0 <main+0xb0>
    4e34:	8b 44 24 0c          	mov    0xc(%rsp),%eax
    4e38:	85 c0                	test   %eax,%eax
    4e3a:	0f 8e 7b 06 00 00    	jle    54bb <main+0x8ab>
    4e40:	89 da                	mov    %ebx,%edx
    4e42:	29 c2                	sub    %eax,%edx
    4e44:	b8 01 00 00 00       	mov    $0x1,%eax
    4e49:	83 ea 01             	sub    $0x1,%edx
    4e4c:	0f 8e 69 06 00 00    	jle    54bb <main+0x8ab>
    4e52:	44 8b 05 57 04 21 00 	mov    0x210457(%rip),%r8d        # 2152b0 <printgood>
    4e59:	88 05 59 04 21 00    	mov    %al,0x210459(%rip)        # 2152b8 <multiple_files>
    4e5f:	45 85 c0             	test   %r8d,%r8d
    4e62:	0f 85 0c 07 00 00    	jne    5574 <main+0x964>
    4e68:	48 83 3d 60 04 21 00 	cmpq   $0x0,0x210460(%rip)        # 2152d0 <dicname>
    4e6f:	00 
    4e70:	0f 84 fd 07 00 00    	je     5673 <main+0xa63>
    4e76:	48 8d 6c 24 40       	lea    0x40(%rsp),%rbp
    4e7b:	48 8d 15 3b c6 00 00 	lea    0xc63b(%rip),%rdx        # 114bd <_IO_stdin_used+0x10bd>
    4e82:	48 8d 45 10          	lea    0x10(%rbp),%rax
    4e86:	48 8d 72 ff          	lea    -0x1(%rdx),%rsi
    4e8a:	48 89 ef             	mov    %rbp,%rdi
    4e8d:	48 89 44 24 40       	mov    %rax,0x40(%rsp)
    4e92:	e8 39 13 00 00       	callq  61d0 <_ZNSt7__cxx1112basic_stringIcSt11char_traitsIcESaIcEE12_M_constructIPKcEEvT_S8_St20forward_iterator_tag.isra.52>
    4e97:	48 8d 35 20 c6 00 00 	lea    0xc620(%rip),%rsi        # 114be <_IO_stdin_used+0x10be>
    4e9e:	48 89 ef             	mov    %rbp,%rdi
    4ea1:	e8 0a fd ff ff       	callq  4bb0 <_ZNSt7__cxx1112basic_stringIcSt11char_traitsIcESaIcEE6appendEPKc@plt>
    4ea6:	48 8d 35 11 c6 00 00 	lea    0xc611(%rip),%rsi        # 114be <_IO_stdin_used+0x10be>
    4ead:	48 89 ef             	mov    %rbp,%rdi
    4eb0:	e8 fb fc ff ff       	callq  4bb0 <_ZNSt7__cxx1112basic_stringIcSt11char_traitsIcESaIcEE6appendEPKc@plt>
    4eb5:	48 8d 3d 04 c6 00 00 	lea    0xc604(%rip),%rdi        # 114c0 <_IO_stdin_used+0x10c0>
    4ebc:	e8 af fa ff ff       	callq  4970 <getenv@plt>
    4ec1:	48 85 c0             	test   %rax,%rax
    4ec4:	74 26                	je     4eec <main+0x2dc>
    4ec6:	48 8d 3d f3 c5 00 00 	lea    0xc5f3(%rip),%rdi        # 114c0 <_IO_stdin_used+0x10c0>
    4ecd:	e8 9e fa ff ff       	callq  4970 <getenv@plt>
    4ed2:	48 89 ef             	mov    %rbp,%rdi
    4ed5:	48 89 c6             	mov    %rax,%rsi
    4ed8:	e8 d3 fc ff ff       	callq  4bb0 <_ZNSt7__cxx1112basic_stringIcSt11char_traitsIcESaIcEE6appendEPKc@plt>
    4edd:	48 8d 35 da c5 00 00 	lea    0xc5da(%rip),%rsi        # 114be <_IO_stdin_used+0x10be>
    4ee4:	48 89 c7             	mov    %rax,%rdi
    4ee7:	e8 c4 fc ff ff       	callq  4bb0 <_ZNSt7__cxx1112basic_stringIcSt11char_traitsIcESaIcEE6appendEPKc@plt>
    4eec:	48 8d 35 ed be 00 00 	lea    0xbeed(%rip),%rsi        # 10de0 <_IO_stdin_used+0x9e0>
    4ef3:	48 89 ef             	mov    %rbp,%rdi
    4ef6:	e8 b5 fc ff ff       	callq  4bb0 <_ZNSt7__cxx1112basic_stringIcSt11char_traitsIcESaIcEE6appendEPKc@plt>
    4efb:	48 8d 35 bc c5 00 00 	lea    0xc5bc(%rip),%rsi        # 114be <_IO_stdin_used+0x10be>
    4f02:	48 89 c7             	mov    %rax,%rdi
    4f05:	e8 a6 fc ff ff       	callq  4bb0 <_ZNSt7__cxx1112basic_stringIcSt11char_traitsIcESaIcEE6appendEPKc@plt>
    4f0a:	48 8d 3d bb c3 00 00 	lea    0xc3bb(%rip),%rdi        # 112cc <_IO_stdin_used+0xecc>
    4f11:	e8 5a fa ff ff       	callq  4970 <getenv@plt>
    4f16:	48 85 c0             	test   %rax,%rax
    4f19:	0f 84 f9 00 00 00    	je     5018 <main+0x408>
    4f1f:	48 8d 05 12 bf 00 00 	lea    0xbf12(%rip),%rax        # 10e38 <_IO_stdin_used+0xa38>
    4f26:	45 31 e4             	xor    %r12d,%r12d
    4f29:	49 bd ff ff ff ff ff 	movabs $0x7fffffffffffffff,%r13
    4f30:	ff ff 7f 
    4f33:	48 89 44 24 60       	mov    %rax,0x60(%rsp)
    4f38:	48 8d 05 19 bf 00 00 	lea    0xbf19(%rip),%rax        # 10e58 <_IO_stdin_used+0xa58>
    4f3f:	48 89 44 24 68       	mov    %rax,0x68(%rsp)
    4f44:	48 8d 05 2d bf 00 00 	lea    0xbf2d(%rip),%rax        # 10e78 <_IO_stdin_used+0xa78>
    4f4b:	48 89 44 24 70       	mov    %rax,0x70(%rsp)
    4f50:	48 8d 05 71 c5 00 00 	lea    0xc571(%rip),%rax        # 114c8 <_IO_stdin_used+0x10c8>
    4f57:	48 89 44 24 78       	mov    %rax,0x78(%rsp)
    4f5c:	48 8d 3d 69 c3 00 00 	lea    0xc369(%rip),%rdi        # 112cc <_IO_stdin_used+0xecc>
    4f63:	e8 08 fa ff ff       	callq  4970 <getenv@plt>
    4f68:	48 89 c7             	mov    %rax,%rdi
    4f6b:	49 89 c6             	mov    %rax,%r14
    4f6e:	e8 7d f7 ff ff       	callq  46f0 <strlen@plt>
    4f73:	4c 89 ea             	mov    %r13,%rdx
    4f76:	48 2b 54 24 48       	sub    0x48(%rsp),%rdx
    4f7b:	48 39 d0             	cmp    %rdx,%rax
    4f7e:	0f 87 e8 0e 00 00    	ja     5e6c <main+0x125c>
    4f84:	48 89 c2             	mov    %rax,%rdx
    4f87:	4c 89 f6             	mov    %r14,%rsi
    4f8a:	48 89 ef             	mov    %rbp,%rdi
    4f8d:	e8 0e f7 ff ff       	callq  46a0 <_ZNSt7__cxx1112basic_stringIcSt11char_traitsIcESaIcEE9_M_appendEPKcm@plt>
    4f92:	4c 39 6c 24 48       	cmp    %r13,0x48(%rsp)
    4f97:	0f 84 c3 0e 00 00    	je     5e60 <main+0x1250>
    4f9d:	48 8d 35 f5 ca 00 00 	lea    0xcaf5(%rip),%rsi        # 11a99 <_ZTS9ManParser+0x19>
    4fa4:	ba 01 00 00 00       	mov    $0x1,%edx
    4fa9:	48 89 ef             	mov    %rbp,%rdi
    4fac:	e8 ef f6 ff ff       	callq  46a0 <_ZNSt7__cxx1112basic_stringIcSt11char_traitsIcESaIcEE9_M_appendEPKcm@plt>
    4fb1:	4e 8b 74 e4 60       	mov    0x60(%rsp,%r12,8),%r14
    4fb6:	4c 89 f7             	mov    %r14,%rdi
    4fb9:	e8 32 f7 ff ff       	callq  46f0 <strlen@plt>
    4fbe:	4c 89 ea             	mov    %r13,%rdx
    4fc1:	48 2b 54 24 48       	sub    0x48(%rsp),%rdx
    4fc6:	48 39 d0             	cmp    %rdx,%rax
    4fc9:	0f 87 85 0e 00 00    	ja     5e54 <main+0x1244>
    4fcf:	48 89 c2             	mov    %rax,%rdx
    4fd2:	4c 89 f6             	mov    %r14,%rsi
    4fd5:	48 89 ef             	mov    %rbp,%rdi
    4fd8:	e8 c3 f6 ff ff       	callq  46a0 <_ZNSt7__cxx1112basic_stringIcSt11char_traitsIcESaIcEE9_M_appendEPKcm@plt>
    4fdd:	4c 39 68 08          	cmp    %r13,0x8(%rax)
    4fe1:	0f 84 b5 0e 00 00    	je     5e9c <main+0x128c>
    4fe7:	48 8d 35 d0 c4 00 00 	lea    0xc4d0(%rip),%rsi        # 114be <_IO_stdin_used+0x10be>
    4fee:	ba 01 00 00 00       	mov    $0x1,%edx
    4ff3:	48 89 c7             	mov    %rax,%rdi
    4ff6:	e8 a5 f6 ff ff       	callq  46a0 <_ZNSt7__cxx1112basic_stringIcSt11char_traitsIcESaIcEE9_M_appendEPKcm@plt>
    4ffb:	49 83 c4 01          	add    $0x1,%r12
    4fff:	49 83 fc 04          	cmp    $0x4,%r12
    5003:	0f 85 53 ff ff ff    	jne    4f5c <main+0x34c>
    5009:	48 8d 35 90 be 00 00 	lea    0xbe90(%rip),%rsi        # 10ea0 <_IO_stdin_used+0xaa0>
    5010:	48 89 ef             	mov    %rbp,%rdi
    5013:	e8 98 fb ff ff       	callq  4bb0 <_ZNSt7__cxx1112basic_stringIcSt11char_traitsIcESaIcEE6appendEPKc@plt>
    5018:	48 8b 7c 24 40       	mov    0x40(%rsp),%rdi
    501d:	e8 de f5 ff ff       	callq  4600 <_Z8mystrdupPKc@plt>
    5022:	48 8b 7c 24 40       	mov    0x40(%rsp),%rdi
    5027:	48 83 c5 10          	add    $0x10,%rbp
    502b:	48 89 05 f6 01 21 00 	mov    %rax,0x2101f6(%rip)        # 215228 <path>
    5032:	48 39 ef             	cmp    %rbp,%rdi
    5035:	74 05                	je     503c <main+0x42c>
    5037:	e8 c4 f7 ff ff       	callq  4800 <_ZdlPv@plt>
    503c:	8b 3d 6a 02 21 00    	mov    0x21026a(%rip),%edi        # 2152ac <showpath>
    5042:	85 ff                	test   %edi,%edi
    5044:	0f 85 c0 05 00 00    	jne    560a <main+0x9fa>
    504a:	48 83 3d 76 02 21 00 	cmpq   $0x0,0x210276(%rip)        # 2152c8 <privdicname>
    5051:	00 
    5052:	0f 84 b9 07 00 00    	je     5811 <main+0xc01>
    5058:	4c 8b 25 71 02 21 00 	mov    0x210271(%rip),%r12        # 2152d0 <dicname>
    505f:	be 2c 00 00 00       	mov    $0x2c,%esi
    5064:	4c 89 e7             	mov    %r12,%rdi
    5067:	e8 54 f6 ff ff       	callq  46c0 <strchr@plt>
    506c:	48 85 c0             	test   %rax,%rax
    506f:	48 89 c5             	mov    %rax,%rbp
    5072:	74 0a                	je     507e <main+0x46e>
    5074:	c6 00 00             	movb   $0x0,(%rax)
    5077:	4c 8b 25 52 02 21 00 	mov    0x210252(%rip),%r12        # 2152d0 <dicname>
    507e:	48 8b 3d a3 01 21 00 	mov    0x2101a3(%rip),%rdi        # 215228 <path>
    5085:	48 8d 15 67 c4 00 00 	lea    0xc467(%rip),%rdx        # 114f3 <_IO_stdin_used+0x10f3>
    508c:	4c 89 e6             	mov    %r12,%rsi
    508f:	e8 ac 27 00 00       	callq  7840 <_Z6searchPcS_PKc>
    5094:	48 8b 35 35 02 21 00 	mov    0x210235(%rip),%rsi        # 2152d0 <dicname>
    509b:	48 8b 3d 86 01 21 00 	mov    0x210186(%rip),%rdi        # 215228 <path>
    50a2:	48 8d 15 6c c1 00 00 	lea    0xc16c(%rip),%rdx        # 11215 <_IO_stdin_used+0xe15>
    50a9:	49 89 c6             	mov    %rax,%r14
    50ac:	e8 8f 27 00 00       	callq  7840 <_Z6searchPcS_PKc>
    50b1:	4d 85 f6             	test   %r14,%r14
    50b4:	49 89 c4             	mov    %rax,%r12
    50b7:	0f 84 23 0d 00 00    	je     5de0 <main+0x11d0>
    50bd:	48 85 c0             	test   %rax,%rax
    50c0:	0f 84 1a 0d 00 00    	je     5de0 <main+0x11d0>
    50c6:	8b 35 e0 01 21 00    	mov    0x2101e0(%rip),%esi        # 2152ac <showpath>
    50cc:	85 f6                	test   %esi,%esi
    50ce:	0f 85 bc 04 00 00    	jne    5590 <main+0x980>
    50d4:	bf 08 00 00 00       	mov    $0x8,%edi
    50d9:	e8 52 f7 ff ff       	callq  4830 <_Znwm@plt>
    50de:	4c 89 f9             	mov    %r15,%rcx
    50e1:	4c 89 e2             	mov    %r12,%rdx
    50e4:	4c 89 f6             	mov    %r14,%rsi
    50e7:	48 89 c7             	mov    %rax,%rdi
    50ea:	49 89 c5             	mov    %rax,%r13
    50ed:	e8 5e f7 ff ff       	callq  4850 <_ZN8HunspellC1EPKcS1_S1_@plt>
    50f2:	4c 89 ef             	mov    %r13,%rdi
    50f5:	4c 89 6c 24 60       	mov    %r13,0x60(%rsp)
    50fa:	e8 01 f6 ff ff       	callq  4700 <_ZNK8Hunspell17get_dict_encodingB5cxx11Ev@plt>
    50ff:	48 8b 00             	mov    (%rax),%rax
    5102:	48 85 ed             	test   %rbp,%rbp
    5105:	c7 05 11 01 21 00 01 	movl   $0x1,0x210111(%rip)        # 215220 <dmax>
    510c:	00 00 00 
    510f:	48 89 05 2a 01 21 00 	mov    %rax,0x21012a(%rip)        # 215240 <dic_enc>
    5116:	75 71                	jne    5189 <main+0x579>
    5118:	e9 17 01 00 00       	jmpq   5234 <main+0x624>
    511d:	0f 1f 00             	nopl   (%rax)
    5120:	bf 08 00 00 00       	mov    $0x8,%edi
    5125:	e8 06 f7 ff ff       	callq  4830 <_Znwm@plt>
    512a:	4c 89 f9             	mov    %r15,%rcx
    512d:	4c 89 e2             	mov    %r12,%rdx
    5130:	4c 89 f6             	mov    %r14,%rsi
    5133:	48 89 c7             	mov    %rax,%rdi
    5136:	49 89 c5             	mov    %rax,%r13
    5139:	e8 12 f7 ff ff       	callq  4850 <_ZN8HunspellC1EPKcS1_S1_@plt>
    513e:	48 63 05 db 00 21 00 	movslq 0x2100db(%rip),%rax        # 215220 <dmax>
    5145:	4c 89 ef             	mov    %r13,%rdi
    5148:	4c 89 6c c4 60       	mov    %r13,0x60(%rsp,%rax,8)
    514d:	e8 ae f5 ff ff       	callq  4700 <_ZNK8Hunspell17get_dict_encodingB5cxx11Ev@plt>
    5152:	8b 15 c8 00 21 00    	mov    0x2100c8(%rip),%edx        # 215220 <dmax>
    5158:	48 8b 08             	mov    (%rax),%rcx
    515b:	48 8d 35 de 00 21 00 	lea    0x2100de(%rip),%rsi        # 215240 <dic_enc>
    5162:	48 63 c2             	movslq %edx,%rax
    5165:	83 c2 01             	add    $0x1,%edx
    5168:	48 89 0c c6          	mov    %rcx,(%rsi,%rax,8)
    516c:	8b 0d 3a 01 21 00    	mov    0x21013a(%rip),%ecx        # 2152ac <showpath>
    5172:	89 15 a8 00 21 00    	mov    %edx,0x2100a8(%rip)        # 215220 <dmax>
    5178:	85 c9                	test   %ecx,%ecx
    517a:	0f 85 5d 04 00 00    	jne    55dd <main+0x9cd>
    5180:	48 85 ed             	test   %rbp,%rbp
    5183:	0f 84 ab 00 00 00    	je     5234 <main+0x624>
    5189:	4c 8d 6d 01          	lea    0x1(%rbp),%r13
    518d:	be 2c 00 00 00       	mov    $0x2c,%esi
    5192:	4c 89 ef             	mov    %r13,%rdi
    5195:	e8 26 f5 ff ff       	callq  46c0 <strchr@plt>
    519a:	48 85 c0             	test   %rax,%rax
    519d:	48 89 c5             	mov    %rax,%rbp
    51a0:	74 03                	je     51a5 <main+0x595>
    51a2:	c6 00 00             	movb   $0x0,(%rax)
    51a5:	4c 89 f7             	mov    %r14,%rdi
    51a8:	e8 a3 f7 ff ff       	callq  4950 <free@plt>
    51ad:	4c 89 e7             	mov    %r12,%rdi
    51b0:	e8 9b f7 ff ff       	callq  4950 <free@plt>
    51b5:	48 8b 3d 6c 00 21 00 	mov    0x21006c(%rip),%rdi        # 215228 <path>
    51bc:	48 8d 15 30 c3 00 00 	lea    0xc330(%rip),%rdx        # 114f3 <_IO_stdin_used+0x10f3>
    51c3:	4c 89 ee             	mov    %r13,%rsi
    51c6:	e8 75 26 00 00       	callq  7840 <_Z6searchPcS_PKc>
    51cb:	48 8b 3d 56 00 21 00 	mov    0x210056(%rip),%rdi        # 215228 <path>
    51d2:	48 8d 15 3c c0 00 00 	lea    0xc03c(%rip),%rdx        # 11215 <_IO_stdin_used+0xe15>
    51d9:	4c 89 ee             	mov    %r13,%rsi
    51dc:	49 89 c6             	mov    %rax,%r14
    51df:	e8 5c 26 00 00       	callq  7840 <_Z6searchPcS_PKc>
    51e4:	4d 85 f6             	test   %r14,%r14
    51e7:	49 89 c4             	mov    %rax,%r12
    51ea:	0f 84 30 03 00 00    	je     5520 <main+0x910>
    51f0:	48 85 c0             	test   %rax,%rax
    51f3:	0f 84 27 03 00 00    	je     5520 <main+0x910>
    51f9:	83 3d 20 00 21 00 09 	cmpl   $0x9,0x210020(%rip)        # 215220 <dmax>
    5200:	0f 8e 1a ff ff ff    	jle    5120 <main+0x510>
    5206:	48 8d 3d c3 be 00 00 	lea    0xbec3(%rip),%rdi        # 110d0 <_IO_stdin_used+0xcd0>
    520d:	e8 fe f3 ff ff       	callq  4610 <gettext@plt>
    5212:	48 8b 3d e7 ff 20 00 	mov    0x20ffe7(%rip),%rdi        # 215200 <stderr@@GLIBC_2.2.5>
    5219:	48 89 c2             	mov    %rax,%rdx
    521c:	4c 89 e9             	mov    %r13,%rcx
    521f:	be 01 00 00 00       	mov    $0x1,%esi
    5224:	31 c0                	xor    %eax,%eax
    5226:	e8 b5 f8 ff ff       	callq  4ae0 <__fprintf_chk@plt>
    522b:	48 85 ed             	test   %rbp,%rbp
    522e:	0f 85 55 ff ff ff    	jne    5189 <main+0x579>
    5234:	48 8d 3d 91 c0 00 00 	lea    0xc091(%rip),%rdi        # 112cc <_IO_stdin_used+0xecc>
    523b:	e8 30 f7 ff ff       	callq  4970 <getenv@plt>
    5240:	48 85 c0             	test   %rax,%rax
    5243:	0f 84 d5 00 00 00    	je     531e <main+0x70e>
    5249:	48 8d 3d 7c c0 00 00 	lea    0xc07c(%rip),%rdi        # 112cc <_IO_stdin_used+0xecc>
    5250:	e8 1b f7 ff ff       	callq  4970 <getenv@plt>
    5255:	4c 8b 7c 24 10       	mov    0x10(%rsp),%r15
    525a:	48 89 c6             	mov    %rax,%rsi
    525d:	4c 89 ff             	mov    %r15,%rdi
    5260:	e8 5b f9 ff ff       	callq  4bc0 <_ZNSt7__cxx1112basic_stringIcSt11char_traitsIcESaIcEE6assignEPKc@plt>
    5265:	48 8d 35 2d c8 00 00 	lea    0xc82d(%rip),%rsi        # 11a99 <_ZTS9ManParser+0x19>
    526c:	4c 89 ff             	mov    %r15,%rdi
    526f:	e8 3c f9 ff ff       	callq  4bb0 <_ZNSt7__cxx1112basic_stringIcSt11char_traitsIcESaIcEE6appendEPKc@plt>
    5274:	48 8d 35 56 c0 00 00 	lea    0xc056(%rip),%rsi        # 112d1 <_IO_stdin_used+0xed1>
    527b:	4c 89 ff             	mov    %r15,%rdi
    527e:	e8 2d f9 ff ff       	callq  4bb0 <_ZNSt7__cxx1112basic_stringIcSt11char_traitsIcESaIcEE6appendEPKc@plt>
    5283:	48 8b 3d 46 00 21 00 	mov    0x210046(%rip),%rdi        # 2152d0 <dicname>
    528a:	be 2f 00 00 00       	mov    $0x2f,%esi
    528f:	e8 4c 1d 00 00       	callq  6fe0 <_Z8basenamePKcc>
    5294:	4c 89 ff             	mov    %r15,%rdi
    5297:	48 89 c6             	mov    %rax,%rsi
    529a:	e8 11 f9 ff ff       	callq  4bb0 <_ZNSt7__cxx1112basic_stringIcSt11char_traitsIcESaIcEE6appendEPKc@plt>
    529f:	48 8b 74 24 60       	mov    0x60(%rsp),%rsi
    52a4:	48 8b 7c 24 20       	mov    0x20(%rsp),%rdi
    52a9:	e8 92 15 00 00       	callq  6840 <_Z12load_privdicPKcP8Hunspell>
    52ae:	48 8d 3d 17 c0 00 00 	lea    0xc017(%rip),%rdi        # 112cc <_IO_stdin_used+0xecc>
    52b5:	e8 b6 f6 ff ff       	callq  4970 <getenv@plt>
    52ba:	4c 89 ff             	mov    %r15,%rdi
    52bd:	48 89 c6             	mov    %rax,%rsi
    52c0:	e8 fb f8 ff ff       	callq  4bc0 <_ZNSt7__cxx1112basic_stringIcSt11char_traitsIcESaIcEE6assignEPKc@plt>
    52c5:	48 8d 35 cd c7 00 00 	lea    0xc7cd(%rip),%rsi        # 11a99 <_ZTS9ManParser+0x19>
    52cc:	4c 89 ff             	mov    %r15,%rdi
    52cf:	e8 dc f8 ff ff       	callq  4bb0 <_ZNSt7__cxx1112basic_stringIcSt11char_traitsIcESaIcEE6appendEPKc@plt>
    52d4:	48 8b 35 ed ff 20 00 	mov    0x20ffed(%rip),%rsi        # 2152c8 <privdicname>
    52db:	48 85 f6             	test   %rsi,%rsi
    52de:	0f 84 4d 05 00 00    	je     5831 <main+0xc21>
    52e4:	4c 8b 7c 24 10       	mov    0x10(%rsp),%r15
    52e9:	4c 89 ff             	mov    %r15,%rdi
    52ec:	e8 bf f8 ff ff       	callq  4bb0 <_ZNSt7__cxx1112basic_stringIcSt11char_traitsIcESaIcEE6appendEPKc@plt>
    52f1:	48 8b 74 24 60       	mov    0x60(%rsp),%rsi
    52f6:	48 8b 7c 24 20       	mov    0x20(%rsp),%rdi
    52fb:	e8 40 15 00 00       	callq  6840 <_Z12load_privdicPKcP8Hunspell>
    5300:	48 8b 35 c1 ff 20 00 	mov    0x20ffc1(%rip),%rsi        # 2152c8 <privdicname>
    5307:	4c 89 ff             	mov    %r15,%rdi
    530a:	e8 b1 f8 ff ff       	callq  4bc0 <_ZNSt7__cxx1112basic_stringIcSt11char_traitsIcESaIcEE6assignEPKc@plt>
    530f:	48 8b 74 24 60       	mov    0x60(%rsp),%rsi
    5314:	48 8b 7c 24 20       	mov    0x20(%rsp),%rdi
    5319:	e8 22 15 00 00       	callq  6840 <_Z12load_privdicPKcP8Hunspell>
    531e:	83 3d 8f ff 20 00 06 	cmpl   $0x6,0x20ff8f(%rip)        # 2152b4 <filter_mode>
    5325:	0f 84 99 04 00 00    	je     57c4 <main+0xbb4>
    532b:	83 7c 24 0c ff       	cmpl   $0xffffffff,0xc(%rsp)
    5330:	0f 84 bc 04 00 00    	je     57f2 <main+0xbe2>
    5336:	8b 15 78 ff 20 00    	mov    0x20ff78(%rip),%edx        # 2152b4 <filter_mode>
    533c:	85 d2                	test   %edx,%edx
    533e:	0f 84 79 02 00 00    	je     55bd <main+0x9ad>
    5344:	8b 4c 24 0c          	mov    0xc(%rsp),%ecx
    5348:	39 d9                	cmp    %ebx,%ecx
    534a:	0f 8d 7d 00 00 00    	jge    53cd <main+0x7bd>
    5350:	48 8b 54 24 18       	mov    0x18(%rsp),%rdx
    5355:	83 eb 01             	sub    $0x1,%ebx
    5358:	48 63 c1             	movslq %ecx,%rax
    535b:	29 cb                	sub    %ecx,%ebx
    535d:	4c 8d 7c 24 60       	lea    0x60(%rsp),%r15
    5362:	48 8d 2c c2          	lea    (%rdx,%rax,8),%rbp
    5366:	48 01 d8             	add    %rbx,%rax
    5369:	4c 8d 6c c2 08       	lea    0x8(%rdx,%rax,8),%r13
    536e:	66 90                	xchg   %ax,%ax
    5370:	48 8b 7d 00          	mov    0x0(%rbp),%rdi
    5374:	e8 e7 17 00 00       	callq  6b60 <_Z5existPKc>
    5379:	84 c0                	test   %al,%al
    537b:	48 8b 5d 00          	mov    0x0(%rbp),%rbx
    537f:	0f 84 a7 09 00 00    	je     5d2c <main+0x111c>
    5385:	48 89 1d 34 ff 20 00 	mov    %rbx,0x20ff34(%rip)        # 2152c0 <currentfilename>
    538c:	48 8b 7d 00          	mov    0x0(%rbp),%rdi
    5390:	48 8d 35 cb c0 00 00 	lea    0xc0cb(%rip),%rsi        # 11462 <_IO_stdin_used+0x1062>
    5397:	c7 05 1b ff 20 00 00 	movl   $0x0,0x20ff1b(%rip)        # 2152bc <modified>
    539e:	00 00 00 
    53a1:	e8 8a f5 ff ff       	callq  4930 <fopen@plt>
    53a6:	48 8b 4d 00          	mov    0x0(%rbp),%rcx
    53aa:	8b 74 24 08          	mov    0x8(%rsp),%esi
    53ae:	48 89 c2             	mov    %rax,%rdx
    53b1:	4c 89 ff             	mov    %r15,%rdi
    53b4:	48 89 c3             	mov    %rax,%rbx
    53b7:	e8 44 36 00 00       	callq  8a00 <_Z14pipe_interfacePP8HunspelliP8_IO_FILEPc>
    53bc:	48 89 df             	mov    %rbx,%rdi
    53bf:	e8 5c f4 ff ff       	callq  4820 <fclose@plt>
    53c4:	48 83 c5 08          	add    $0x8,%rbp
    53c8:	49 39 ed             	cmp    %rbp,%r13
    53cb:	75 a3                	jne    5370 <main+0x760>
    53cd:	48 8b 3d fc fe 20 00 	mov    0x20fefc(%rip),%rdi        # 2152d0 <dicname>
    53d4:	48 85 ff             	test   %rdi,%rdi
    53d7:	74 05                	je     53de <main+0x7ce>
    53d9:	e8 72 f5 ff ff       	callq  4950 <free@plt>
    53de:	48 8b 3d e3 fe 20 00 	mov    0x20fee3(%rip),%rdi        # 2152c8 <privdicname>
    53e5:	48 85 ff             	test   %rdi,%rdi
    53e8:	74 05                	je     53ef <main+0x7df>
    53ea:	e8 61 f5 ff ff       	callq  4950 <free@plt>
    53ef:	48 8b 3d 32 fe 20 00 	mov    0x20fe32(%rip),%rdi        # 215228 <path>
    53f6:	48 85 ff             	test   %rdi,%rdi
    53f9:	74 05                	je     5400 <main+0x7f0>
    53fb:	e8 50 f5 ff ff       	callq  4950 <free@plt>
    5400:	4d 85 f6             	test   %r14,%r14
    5403:	74 08                	je     540d <main+0x7fd>
    5405:	4c 89 f7             	mov    %r14,%rdi
    5408:	e8 43 f5 ff ff       	callq  4950 <free@plt>
    540d:	4d 85 e4             	test   %r12,%r12
    5410:	74 08                	je     541a <main+0x80a>
    5412:	4c 89 e7             	mov    %r12,%rdi
    5415:	e8 36 f5 ff ff       	callq  4950 <free@plt>
    541a:	e8 21 f3 ff ff       	callq  4740 <_Z12free_utf_tblv@plt>
    541f:	8b 05 fb fd 20 00    	mov    0x20fdfb(%rip),%eax        # 215220 <dmax>
    5425:	85 c0                	test   %eax,%eax
    5427:	7e 3c                	jle    5465 <main+0x855>
    5429:	4c 8d 6c 24 60       	lea    0x60(%rsp),%r13
    542e:	bb 01 00 00 00       	mov    $0x1,%ebx
    5433:	0f 1f 44 00 00       	nopl   0x0(%rax,%rax,1)
    5438:	49 8b 6c dd f8       	mov    -0x8(%r13,%rbx,8),%rbp
    543d:	48 85 ed             	test   %rbp,%rbp
    5440:	74 15                	je     5457 <main+0x847>
    5442:	48 89 ef             	mov    %rbp,%rdi
    5445:	e8 66 f6 ff ff       	callq  4ab0 <_ZN8HunspellD1Ev@plt>
    544a:	be 08 00 00 00       	mov    $0x8,%esi
    544f:	48 89 ef             	mov    %rbp,%rdi
    5452:	e8 09 f4 ff ff       	callq  4860 <_ZdlPvm@plt>
    5457:	89 d8                	mov    %ebx,%eax
    5459:	48 83 c3 01          	add    $0x1,%rbx
    545d:	39 05 bd fd 20 00    	cmp    %eax,0x20fdbd(%rip)        # 215220 <dmax>
    5463:	7f d3                	jg     5438 <main+0x828>
    5465:	48 8b 44 24 10       	mov    0x10(%rsp),%rax
    546a:	48 8b 7c 24 20       	mov    0x20(%rsp),%rdi
    546f:	48 83 c0 10          	add    $0x10,%rax
    5473:	48 39 c7             	cmp    %rax,%rdi
    5476:	74 05                	je     547d <main+0x86d>
    5478:	e8 83 f3 ff ff       	callq  4800 <_ZdlPv@plt>
    547d:	31 c0                	xor    %eax,%eax
    547f:	48 8b 8c 24 b8 00 00 	mov    0xb8(%rsp),%rcx
    5486:	00 
    5487:	64 48 33 0c 25 28 00 	xor    %fs:0x28,%rcx
    548e:	00 00 
    5490:	0f 85 e2 09 00 00    	jne    5e78 <main+0x1268>
    5496:	48 81 c4 c8 00 00 00 	add    $0xc8,%rsp
    549d:	5b                   	pop    %rbx
    549e:	5d                   	pop    %rbp
    549f:	41 5c                	pop    %r12
    54a1:	41 5d                	pop    %r13
    54a3:	41 5e                	pop    %r14
    54a5:	41 5f                	pop    %r15
    54a7:	c3                   	retq   
    54a8:	c7 44 24 08 00 00 00 	movl   $0x0,0x8(%rsp)
    54af:	00 
    54b0:	c7 44 24 0c ff ff ff 	movl   $0xffffffff,0xc(%rsp)
    54b7:	ff 
    54b8:	45 31 ff             	xor    %r15d,%r15d
    54bb:	31 c0                	xor    %eax,%eax
    54bd:	e9 90 f9 ff ff       	jmpq   4e52 <main+0x242>
    54c2:	66 0f 1f 44 00 00    	nopw   0x0(%rax,%rax,1)
    54c8:	48 8b 3d f9 fd 20 00 	mov    0x20fdf9(%rip),%rdi        # 2152c8 <privdicname>
    54cf:	48 85 ff             	test   %rdi,%rdi
    54d2:	74 05                	je     54d9 <main+0x8c9>
    54d4:	e8 77 f4 ff ff       	callq  4950 <free@plt>
    54d9:	49 8b 3c 24          	mov    (%r12),%rdi
    54dd:	e8 1e f1 ff ff       	callq  4600 <_Z8mystrdupPKc@plt>
    54e2:	48 89 05 df fd 20 00 	mov    %rax,0x20fddf(%rip)        # 2152c8 <privdicname>
    54e9:	31 ed                	xor    %ebp,%ebp
    54eb:	e9 33 f9 ff ff       	jmpq   4e23 <main+0x213>
    54f0:	4c 89 35 99 fd 20 00 	mov    %r14,0x20fd99(%rip)        # 215290 <io_enc>
    54f7:	31 ed                	xor    %ebp,%ebp
    54f9:	e9 25 f9 ff ff       	jmpq   4e23 <main+0x213>
    54fe:	66 90                	xchg   %ax,%ax
    5500:	4d 89 f7             	mov    %r14,%r15
    5503:	31 ed                	xor    %ebp,%ebp
    5505:	e9 19 f9 ff ff       	jmpq   4e23 <main+0x213>
    550a:	66 0f 1f 44 00 00    	nopw   0x0(%rax,%rax,1)
    5510:	bd 01 00 00 00       	mov    $0x1,%ebp
    5515:	e9 09 f9 ff ff       	jmpq   4e23 <main+0x213>
    551a:	66 0f 1f 44 00 00    	nopw   0x0(%rax,%rax,1)
    5520:	4d 85 e4             	test   %r12,%r12
    5523:	0f 84 57 fc ff ff    	je     5180 <main+0x570>
    5529:	8b 05 f1 fc 20 00    	mov    0x20fcf1(%rip),%eax        # 215220 <dmax>
    552f:	31 d2                	xor    %edx,%edx
    5531:	4c 89 e6             	mov    %r12,%rsi
    5534:	83 e8 01             	sub    $0x1,%eax
    5537:	48 98                	cltq   
    5539:	48 8b 7c c4 60       	mov    0x60(%rsp,%rax,8),%rdi
    553e:	e8 0d f6 ff ff       	callq  4b50 <_ZN8Hunspell7add_dicEPKcS1_@plt>
    5543:	e9 38 fc ff ff       	jmpq   5180 <main+0x570>
    5548:	0f 1f 84 00 00 00 00 	nopl   0x0(%rax,%rax,1)
    554f:	00 
    5550:	bd 02 00 00 00       	mov    $0x2,%ebp
    5555:	e9 c9 f8 ff ff       	jmpq   4e23 <main+0x213>
    555a:	66 0f 1f 44 00 00    	nopw   0x0(%rax,%rax,1)
    5560:	bd 03 00 00 00       	mov    $0x3,%ebp
    5565:	e9 b9 f8 ff ff       	jmpq   4e23 <main+0x213>
    556a:	bd 04 00 00 00       	mov    $0x4,%ebp
    556f:	e9 af f8 ff ff       	jmpq   4e23 <main+0x213>
    5574:	83 3d 39 fd 20 00 00 	cmpl   $0x0,0x20fd39(%rip)        # 2152b4 <filter_mode>
    557b:	0f 85 e7 f8 ff ff    	jne    4e68 <main+0x258>
    5581:	c7 05 29 fd 20 00 01 	movl   $0x1,0x20fd29(%rip)        # 2152b4 <filter_mode>
    5588:	00 00 00 
    558b:	e9 d8 f8 ff ff       	jmpq   4e68 <main+0x258>
    5590:	48 8d 3d 61 bf 00 00 	lea    0xbf61(%rip),%rdi        # 114f8 <_IO_stdin_used+0x10f8>
    5597:	e8 74 f0 ff ff       	callq  4610 <gettext@plt>
    559c:	48 8b 3d 5d fc 20 00 	mov    0x20fc5d(%rip),%rdi        # 215200 <stderr@@GLIBC_2.2.5>
    55a3:	48 89 c2             	mov    %rax,%rdx
    55a6:	4d 89 e0             	mov    %r12,%r8
    55a9:	4c 89 f1             	mov    %r14,%rcx
    55ac:	be 01 00 00 00       	mov    $0x1,%esi
    55b1:	31 c0                	xor    %eax,%eax
    55b3:	e8 28 f5 ff ff       	callq  4ae0 <__fprintf_chk@plt>
    55b8:	e9 17 fb ff ff       	jmpq   50d4 <main+0x4c4>
    55bd:	48 8d 3d 7c bb 00 00 	lea    0xbb7c(%rip),%rdi        # 11140 <_IO_stdin_used+0xd40>
    55c4:	e8 47 f0 ff ff       	callq  4610 <gettext@plt>
    55c9:	48 8b 35 30 fc 20 00 	mov    0x20fc30(%rip),%rsi        # 215200 <stderr@@GLIBC_2.2.5>
    55d0:	48 89 c7             	mov    %rax,%rdi
    55d3:	e8 d8 f2 ff ff       	callq  48b0 <fputs@plt>
    55d8:	e9 f0 fd ff ff       	jmpq   53cd <main+0x7bd>
    55dd:	48 8d 3d 14 bf 00 00 	lea    0xbf14(%rip),%rdi        # 114f8 <_IO_stdin_used+0x10f8>
    55e4:	e8 27 f0 ff ff       	callq  4610 <gettext@plt>
    55e9:	48 8b 3d 10 fc 20 00 	mov    0x20fc10(%rip),%rdi        # 215200 <stderr@@GLIBC_2.2.5>
    55f0:	48 89 c2             	mov    %rax,%rdx
    55f3:	4d 89 e0             	mov    %r12,%r8
    55f6:	4c 89 f1             	mov    %r14,%rcx
    55f9:	be 01 00 00 00       	mov    $0x1,%esi
    55fe:	31 c0                	xor    %eax,%eax
    5600:	e8 db f4 ff ff       	callq  4ae0 <__fprintf_chk@plt>
    5605:	e9 76 fb ff ff       	jmpq   5180 <main+0x570>
    560a:	48 8d 3d c8 be 00 00 	lea    0xbec8(%rip),%rdi        # 114d9 <_IO_stdin_used+0x10d9>
    5611:	48 8b 2d 10 fc 20 00 	mov    0x20fc10(%rip),%rbp        # 215228 <path>
    5618:	e8 f3 ef ff ff       	callq  4610 <gettext@plt>
    561d:	48 8b 3d dc fb 20 00 	mov    0x20fbdc(%rip),%rdi        # 215200 <stderr@@GLIBC_2.2.5>
    5624:	48 89 c2             	mov    %rax,%rdx
    5627:	48 89 e9             	mov    %rbp,%rcx
    562a:	be 01 00 00 00       	mov    $0x1,%esi
    562f:	31 c0                	xor    %eax,%eax
    5631:	e8 aa f4 ff ff       	callq  4ae0 <__fprintf_chk@plt>
    5636:	48 8d 3d 53 ba 00 00 	lea    0xba53(%rip),%rdi        # 11090 <_IO_stdin_used+0xc90>
    563d:	e8 ce ef ff ff       	callq  4610 <gettext@plt>
    5642:	48 8b 35 b7 fb 20 00 	mov    0x20fbb7(%rip),%rsi        # 215200 <stderr@@GLIBC_2.2.5>
    5649:	48 89 c7             	mov    %rax,%rdi
    564c:	e8 5f f2 ff ff       	callq  48b0 <fputs@plt>
    5651:	48 8b 3d d0 fb 20 00 	mov    0x20fbd0(%rip),%rdi        # 215228 <path>
    5658:	31 d2                	xor    %edx,%edx
    565a:	31 f6                	xor    %esi,%esi
    565c:	e8 df 21 00 00       	callq  7840 <_Z6searchPcS_PKc>
    5661:	83 7c 24 0c ff       	cmpl   $0xffffffff,0xc(%rsp)
    5666:	0f 85 de f9 ff ff    	jne    504a <main+0x43a>
    566c:	31 ff                	xor    %edi,%edi
    566e:	e8 ed f2 ff ff       	callq  4960 <exit@plt>
    5673:	48 8d 3d 09 be 00 00 	lea    0xbe09(%rip),%rdi        # 11483 <_IO_stdin_used+0x1083>
    567a:	e8 f1 f2 ff ff       	callq  4970 <getenv@plt>
    567f:	48 85 c0             	test   %rax,%rax
    5682:	48 89 05 47 fc 20 00 	mov    %rax,0x20fc47(%rip)        # 2152d0 <dicname>
    5689:	74 47                	je     56d2 <main+0xac2>
    568b:	48 89 c7             	mov    %rax,%rdi
    568e:	e8 6d ef ff ff       	callq  4600 <_Z8mystrdupPKc@plt>
    5693:	48 89 05 36 fc 20 00 	mov    %rax,0x20fc36(%rip)        # 2152d0 <dicname>
    569a:	e9 d7 f7 ff ff       	jmpq   4e76 <main+0x266>
    569f:	48 8d 35 83 bd 00 00 	lea    0xbd83(%rip),%rsi        # 11429 <_IO_stdin_used+0x1029>
    56a6:	4c 89 f7             	mov    %r14,%rdi
    56a9:	e8 22 f3 ff ff       	callq  49d0 <strcmp@plt>
    56ae:	85 c0                	test   %eax,%eax
    56b0:	0f 85 db 00 00 00    	jne    5791 <main+0xb81>
    56b6:	83 3d f7 fb 20 00 06 	cmpl   $0x6,0x20fbf7(%rip)        # 2152b4 <filter_mode>
    56bd:	0f 84 60 f7 ff ff    	je     4e23 <main+0x213>
    56c3:	c7 05 e7 fb 20 00 05 	movl   $0x5,0x20fbe7(%rip)        # 2152b4 <filter_mode>
    56ca:	00 00 00 
    56cd:	e9 51 f7 ff ff       	jmpq   4e23 <main+0x213>
    56d2:	48 8d 05 b5 bd 00 00 	lea    0xbdb5(%rip),%rax        # 1148e <_IO_stdin_used+0x108e>
    56d9:	4c 8d 6c 24 60       	lea    0x60(%rsp),%r13
    56de:	31 ed                	xor    %ebp,%ebp
    56e0:	48 89 44 24 60       	mov    %rax,0x60(%rsp)
    56e5:	48 8d 05 a9 bd 00 00 	lea    0xbda9(%rip),%rax        # 11495 <_IO_stdin_used+0x1095>
    56ec:	48 89 44 24 68       	mov    %rax,0x68(%rsp)
    56f1:	48 8d 05 a9 bd 00 00 	lea    0xbda9(%rip),%rax        # 114a1 <_IO_stdin_used+0x10a1>
    56f8:	48 89 44 24 70       	mov    %rax,0x70(%rsp)
    56fd:	49 8b 7c ed 00       	mov    0x0(%r13,%rbp,8),%rdi
    5702:	e8 69 f2 ff ff       	callq  4970 <getenv@plt>
    5707:	48 85 c0             	test   %rax,%rax
    570a:	48 89 05 bf fb 20 00 	mov    %rax,0x20fbbf(%rip)        # 2152d0 <dicname>
    5711:	74 09                	je     571c <main+0xb0c>
    5713:	80 38 00             	cmpb   $0x0,(%rax)
    5716:	0f 85 a9 05 00 00    	jne    5cc5 <main+0x10b5>
    571c:	48 83 c5 01          	add    $0x1,%rbp
    5720:	48 83 fd 03          	cmp    $0x3,%rbp
    5724:	75 d7                	jne    56fd <main+0xaed>
    5726:	4c 8b 25 a3 fb 20 00 	mov    0x20fba3(%rip),%r12        # 2152d0 <dicname>
    572d:	4d 85 e4             	test   %r12,%r12
    5730:	74 4e                	je     5780 <main+0xb70>
    5732:	48 8d 35 75 bd 00 00 	lea    0xbd75(%rip),%rsi        # 114ae <_IO_stdin_used+0x10ae>
    5739:	4c 89 e7             	mov    %r12,%rdi
    573c:	e8 8f f2 ff ff       	callq  49d0 <strcmp@plt>
    5741:	85 c0                	test   %eax,%eax
    5743:	74 17                	je     575c <main+0xb4c>
    5745:	48 8d 35 64 bd 00 00 	lea    0xbd64(%rip),%rsi        # 114b0 <_IO_stdin_used+0x10b0>
    574c:	4c 89 e7             	mov    %r12,%rdi
    574f:	e8 7c f2 ff ff       	callq  49d0 <strcmp@plt>
    5754:	85 c0                	test   %eax,%eax
    5756:	0f 85 1a f7 ff ff    	jne    4e76 <main+0x266>
    575c:	4c 89 e7             	mov    %r12,%rdi
    575f:	e8 ec f1 ff ff       	callq  4950 <free@plt>
    5764:	48 8d 3d 4b bd 00 00 	lea    0xbd4b(%rip),%rdi        # 114b6 <_IO_stdin_used+0x10b6>
    576b:	e8 90 ee ff ff       	callq  4600 <_Z8mystrdupPKc@plt>
    5770:	48 85 c0             	test   %rax,%rax
    5773:	48 89 05 56 fb 20 00 	mov    %rax,0x20fb56(%rip)        # 2152d0 <dicname>
    577a:	0f 85 f6 f6 ff ff    	jne    4e76 <main+0x266>
    5780:	48 8d 3d 1f bd 00 00 	lea    0xbd1f(%rip),%rdi        # 114a6 <_IO_stdin_used+0x10a6>
    5787:	e8 74 ee ff ff       	callq  4600 <_Z8mystrdupPKc@plt>
    578c:	e9 02 ff ff ff       	jmpq   5693 <main+0xa83>
    5791:	48 8d 35 94 bc 00 00 	lea    0xbc94(%rip),%rsi        # 1142c <_IO_stdin_used+0x102c>
    5798:	4c 89 f7             	mov    %r14,%rdi
    579b:	e8 30 f2 ff ff       	callq  49d0 <strcmp@plt>
    57a0:	85 c0                	test   %eax,%eax
    57a2:	0f 85 be 00 00 00    	jne    5866 <main+0xc56>
    57a8:	83 3d 05 fb 20 00 06 	cmpl   $0x6,0x20fb05(%rip)        # 2152b4 <filter_mode>
    57af:	0f 84 6e f6 ff ff    	je     4e23 <main+0x213>
    57b5:	c7 05 f5 fa 20 00 04 	movl   $0x4,0x20faf5(%rip)        # 2152b4 <filter_mode>
    57bc:	00 00 00 
    57bf:	e9 5f f6 ff ff       	jmpq   4e23 <main+0x213>
    57c4:	48 8b 0d 15 fa 20 00 	mov    0x20fa15(%rip),%rcx        # 2151e0 <stdout@@GLIBC_2.2.5>
    57cb:	48 8d 3d 56 b4 00 00 	lea    0xb456(%rip),%rdi        # 10c28 <_IO_stdin_used+0x828>
    57d2:	ba 45 00 00 00       	mov    $0x45,%edx
    57d7:	be 01 00 00 00       	mov    $0x1,%esi
    57dc:	e8 ff f3 ff ff       	callq  4be0 <fwrite@plt>
    57e1:	48 8b 3d f8 f9 20 00 	mov    0x20f9f8(%rip),%rdi        # 2151e0 <stdout@@GLIBC_2.2.5>
    57e8:	e8 33 f1 ff ff       	callq  4920 <fflush@plt>
    57ed:	e9 39 fb ff ff       	jmpq   532b <main+0x71b>
    57f2:	4c 8d 6c 24 60       	lea    0x60(%rsp),%r13
    57f7:	48 8b 15 f2 f9 20 00 	mov    0x20f9f2(%rip),%rdx        # 2151f0 <stdin@@GLIBC_2.2.5>
    57fe:	8b 74 24 08          	mov    0x8(%rsp),%esi
    5802:	31 c9                	xor    %ecx,%ecx
    5804:	4c 89 ef             	mov    %r13,%rdi
    5807:	e8 f4 31 00 00       	callq  8a00 <_Z14pipe_interfacePP8HunspelliP8_IO_FILEPc>
    580c:	e9 bc fb ff ff       	jmpq   53cd <main+0x7bd>
    5811:	48 8d 3d d2 bc 00 00 	lea    0xbcd2(%rip),%rdi        # 114ea <_IO_stdin_used+0x10ea>
    5818:	e8 53 f1 ff ff       	callq  4970 <getenv@plt>
    581d:	48 89 c7             	mov    %rax,%rdi
    5820:	e8 db ed ff ff       	callq  4600 <_Z8mystrdupPKc@plt>
    5825:	48 89 05 9c fa 20 00 	mov    %rax,0x20fa9c(%rip)        # 2152c8 <privdicname>
    582c:	e9 27 f8 ff ff       	jmpq   5058 <main+0x448>
    5831:	4c 8b 7c 24 10       	mov    0x10(%rsp),%r15
    5836:	48 8d 35 94 ba 00 00 	lea    0xba94(%rip),%rsi        # 112d1 <_IO_stdin_used+0xed1>
    583d:	4c 89 ff             	mov    %r15,%rdi
    5840:	e8 7b f3 ff ff       	callq  4bc0 <_ZNSt7__cxx1112basic_stringIcSt11char_traitsIcESaIcEE6assignEPKc@plt>
    5845:	48 8b 3d 84 fa 20 00 	mov    0x20fa84(%rip),%rdi        # 2152d0 <dicname>
    584c:	be 2f 00 00 00       	mov    $0x2f,%esi
    5851:	e8 8a 17 00 00       	callq  6fe0 <_Z8basenamePKcc>
    5856:	4c 89 ff             	mov    %r15,%rdi
    5859:	48 89 c6             	mov    %rax,%rsi
    585c:	e8 4f f3 ff ff       	callq  4bb0 <_ZNSt7__cxx1112basic_stringIcSt11char_traitsIcESaIcEE6appendEPKc@plt>
    5861:	e9 a9 fa ff ff       	jmpq   530f <main+0x6ff>
    5866:	48 8d 35 c2 bb 00 00 	lea    0xbbc2(%rip),%rsi        # 1142f <_IO_stdin_used+0x102f>
    586d:	4c 89 f7             	mov    %r14,%rdi
    5870:	e8 5b f1 ff ff       	callq  49d0 <strcmp@plt>
    5875:	85 c0                	test   %eax,%eax
    5877:	0f 84 99 00 00 00    	je     5916 <main+0xd06>
    587d:	48 8d 35 ae bb 00 00 	lea    0xbbae(%rip),%rsi        # 11432 <_IO_stdin_used+0x1032>
    5884:	4c 89 f7             	mov    %r14,%rdi
    5887:	e8 44 f1 ff ff       	callq  49d0 <strcmp@plt>
    588c:	85 c0                	test   %eax,%eax
    588e:	0f 84 7a 04 00 00    	je     5d0e <main+0x10fe>
    5894:	48 8d 35 9a bb 00 00 	lea    0xbb9a(%rip),%rsi        # 11435 <_IO_stdin_used+0x1035>
    589b:	4c 89 f7             	mov    %r14,%rdi
    589e:	e8 2d f1 ff ff       	callq  49d0 <strcmp@plt>
    58a3:	85 c0                	test   %eax,%eax
    58a5:	0f 84 70 04 00 00    	je     5d1b <main+0x110b>
    58ab:	48 8d 35 86 bb 00 00 	lea    0xbb86(%rip),%rsi        # 11438 <_IO_stdin_used+0x1038>
    58b2:	4c 89 f7             	mov    %r14,%rdi
    58b5:	e8 16 f1 ff ff       	callq  49d0 <strcmp@plt>
    58ba:	85 c0                	test   %eax,%eax
    58bc:	0f 84 a6 04 00 00    	je     5d68 <main+0x1158>
    58c2:	48 8d 35 72 bb 00 00 	lea    0xbb72(%rip),%rsi        # 1143b <_IO_stdin_used+0x103b>
    58c9:	4c 89 f7             	mov    %r14,%rdi
    58cc:	e8 ff f0 ff ff       	callq  49d0 <strcmp@plt>
    58d1:	85 c0                	test   %eax,%eax
    58d3:	0f 84 82 04 00 00    	je     5d5b <main+0x114b>
    58d9:	48 8d 35 5e bb 00 00 	lea    0xbb5e(%rip),%rsi        # 1143e <_IO_stdin_used+0x103e>
    58e0:	4c 89 f7             	mov    %r14,%rdi
    58e3:	e8 e8 f0 ff ff       	callq  49d0 <strcmp@plt>
    58e8:	85 c0                	test   %eax,%eax
    58ea:	0f 84 b4 04 00 00    	je     5da4 <main+0x1194>
    58f0:	48 8d 35 4a bb 00 00 	lea    0xbb4a(%rip),%rsi        # 11441 <_IO_stdin_used+0x1041>
    58f7:	4c 89 f7             	mov    %r14,%rdi
    58fa:	e8 d1 f0 ff ff       	callq  49d0 <strcmp@plt>
    58ff:	85 c0                	test   %eax,%eax
    5901:	0f 85 6e 04 00 00    	jne    5d75 <main+0x1165>
    5907:	c7 05 a3 f9 20 00 01 	movl   $0x1,0x20f9a3(%rip)        # 2152b4 <filter_mode>
    590e:	00 00 00 
    5911:	e9 0d f5 ff ff       	jmpq   4e23 <main+0x213>
    5916:	83 3d 97 f9 20 00 06 	cmpl   $0x6,0x20f997(%rip)        # 2152b4 <filter_mode>
    591d:	0f 84 00 f5 ff ff    	je     4e23 <main+0x213>
    5923:	c7 05 87 f9 20 00 0b 	movl   $0xb,0x20f987(%rip)        # 2152b4 <filter_mode>
    592a:	00 00 00 
    592d:	e9 f1 f4 ff ff       	jmpq   4e23 <main+0x213>
    5932:	48 8d 3d 07 ac 00 00 	lea    0xac07(%rip),%rdi        # 10540 <_IO_stdin_used+0x140>
    5939:	e8 d2 ec ff ff       	callq  4610 <gettext@plt>
    593e:	48 8b 35 bb f8 20 00 	mov    0x20f8bb(%rip),%rsi        # 215200 <stderr@@GLIBC_2.2.5>
    5945:	48 89 c7             	mov    %rax,%rdi
    5948:	e8 63 ef ff ff       	callq  48b0 <fputs@plt>
    594d:	48 8d 3d 14 ac 00 00 	lea    0xac14(%rip),%rdi        # 10568 <_IO_stdin_used+0x168>
    5954:	e8 b7 ec ff ff       	callq  4610 <gettext@plt>
    5959:	48 8b 35 a0 f8 20 00 	mov    0x20f8a0(%rip),%rsi        # 215200 <stderr@@GLIBC_2.2.5>
    5960:	48 89 c7             	mov    %rax,%rdi
    5963:	e8 48 ef ff ff       	callq  48b0 <fputs@plt>
    5968:	48 8d 3d 41 ac 00 00 	lea    0xac41(%rip),%rdi        # 105b0 <_IO_stdin_used+0x1b0>
    596f:	e8 9c ec ff ff       	callq  4610 <gettext@plt>
    5974:	48 8b 35 85 f8 20 00 	mov    0x20f885(%rip),%rsi        # 215200 <stderr@@GLIBC_2.2.5>
    597b:	48 89 c7             	mov    %rax,%rdi
    597e:	e8 2d ef ff ff       	callq  48b0 <fputs@plt>
    5983:	48 8d 3d 66 ac 00 00 	lea    0xac66(%rip),%rdi        # 105f0 <_IO_stdin_used+0x1f0>
    598a:	e8 81 ec ff ff       	callq  4610 <gettext@plt>
    598f:	48 8b 35 6a f8 20 00 	mov    0x20f86a(%rip),%rsi        # 215200 <stderr@@GLIBC_2.2.5>
    5996:	48 89 c7             	mov    %rax,%rdi
    5999:	e8 12 ef ff ff       	callq  48b0 <fputs@plt>
    599e:	48 8d 3d 6b ac 00 00 	lea    0xac6b(%rip),%rdi        # 10610 <_IO_stdin_used+0x210>
    59a5:	e8 66 ec ff ff       	callq  4610 <gettext@plt>
    59aa:	48 8b 35 4f f8 20 00 	mov    0x20f84f(%rip),%rsi        # 215200 <stderr@@GLIBC_2.2.5>
    59b1:	48 89 c7             	mov    %rax,%rdi
    59b4:	e8 f7 ee ff ff       	callq  48b0 <fputs@plt>
    59b9:	48 8d 3d 90 ac 00 00 	lea    0xac90(%rip),%rdi        # 10650 <_IO_stdin_used+0x250>
    59c0:	e8 4b ec ff ff       	callq  4610 <gettext@plt>
    59c5:	48 8b 35 34 f8 20 00 	mov    0x20f834(%rip),%rsi        # 215200 <stderr@@GLIBC_2.2.5>
    59cc:	48 89 c7             	mov    %rax,%rdi
    59cf:	e8 dc ee ff ff       	callq  48b0 <fputs@plt>
    59d4:	48 8d 3d b5 ac 00 00 	lea    0xacb5(%rip),%rdi        # 10690 <_IO_stdin_used+0x290>
    59db:	e8 30 ec ff ff       	callq  4610 <gettext@plt>
    59e0:	48 8b 35 19 f8 20 00 	mov    0x20f819(%rip),%rsi        # 215200 <stderr@@GLIBC_2.2.5>
    59e7:	48 89 c7             	mov    %rax,%rdi
    59ea:	e8 c1 ee ff ff       	callq  48b0 <fputs@plt>
    59ef:	48 8d 3d ca ac 00 00 	lea    0xacca(%rip),%rdi        # 106c0 <_IO_stdin_used+0x2c0>
    59f6:	e8 15 ec ff ff       	callq  4610 <gettext@plt>
    59fb:	48 8b 35 fe f7 20 00 	mov    0x20f7fe(%rip),%rsi        # 215200 <stderr@@GLIBC_2.2.5>
    5a02:	48 89 c7             	mov    %rax,%rdi
    5a05:	e8 a6 ee ff ff       	callq  48b0 <fputs@plt>
    5a0a:	48 8d 3d d7 ac 00 00 	lea    0xacd7(%rip),%rdi        # 106e8 <_IO_stdin_used+0x2e8>
    5a11:	e8 fa eb ff ff       	callq  4610 <gettext@plt>
    5a16:	48 8b 35 e3 f7 20 00 	mov    0x20f7e3(%rip),%rsi        # 215200 <stderr@@GLIBC_2.2.5>
    5a1d:	48 89 c7             	mov    %rax,%rdi
    5a20:	e8 8b ee ff ff       	callq  48b0 <fputs@plt>
    5a25:	48 8d 3d ec ac 00 00 	lea    0xacec(%rip),%rdi        # 10718 <_IO_stdin_used+0x318>
    5a2c:	e8 df eb ff ff       	callq  4610 <gettext@plt>
    5a31:	48 8b 35 c8 f7 20 00 	mov    0x20f7c8(%rip),%rsi        # 215200 <stderr@@GLIBC_2.2.5>
    5a38:	48 89 c7             	mov    %rax,%rdi
    5a3b:	e8 70 ee ff ff       	callq  48b0 <fputs@plt>
    5a40:	48 8d 3d 5b b9 00 00 	lea    0xb95b(%rip),%rdi        # 113a2 <_IO_stdin_used+0xfa2>
    5a47:	e8 c4 eb ff ff       	callq  4610 <gettext@plt>
    5a4c:	48 8b 35 ad f7 20 00 	mov    0x20f7ad(%rip),%rsi        # 215200 <stderr@@GLIBC_2.2.5>
    5a53:	48 89 c7             	mov    %rax,%rdi
    5a56:	e8 55 ee ff ff       	callq  48b0 <fputs@plt>
    5a5b:	48 8d 3d 5e b9 00 00 	lea    0xb95e(%rip),%rdi        # 113c0 <_IO_stdin_used+0xfc0>
    5a62:	e8 a9 eb ff ff       	callq  4610 <gettext@plt>
    5a67:	48 8b 35 92 f7 20 00 	mov    0x20f792(%rip),%rsi        # 215200 <stderr@@GLIBC_2.2.5>
    5a6e:	48 89 c7             	mov    %rax,%rdi
    5a71:	e8 3a ee ff ff       	callq  48b0 <fputs@plt>
    5a76:	48 8d 3d 5c b9 00 00 	lea    0xb95c(%rip),%rdi        # 113d9 <_IO_stdin_used+0xfd9>
    5a7d:	e8 8e eb ff ff       	callq  4610 <gettext@plt>
    5a82:	48 8b 35 77 f7 20 00 	mov    0x20f777(%rip),%rsi        # 215200 <stderr@@GLIBC_2.2.5>
    5a89:	48 89 c7             	mov    %rax,%rdi
    5a8c:	e8 1f ee ff ff       	callq  48b0 <fputs@plt>
    5a91:	48 8d 3d b0 ac 00 00 	lea    0xacb0(%rip),%rdi        # 10748 <_IO_stdin_used+0x348>
    5a98:	e8 73 eb ff ff       	callq  4610 <gettext@plt>
    5a9d:	48 8b 35 5c f7 20 00 	mov    0x20f75c(%rip),%rsi        # 215200 <stderr@@GLIBC_2.2.5>
    5aa4:	48 89 c7             	mov    %rax,%rdi
    5aa7:	e8 04 ee ff ff       	callq  48b0 <fputs@plt>
    5aac:	48 8d 3d c5 ac 00 00 	lea    0xacc5(%rip),%rdi        # 10778 <_IO_stdin_used+0x378>
    5ab3:	e8 58 eb ff ff       	callq  4610 <gettext@plt>
    5ab8:	48 8b 35 41 f7 20 00 	mov    0x20f741(%rip),%rsi        # 215200 <stderr@@GLIBC_2.2.5>
    5abf:	48 89 c7             	mov    %rax,%rdi
    5ac2:	e8 e9 ed ff ff       	callq  48b0 <fputs@plt>
    5ac7:	48 8d 3d da ac 00 00 	lea    0xacda(%rip),%rdi        # 107a8 <_IO_stdin_used+0x3a8>
    5ace:	e8 3d eb ff ff       	callq  4610 <gettext@plt>
    5ad3:	48 8b 35 26 f7 20 00 	mov    0x20f726(%rip),%rsi        # 215200 <stderr@@GLIBC_2.2.5>
    5ada:	48 89 c7             	mov    %rax,%rdi
    5add:	e8 ce ed ff ff       	callq  48b0 <fputs@plt>
    5ae2:	48 8d 3d e7 ac 00 00 	lea    0xace7(%rip),%rdi        # 107d0 <_IO_stdin_used+0x3d0>
    5ae9:	e8 22 eb ff ff       	callq  4610 <gettext@plt>
    5aee:	48 8b 35 0b f7 20 00 	mov    0x20f70b(%rip),%rsi        # 215200 <stderr@@GLIBC_2.2.5>
    5af5:	48 89 c7             	mov    %rax,%rdi
    5af8:	e8 b3 ed ff ff       	callq  48b0 <fputs@plt>
    5afd:	48 8d 3d 04 ad 00 00 	lea    0xad04(%rip),%rdi        # 10808 <_IO_stdin_used+0x408>
    5b04:	e8 07 eb ff ff       	callq  4610 <gettext@plt>
    5b09:	48 8b 35 f0 f6 20 00 	mov    0x20f6f0(%rip),%rsi        # 215200 <stderr@@GLIBC_2.2.5>
    5b10:	48 89 c7             	mov    %rax,%rdi
    5b13:	e8 98 ed ff ff       	callq  48b0 <fputs@plt>
    5b18:	48 8d 3d 11 ad 00 00 	lea    0xad11(%rip),%rdi        # 10830 <_IO_stdin_used+0x430>
    5b1f:	e8 ec ea ff ff       	callq  4610 <gettext@plt>
    5b24:	48 8b 35 d5 f6 20 00 	mov    0x20f6d5(%rip),%rsi        # 215200 <stderr@@GLIBC_2.2.5>
    5b2b:	48 89 c7             	mov    %rax,%rdi
    5b2e:	e8 7d ed ff ff       	callq  48b0 <fputs@plt>
    5b33:	48 8d 3d 2e ad 00 00 	lea    0xad2e(%rip),%rdi        # 10868 <_IO_stdin_used+0x468>
    5b3a:	e8 d1 ea ff ff       	callq  4610 <gettext@plt>
    5b3f:	48 8b 35 ba f6 20 00 	mov    0x20f6ba(%rip),%rsi        # 215200 <stderr@@GLIBC_2.2.5>
    5b46:	48 89 c7             	mov    %rax,%rdi
    5b49:	e8 62 ed ff ff       	callq  48b0 <fputs@plt>
    5b4e:	48 8d 3d 4b ad 00 00 	lea    0xad4b(%rip),%rdi        # 108a0 <_IO_stdin_used+0x4a0>
    5b55:	e8 b6 ea ff ff       	callq  4610 <gettext@plt>
    5b5a:	48 8b 35 9f f6 20 00 	mov    0x20f69f(%rip),%rsi        # 215200 <stderr@@GLIBC_2.2.5>
    5b61:	48 89 c7             	mov    %rax,%rdi
    5b64:	e8 47 ed ff ff       	callq  48b0 <fputs@plt>
    5b69:	48 8d 3d 60 ad 00 00 	lea    0xad60(%rip),%rdi        # 108d0 <_IO_stdin_used+0x4d0>
    5b70:	e8 9b ea ff ff       	callq  4610 <gettext@plt>
    5b75:	48 8b 35 84 f6 20 00 	mov    0x20f684(%rip),%rsi        # 215200 <stderr@@GLIBC_2.2.5>
    5b7c:	48 89 c7             	mov    %rax,%rdi
    5b7f:	e8 2c ed ff ff       	callq  48b0 <fputs@plt>
    5b84:	48 8d 3d 6d ad 00 00 	lea    0xad6d(%rip),%rdi        # 108f8 <_IO_stdin_used+0x4f8>
    5b8b:	e8 80 ea ff ff       	callq  4610 <gettext@plt>
    5b90:	48 8b 35 69 f6 20 00 	mov    0x20f669(%rip),%rsi        # 215200 <stderr@@GLIBC_2.2.5>
    5b97:	48 89 c7             	mov    %rax,%rdi
    5b9a:	e8 11 ed ff ff       	callq  48b0 <fputs@plt>
    5b9f:	48 8d 3d 7a ad 00 00 	lea    0xad7a(%rip),%rdi        # 10920 <_IO_stdin_used+0x520>
    5ba6:	e8 65 ea ff ff       	callq  4610 <gettext@plt>
    5bab:	48 8b 35 4e f6 20 00 	mov    0x20f64e(%rip),%rsi        # 215200 <stderr@@GLIBC_2.2.5>
    5bb2:	48 89 c7             	mov    %rax,%rdi
    5bb5:	e8 f6 ec ff ff       	callq  48b0 <fputs@plt>
    5bba:	48 8d 3d 87 ad 00 00 	lea    0xad87(%rip),%rdi        # 10948 <_IO_stdin_used+0x548>
    5bc1:	e8 4a ea ff ff       	callq  4610 <gettext@plt>
    5bc6:	48 8b 35 33 f6 20 00 	mov    0x20f633(%rip),%rsi        # 215200 <stderr@@GLIBC_2.2.5>
    5bcd:	48 89 c7             	mov    %rax,%rdi
    5bd0:	e8 db ec ff ff       	callq  48b0 <fputs@plt>
    5bd5:	48 8d 3d 9c ad 00 00 	lea    0xad9c(%rip),%rdi        # 10978 <_IO_stdin_used+0x578>
    5bdc:	e8 2f ea ff ff       	callq  4610 <gettext@plt>
    5be1:	48 8b 35 18 f6 20 00 	mov    0x20f618(%rip),%rsi        # 215200 <stderr@@GLIBC_2.2.5>
    5be8:	48 89 c7             	mov    %rax,%rdi
    5beb:	e8 c0 ec ff ff       	callq  48b0 <fputs@plt>
    5bf0:	48 8d 3d 00 b8 00 00 	lea    0xb800(%rip),%rdi        # 113f7 <_IO_stdin_used+0xff7>
    5bf7:	e8 14 ea ff ff       	callq  4610 <gettext@plt>
    5bfc:	48 8b 35 fd f5 20 00 	mov    0x20f5fd(%rip),%rsi        # 215200 <stderr@@GLIBC_2.2.5>
    5c03:	48 89 c7             	mov    %rax,%rdi
    5c06:	e8 a5 ec ff ff       	callq  48b0 <fputs@plt>
    5c0b:	48 8d 3d ae ad 00 00 	lea    0xadae(%rip),%rdi        # 109c0 <_IO_stdin_used+0x5c0>
    5c12:	e8 f9 e9 ff ff       	callq  4610 <gettext@plt>
    5c17:	48 8b 35 e2 f5 20 00 	mov    0x20f5e2(%rip),%rsi        # 215200 <stderr@@GLIBC_2.2.5>
    5c1e:	48 89 c7             	mov    %rax,%rdi
    5c21:	e8 8a ec ff ff       	callq  48b0 <fputs@plt>
    5c26:	48 8d 3d cb af 00 00 	lea    0xafcb(%rip),%rdi        # 10bf8 <_IO_stdin_used+0x7f8>
    5c2d:	e8 de e9 ff ff       	callq  4610 <gettext@plt>
    5c32:	48 8b 35 c7 f5 20 00 	mov    0x20f5c7(%rip),%rsi        # 215200 <stderr@@GLIBC_2.2.5>
    5c39:	48 89 c7             	mov    %rax,%rdi
    5c3c:	e8 6f ec ff ff       	callq  48b0 <fputs@plt>
    5c41:	e9 26 fa ff ff       	jmpq   566c <main+0xa5c>
    5c46:	48 8d 3d db af 00 00 	lea    0xafdb(%rip),%rdi        # 10c28 <_IO_stdin_used+0x828>
    5c4d:	e8 be e9 ff ff       	callq  4610 <gettext@plt>
    5c52:	48 8b 35 87 f5 20 00 	mov    0x20f587(%rip),%rsi        # 2151e0 <stdout@@GLIBC_2.2.5>
    5c59:	48 89 c7             	mov    %rax,%rdi
    5c5c:	e8 4f ec ff ff       	callq  48b0 <fputs@plt>
    5c61:	48 8b 35 78 f5 20 00 	mov    0x20f578(%rip),%rsi        # 2151e0 <stdout@@GLIBC_2.2.5>
    5c68:	bf 0a 00 00 00       	mov    $0xa,%edi
    5c6d:	e8 0e ed ff ff       	callq  4980 <fputc@plt>
    5c72:	49 8b 3c 24          	mov    (%r12),%rdi
    5c76:	48 8d 35 98 b7 00 00 	lea    0xb798(%rip),%rsi        # 11415 <_IO_stdin_used+0x1015>
    5c7d:	e8 4e ed ff ff       	callq  49d0 <strcmp@plt>
    5c82:	85 c0                	test   %eax,%eax
    5c84:	0f 84 e2 f9 ff ff    	je     566c <main+0xa5c>
    5c8a:	48 8d 3d df af 00 00 	lea    0xafdf(%rip),%rdi        # 10c70 <_IO_stdin_used+0x870>
    5c91:	e8 7a e9 ff ff       	callq  4610 <gettext@plt>
    5c96:	48 8b 35 43 f5 20 00 	mov    0x20f543(%rip),%rsi        # 2151e0 <stdout@@GLIBC_2.2.5>
    5c9d:	48 89 c7             	mov    %rax,%rdi
    5ca0:	e8 0b ec ff ff       	callq  48b0 <fputs@plt>
    5ca5:	48 8d 3d 7c b0 00 00 	lea    0xb07c(%rip),%rdi        # 10d28 <_IO_stdin_used+0x928>
    5cac:	e8 5f e9 ff ff       	callq  4610 <gettext@plt>
    5cb1:	48 8b 35 28 f5 20 00 	mov    0x20f528(%rip),%rsi        # 2151e0 <stdout@@GLIBC_2.2.5>
    5cb8:	48 89 c7             	mov    %rax,%rdi
    5cbb:	e8 f0 eb ff ff       	callq  48b0 <fputs@plt>
    5cc0:	e9 a7 f9 ff ff       	jmpq   566c <main+0xa5c>
    5cc5:	48 89 c7             	mov    %rax,%rdi
    5cc8:	e8 33 e9 ff ff       	callq  4600 <_Z8mystrdupPKc@plt>
    5ccd:	be 2e 00 00 00       	mov    $0x2e,%esi
    5cd2:	48 89 c7             	mov    %rax,%rdi
    5cd5:	48 89 05 f4 f5 20 00 	mov    %rax,0x20f5f4(%rip)        # 2152d0 <dicname>
    5cdc:	e8 df e9 ff ff       	callq  46c0 <strchr@plt>
    5ce1:	48 85 c0             	test   %rax,%rax
    5ce4:	74 03                	je     5ce9 <main+0x10d9>
    5ce6:	c6 00 00             	movb   $0x0,(%rax)
    5ce9:	4c 8b 25 e0 f5 20 00 	mov    0x20f5e0(%rip),%r12        # 2152d0 <dicname>
    5cf0:	be 40 00 00 00       	mov    $0x40,%esi
    5cf5:	4c 89 e7             	mov    %r12,%rdi
    5cf8:	e8 c3 e9 ff ff       	callq  46c0 <strchr@plt>
    5cfd:	48 85 c0             	test   %rax,%rax
    5d00:	0f 84 27 fa ff ff    	je     572d <main+0xb1d>
    5d06:	c6 00 00             	movb   $0x0,(%rax)
    5d09:	e9 18 fa ff ff       	jmpq   5726 <main+0xb16>
    5d0e:	c7 44 24 08 01 00 00 	movl   $0x1,0x8(%rsp)
    5d15:	00 
    5d16:	e9 08 f1 ff ff       	jmpq   4e23 <main+0x213>
    5d1b:	c7 44 24 08 03 00 00 	movl   $0x3,0x8(%rsp)
    5d22:	00 
    5d23:	e9 fb f0 ff ff       	jmpq   4e23 <main+0x213>
    5d28:	49 8b 1c 24          	mov    (%r12),%rbx
    5d2c:	48 8d 3d 5c b5 00 00 	lea    0xb55c(%rip),%rdi        # 1128f <_IO_stdin_used+0xe8f>
    5d33:	e8 d8 e8 ff ff       	callq  4610 <gettext@plt>
    5d38:	48 8b 3d c1 f4 20 00 	mov    0x20f4c1(%rip),%rdi        # 215200 <stderr@@GLIBC_2.2.5>
    5d3f:	48 89 c2             	mov    %rax,%rdx
    5d42:	48 89 d9             	mov    %rbx,%rcx
    5d45:	be 01 00 00 00       	mov    $0x1,%esi
    5d4a:	31 c0                	xor    %eax,%eax
    5d4c:	e8 8f ed ff ff       	callq  4ae0 <__fprintf_chk@plt>
    5d51:	bf 01 00 00 00       	mov    $0x1,%edi
    5d56:	e8 05 ec ff ff       	callq  4960 <exit@plt>
    5d5b:	c7 44 24 08 05 00 00 	movl   $0x5,0x8(%rsp)
    5d62:	00 
    5d63:	e9 bb f0 ff ff       	jmpq   4e23 <main+0x213>
    5d68:	c7 44 24 08 02 00 00 	movl   $0x2,0x8(%rsp)
    5d6f:	00 
    5d70:	e9 ae f0 ff ff       	jmpq   4e23 <main+0x213>
    5d75:	48 8d 35 c8 b6 00 00 	lea    0xb6c8(%rip),%rsi        # 11444 <_IO_stdin_used+0x1044>
    5d7c:	4c 89 f7             	mov    %r14,%rdi
    5d7f:	e8 4c ec ff ff       	callq  49d0 <strcmp@plt>
    5d84:	85 c0                	test   %eax,%eax
    5d86:	75 29                	jne    5db1 <main+0x11a1>
    5d88:	83 3d 25 f5 20 00 06 	cmpl   $0x6,0x20f525(%rip)        # 2152b4 <filter_mode>
    5d8f:	0f 84 8e f0 ff ff    	je     4e23 <main+0x213>
    5d95:	c7 05 15 f5 20 00 02 	movl   $0x2,0x20f515(%rip)        # 2152b4 <filter_mode>
    5d9c:	00 00 00 
    5d9f:	e9 7f f0 ff ff       	jmpq   4e23 <main+0x213>
    5da4:	c7 44 24 08 06 00 00 	movl   $0x6,0x8(%rsp)
    5dab:	00 
    5dac:	e9 72 f0 ff ff       	jmpq   4e23 <main+0x213>
    5db1:	48 8d 35 8f b6 00 00 	lea    0xb68f(%rip),%rsi        # 11447 <_IO_stdin_used+0x1047>
    5db8:	4c 89 f7             	mov    %r14,%rdi
    5dbb:	e8 10 ec ff ff       	callq  49d0 <strcmp@plt>
    5dc0:	85 c0                	test   %eax,%eax
    5dc2:	75 5f                	jne    5e23 <main+0x1213>
    5dc4:	83 3d e9 f4 20 00 06 	cmpl   $0x6,0x20f4e9(%rip)        # 2152b4 <filter_mode>
    5dcb:	0f 84 52 f0 ff ff    	je     4e23 <main+0x213>
    5dd1:	c7 05 d9 f4 20 00 03 	movl   $0x3,0x20f4d9(%rip)        # 2152b4 <filter_mode>
    5dd8:	00 00 00 
    5ddb:	e9 43 f0 ff ff       	jmpq   4e23 <main+0x213>
    5de0:	48 8b 1d e9 f4 20 00 	mov    0x20f4e9(%rip),%rbx        # 2152d0 <dicname>
    5de7:	48 8d 3d 0a b3 00 00 	lea    0xb30a(%rip),%rdi        # 110f8 <_IO_stdin_used+0xcf8>
    5dee:	e9 40 ff ff ff       	jmpq   5d33 <main+0x1123>
    5df3:	be 08 00 00 00       	mov    $0x8,%esi
    5df8:	4c 89 ef             	mov    %r13,%rdi
    5dfb:	48 89 c3             	mov    %rax,%rbx
    5dfe:	e8 5d ea ff ff       	callq  4860 <_ZdlPvm@plt>
    5e03:	48 8b 54 24 10       	mov    0x10(%rsp),%rdx
    5e08:	48 8b 7c 24 20       	mov    0x20(%rsp),%rdi
    5e0d:	48 83 c2 10          	add    $0x10,%rdx
    5e11:	48 39 d7             	cmp    %rdx,%rdi
    5e14:	74 05                	je     5e1b <main+0x120b>
    5e16:	e8 e5 e9 ff ff       	callq  4800 <_ZdlPv@plt>
    5e1b:	48 89 df             	mov    %rbx,%rdi
    5e1e:	e8 ed ec ff ff       	callq  4b10 <_Unwind_Resume@plt>
    5e23:	48 8d 35 20 b6 00 00 	lea    0xb620(%rip),%rsi        # 1144a <_IO_stdin_used+0x104a>
    5e2a:	4c 89 f7             	mov    %r14,%rdi
    5e2d:	e8 9e eb ff ff       	callq  49d0 <strcmp@plt>
    5e32:	85 c0                	test   %eax,%eax
    5e34:	75 7a                	jne    5eb0 <main+0x12a0>
    5e36:	83 3d 77 f4 20 00 06 	cmpl   $0x6,0x20f477(%rip)        # 2152b4 <filter_mode>
    5e3d:	0f 84 e0 ef ff ff    	je     4e23 <main+0x213>
    5e43:	c7 05 67 f4 20 00 07 	movl   $0x7,0x20f467(%rip)        # 2152b4 <filter_mode>
    5e4a:	00 00 00 
    5e4d:	e9 d1 ef ff ff       	jmpq   4e23 <main+0x213>
    5e52:	eb 9f                	jmp    5df3 <main+0x11e3>
    5e54:	48 8d 3d 91 b3 00 00 	lea    0xb391(%rip),%rdi        # 111ec <_IO_stdin_used+0xdec>
    5e5b:	e8 c0 e8 ff ff       	callq  4720 <_ZSt20__throw_length_errorPKc@plt>
    5e60:	48 8d 3d 85 b3 00 00 	lea    0xb385(%rip),%rdi        # 111ec <_IO_stdin_used+0xdec>
    5e67:	e8 b4 e8 ff ff       	callq  4720 <_ZSt20__throw_length_errorPKc@plt>
    5e6c:	48 8d 3d 79 b3 00 00 	lea    0xb379(%rip),%rdi        # 111ec <_IO_stdin_used+0xdec>
    5e73:	e8 a8 e8 ff ff       	callq  4720 <_ZSt20__throw_length_errorPKc@plt>
    5e78:	e8 13 ea ff ff       	callq  4890 <__stack_chk_fail@plt>
    5e7d:	48 8b 7c 24 40       	mov    0x40(%rsp),%rdi
    5e82:	48 83 c5 10          	add    $0x10,%rbp
    5e86:	48 89 c3             	mov    %rax,%rbx
    5e89:	48 39 ef             	cmp    %rbp,%rdi
    5e8c:	0f 84 71 ff ff ff    	je     5e03 <main+0x11f3>
    5e92:	e8 69 e9 ff ff       	callq  4800 <_ZdlPv@plt>
    5e97:	e9 67 ff ff ff       	jmpq   5e03 <main+0x11f3>
    5e9c:	48 8d 3d 49 b3 00 00 	lea    0xb349(%rip),%rdi        # 111ec <_IO_stdin_used+0xdec>
    5ea3:	e8 78 e8 ff ff       	callq  4720 <_ZSt20__throw_length_errorPKc@plt>
    5ea8:	48 89 c3             	mov    %rax,%rbx
    5eab:	e9 53 ff ff ff       	jmpq   5e03 <main+0x11f3>
    5eb0:	48 8d 35 96 b5 00 00 	lea    0xb596(%rip),%rsi        # 1144d <_IO_stdin_used+0x104d>
    5eb7:	4c 89 f7             	mov    %r14,%rdi
    5eba:	e8 11 eb ff ff       	callq  49d0 <strcmp@plt>
    5ebf:	85 c0                	test   %eax,%eax
    5ec1:	75 1c                	jne    5edf <main+0x12cf>
    5ec3:	83 3d ea f3 20 00 06 	cmpl   $0x6,0x20f3ea(%rip)        # 2152b4 <filter_mode>
    5eca:	0f 84 53 ef ff ff    	je     4e23 <main+0x213>
    5ed0:	c7 05 da f3 20 00 08 	movl   $0x8,0x20f3da(%rip)        # 2152b4 <filter_mode>
    5ed7:	00 00 00 
    5eda:	e9 44 ef ff ff       	jmpq   4e23 <main+0x213>
    5edf:	48 8d 35 6a b5 00 00 	lea    0xb56a(%rip),%rsi        # 11450 <_IO_stdin_used+0x1050>
    5ee6:	4c 89 f7             	mov    %r14,%rdi
    5ee9:	e8 e2 ea ff ff       	callq  49d0 <strcmp@plt>
    5eee:	85 c0                	test   %eax,%eax
    5ef0:	75 1c                	jne    5f0e <main+0x12fe>
    5ef2:	83 3d bb f3 20 00 06 	cmpl   $0x6,0x20f3bb(%rip)        # 2152b4 <filter_mode>
    5ef9:	0f 84 24 ef ff ff    	je     4e23 <main+0x213>
    5eff:	c7 05 ab f3 20 00 09 	movl   $0x9,0x20f3ab(%rip)        # 2152b4 <filter_mode>
    5f06:	00 00 00 
    5f09:	e9 15 ef ff ff       	jmpq   4e23 <main+0x213>
    5f0e:	48 8d 35 3f b5 00 00 	lea    0xb53f(%rip),%rsi        # 11454 <_IO_stdin_used+0x1054>
    5f15:	4c 89 f7             	mov    %r14,%rdi
    5f18:	e8 b3 ea ff ff       	callq  49d0 <strcmp@plt>
    5f1d:	85 c0                	test   %eax,%eax
    5f1f:	75 1c                	jne    5f3d <main+0x132d>
    5f21:	83 3d 8c f3 20 00 06 	cmpl   $0x6,0x20f38c(%rip)        # 2152b4 <filter_mode>
    5f28:	0f 84 f5 ee ff ff    	je     4e23 <main+0x213>
    5f2e:	c7 05 7c f3 20 00 0a 	movl   $0xa,0x20f37c(%rip)        # 2152b4 <filter_mode>
    5f35:	00 00 00 
    5f38:	e9 e6 ee ff ff       	jmpq   4e23 <main+0x213>
    5f3d:	48 8d 35 14 b5 00 00 	lea    0xb514(%rip),%rsi        # 11458 <_IO_stdin_used+0x1058>
    5f44:	4c 89 f7             	mov    %r14,%rdi
    5f47:	e8 84 ea ff ff       	callq  49d0 <strcmp@plt>
    5f4c:	85 c0                	test   %eax,%eax
    5f4e:	75 0f                	jne    5f5f <main+0x134f>
    5f50:	c7 05 56 f3 20 00 01 	movl   $0x1,0x20f356(%rip)        # 2152b0 <printgood>
    5f57:	00 00 00 
    5f5a:	e9 c4 ee ff ff       	jmpq   4e23 <main+0x213>
    5f5f:	48 8d 35 f5 b4 00 00 	lea    0xb4f5(%rip),%rsi        # 1145b <_IO_stdin_used+0x105b>
    5f66:	4c 89 f7             	mov    %r14,%rdi
    5f69:	e8 62 ea ff ff       	callq  49d0 <strcmp@plt>
    5f6e:	85 c0                	test   %eax,%eax
    5f70:	74 22                	je     5f94 <main+0x1384>
    5f72:	48 8d 35 e5 b4 00 00 	lea    0xb4e5(%rip),%rsi        # 1145e <_IO_stdin_used+0x105e>
    5f79:	4c 89 f7             	mov    %r14,%rdi
    5f7c:	e8 4f ea ff ff       	callq  49d0 <strcmp@plt>
    5f81:	85 c0                	test   %eax,%eax
    5f83:	75 1c                	jne    5fa1 <main+0x1391>
    5f85:	c7 05 1d f3 20 00 01 	movl   $0x1,0x20f31d(%rip)        # 2152ac <showpath>
    5f8c:	00 00 00 
    5f8f:	e9 8f ee ff ff       	jmpq   4e23 <main+0x213>
    5f94:	c7 44 24 08 04 00 00 	movl   $0x4,0x8(%rsp)
    5f9b:	00 
    5f9c:	e9 82 ee ff ff       	jmpq   4e23 <main+0x213>
    5fa1:	48 8d 35 b9 b4 00 00 	lea    0xb4b9(%rip),%rsi        # 11461 <_IO_stdin_used+0x1061>
    5fa8:	4c 89 f7             	mov    %r14,%rdi
    5fab:	e8 20 ea ff ff       	callq  49d0 <strcmp@plt>
    5fb0:	85 c0                	test   %eax,%eax
    5fb2:	75 0f                	jne    5fc3 <main+0x13b3>
    5fb4:	c7 05 e2 f2 20 00 01 	movl   $0x1,0x20f2e2(%rip)        # 2152a0 <warn>
    5fbb:	00 00 00 
    5fbe:	e9 60 ee ff ff       	jmpq   4e23 <main+0x213>
    5fc3:	48 8d 35 9a b4 00 00 	lea    0xb49a(%rip),%rsi        # 11464 <_IO_stdin_used+0x1064>
    5fca:	4c 89 f7             	mov    %r14,%rdi
    5fcd:	e8 fe e9 ff ff       	callq  49d0 <strcmp@plt>
    5fd2:	85 c0                	test   %eax,%eax
    5fd4:	75 0f                	jne    5fe5 <main+0x13d5>
    5fd6:	c7 05 c8 f2 20 00 01 	movl   $0x1,0x20f2c8(%rip)        # 2152a8 <checkurl>
    5fdd:	00 00 00 
    5fe0:	e9 3e ee ff ff       	jmpq   4e23 <main+0x213>
    5fe5:	48 8d 35 84 b4 00 00 	lea    0xb484(%rip),%rsi        # 11470 <_IO_stdin_used+0x1070>
    5fec:	4c 89 f7             	mov    %r14,%rdi
    5fef:	e8 dc e9 ff ff       	callq  49d0 <strcmp@plt>
    5ff4:	85 c0                	test   %eax,%eax
    5ff6:	75 0f                	jne    6007 <main+0x13f7>
    5ff8:	c7 05 a2 f2 20 00 01 	movl   $0x1,0x20f2a2(%rip)        # 2152a4 <checkapos>
    5fff:	00 00 00 
    6002:	e9 1c ee ff ff       	jmpq   4e23 <main+0x213>
    6007:	83 7c 24 0c ff       	cmpl   $0xffffffff,0xc(%rsp)
    600c:	0f 85 11 ee ff ff    	jne    4e23 <main+0x213>
    6012:	41 0f b6 06          	movzbl (%r14),%eax
    6016:	84 c0                	test   %al,%al
    6018:	0f 84 05 ee ff ff    	je     4e23 <main+0x213>
    601e:	3c 2d                	cmp    $0x2d,%al
    6020:	0f 84 fd ed ff ff    	je     4e23 <main+0x213>
    6026:	4c 89 f7             	mov    %r14,%rdi
    6029:	e8 32 0b 00 00       	callq  6b60 <_Z5existPKc>
    602e:	84 c0                	test   %al,%al
    6030:	0f 84 f2 fc ff ff    	je     5d28 <main+0x1118>
    6036:	44 89 6c 24 0c       	mov    %r13d,0xc(%rsp)
    603b:	e9 e3 ed ff ff       	jmpq   4e23 <main+0x213>

0000000000006040 <_GLOBAL__sub_I_text_conv>:
    6040:	48 8d 05 e9 f2 20 00 	lea    0x20f2e9(%rip),%rax        # 215330 <_Z9wordcharsB5cxx11+0x10>
    6047:	48 83 ec 08          	sub    $0x8,%rsp
    604b:	48 8b 3d 86 ef 20 00 	mov    0x20ef86(%rip),%rdi        # 214fd8 <_ZNSt7__cxx1112basic_stringIcSt11char_traitsIcESaIcEED1Ev@GLIBCXX_3.4.21>
    6052:	48 8d 15 af ef 20 00 	lea    0x20efaf(%rip),%rdx        # 215008 <__dso_handle>
    6059:	48 c7 05 c4 f2 20 00 	movq   $0x0,0x20f2c4(%rip)        # 215328 <_Z9wordcharsB5cxx11+0x8>
    6060:	00 00 00 00 
    6064:	c6 05 c5 f2 20 00 00 	movb   $0x0,0x20f2c5(%rip)        # 215330 <_Z9wordcharsB5cxx11+0x10>
    606b:	48 8d 70 f0          	lea    -0x10(%rax),%rsi
    606f:	48 89 05 aa f2 20 00 	mov    %rax,0x20f2aa(%rip)        # 215320 <_Z9wordcharsB5cxx11>
    6076:	e8 55 e7 ff ff       	callq  47d0 <__cxa_atexit@plt>
    607b:	48 8d 15 86 ef 20 00 	lea    0x20ef86(%rip),%rdx        # 215008 <__dso_handle>
    6082:	48 8d 35 57 f2 20 00 	lea    0x20f257(%rip),%rsi        # 2152e0 <new_wordchars_utf16>
    6089:	48 8d 3d 60 61 00 00 	lea    0x6160(%rip),%rdi        # c1f0 <_ZNSt6vectorI6w_charSaIS0_EED1Ev>
    6090:	48 c7 05 45 f2 20 00 	movq   $0x0,0x20f245(%rip)        # 2152e0 <new_wordchars_utf16>
    6097:	00 00 00 00 
    609b:	48 c7 05 42 f2 20 00 	movq   $0x0,0x20f242(%rip)        # 2152e8 <new_wordchars_utf16+0x8>
    60a2:	00 00 00 00 
    60a6:	48 c7 05 3f f2 20 00 	movq   $0x0,0x20f23f(%rip)        # 2152f0 <new_wordchars_utf16+0x10>
    60ad:	00 00 00 00 
    60b1:	48 83 c4 08          	add    $0x8,%rsp
    60b5:	e9 16 e7 ff ff       	jmpq   47d0 <__cxa_atexit@plt>
    60ba:	66 0f 1f 44 00 00    	nopw   0x0(%rax,%rax,1)

00000000000060c0 <_start>:
    60c0:	31 ed                	xor    %ebp,%ebp
    60c2:	49 89 d1             	mov    %rdx,%r9
    60c5:	5e                   	pop    %rsi
    60c6:	48 89 e2             	mov    %rsp,%rdx
    60c9:	48 83 e4 f0          	and    $0xfffffffffffffff0,%rsp
    60cd:	50                   	push   %rax
    60ce:	54                   	push   %rsp
    60cf:	4c 8d 05 1a a3 00 00 	lea    0xa31a(%rip),%r8        # 103f0 <__libc_csu_fini>
    60d6:	48 8d 0d a3 a2 00 00 	lea    0xa2a3(%rip),%rcx        # 10380 <__libc_csu_init>
    60dd:	48 8d 3d 2c eb ff ff 	lea    -0x14d4(%rip),%rdi        # 4c10 <main>
    60e4:	ff 15 fe ee 20 00    	callq  *0x20eefe(%rip)        # 214fe8 <__libc_start_main@GLIBC_2.2.5>
    60ea:	f4                   	hlt    
    60eb:	0f 1f 44 00 00       	nopl   0x0(%rax,%rax,1)

00000000000060f0 <deregister_tm_clones>:
    60f0:	48 8d 3d e9 f0 20 00 	lea    0x20f0e9(%rip),%rdi        # 2151e0 <stdout@@GLIBC_2.2.5>
    60f7:	55                   	push   %rbp
    60f8:	48 8d 05 e1 f0 20 00 	lea    0x20f0e1(%rip),%rax        # 2151e0 <stdout@@GLIBC_2.2.5>
    60ff:	48 39 f8             	cmp    %rdi,%rax
    6102:	48 89 e5             	mov    %rsp,%rbp
    6105:	74 19                	je     6120 <deregister_tm_clones+0x30>
    6107:	48 8b 05 d2 ee 20 00 	mov    0x20eed2(%rip),%rax        # 214fe0 <_ITM_deregisterTMCloneTable>
    610e:	48 85 c0             	test   %rax,%rax
    6111:	74 0d                	je     6120 <deregister_tm_clones+0x30>
    6113:	5d                   	pop    %rbp
    6114:	ff e0                	jmpq   *%rax
    6116:	66 2e 0f 1f 84 00 00 	nopw   %cs:0x0(%rax,%rax,1)
    611d:	00 00 00 
    6120:	5d                   	pop    %rbp
    6121:	c3                   	retq   
    6122:	0f 1f 40 00          	nopl   0x0(%rax)
    6126:	66 2e 0f 1f 84 00 00 	nopw   %cs:0x0(%rax,%rax,1)
    612d:	00 00 00 

0000000000006130 <register_tm_clones>:
    6130:	48 8d 3d a9 f0 20 00 	lea    0x20f0a9(%rip),%rdi        # 2151e0 <stdout@@GLIBC_2.2.5>
    6137:	48 8d 35 a2 f0 20 00 	lea    0x20f0a2(%rip),%rsi        # 2151e0 <stdout@@GLIBC_2.2.5>
    613e:	55                   	push   %rbp
    613f:	48 29 fe             	sub    %rdi,%rsi
    6142:	48 89 e5             	mov    %rsp,%rbp
    6145:	48 c1 fe 03          	sar    $0x3,%rsi
    6149:	48 89 f0             	mov    %rsi,%rax
    614c:	48 c1 e8 3f          	shr    $0x3f,%rax
    6150:	48 01 c6             	add    %rax,%rsi
    6153:	48 d1 fe             	sar    %rsi
    6156:	74 18                	je     6170 <register_tm_clones+0x40>
    6158:	48 8b 05 99 ee 20 00 	mov    0x20ee99(%rip),%rax        # 214ff8 <_ITM_registerTMCloneTable>
    615f:	48 85 c0             	test   %rax,%rax
    6162:	74 0c                	je     6170 <register_tm_clones+0x40>
    6164:	5d                   	pop    %rbp
    6165:	ff e0                	jmpq   *%rax
    6167:	66 0f 1f 84 00 00 00 	nopw   0x0(%rax,%rax,1)
    616e:	00 00 
    6170:	5d                   	pop    %rbp
    6171:	c3                   	retq   
    6172:	0f 1f 40 00          	nopl   0x0(%rax)
    6176:	66 2e 0f 1f 84 00 00 	nopw   %cs:0x0(%rax,%rax,1)
    617d:	00 00 00 

0000000000006180 <__do_global_dtors_aux>:
    6180:	80 3d 81 f0 20 00 00 	cmpb   $0x0,0x20f081(%rip)        # 215208 <completed.7698>
    6187:	75 2f                	jne    61b8 <__do_global_dtors_aux+0x38>
    6189:	48 83 3d 3f ee 20 00 	cmpq   $0x0,0x20ee3f(%rip)        # 214fd0 <__cxa_finalize@GLIBC_2.2.5>
    6190:	00 
    6191:	55                   	push   %rbp
    6192:	48 89 e5             	mov    %rsp,%rbp
    6195:	74 0c                	je     61a3 <__do_global_dtors_aux+0x23>
    6197:	48 8b 3d 6a ee 20 00 	mov    0x20ee6a(%rip),%rdi        # 215008 <__dso_handle>
    619e:	e8 5d ea ff ff       	callq  4c00 <__cxa_finalize@plt>
    61a3:	e8 48 ff ff ff       	callq  60f0 <deregister_tm_clones>
    61a8:	c6 05 59 f0 20 00 01 	movb   $0x1,0x20f059(%rip)        # 215208 <completed.7698>
    61af:	5d                   	pop    %rbp
    61b0:	c3                   	retq   
    61b1:	0f 1f 80 00 00 00 00 	nopl   0x0(%rax)
    61b8:	f3 c3                	repz retq 
    61ba:	66 0f 1f 44 00 00    	nopw   0x0(%rax,%rax,1)

00000000000061c0 <frame_dummy>:
    61c0:	55                   	push   %rbp
    61c1:	48 89 e5             	mov    %rsp,%rbp
    61c4:	5d                   	pop    %rbp
    61c5:	e9 66 ff ff ff       	jmpq   6130 <register_tm_clones>
    61ca:	66 0f 1f 44 00 00    	nopw   0x0(%rax,%rax,1)

00000000000061d0 <_ZNSt7__cxx1112basic_stringIcSt11char_traitsIcESaIcEE12_M_constructIPKcEEvT_S8_St20forward_iterator_tag.isra.52>:
    61d0:	41 54                	push   %r12
    61d2:	55                   	push   %rbp
    61d3:	49 89 f4             	mov    %rsi,%r12
    61d6:	53                   	push   %rbx
    61d7:	48 89 fd             	mov    %rdi,%rbp
    61da:	48 83 ec 10          	sub    $0x10,%rsp
    61de:	64 48 8b 04 25 28 00 	mov    %fs:0x28,%rax
    61e5:	00 00 
    61e7:	48 89 44 24 08       	mov    %rax,0x8(%rsp)
    61ec:	31 c0                	xor    %eax,%eax
    61ee:	48 85 f6             	test   %rsi,%rsi
    61f1:	75 09                	jne    61fc <_ZNSt7__cxx1112basic_stringIcSt11char_traitsIcESaIcEE12_M_constructIPKcEEvT_S8_St20forward_iterator_tag.isra.52+0x2c>
    61f3:	48 85 d2             	test   %rdx,%rdx
    61f6:	0f 85 8b 00 00 00    	jne    6287 <_ZNSt7__cxx1112basic_stringIcSt11char_traitsIcESaIcEE12_M_constructIPKcEEvT_S8_St20forward_iterator_tag.isra.52+0xb7>
    61fc:	48 89 d3             	mov    %rdx,%rbx
    61ff:	4c 29 e3             	sub    %r12,%rbx
    6202:	48 83 fb 0f          	cmp    $0xf,%rbx
    6206:	48 89 1c 24          	mov    %rbx,(%rsp)
    620a:	77 44                	ja     6250 <_ZNSt7__cxx1112basic_stringIcSt11char_traitsIcESaIcEE12_M_constructIPKcEEvT_S8_St20forward_iterator_tag.isra.52+0x80>
    620c:	48 8b 55 00          	mov    0x0(%rbp),%rdx
    6210:	48 83 fb 01          	cmp    $0x1,%rbx
    6214:	48 89 d0             	mov    %rdx,%rax
    6217:	75 67                	jne    6280 <_ZNSt7__cxx1112basic_stringIcSt11char_traitsIcESaIcEE12_M_constructIPKcEEvT_S8_St20forward_iterator_tag.isra.52+0xb0>
    6219:	41 0f b6 04 24       	movzbl (%r12),%eax
    621e:	88 02                	mov    %al,(%rdx)
    6220:	48 8b 55 00          	mov    0x0(%rbp),%rdx
    6224:	48 8b 04 24          	mov    (%rsp),%rax
    6228:	48 89 45 08          	mov    %rax,0x8(%rbp)
    622c:	c6 04 02 00          	movb   $0x0,(%rdx,%rax,1)
    6230:	48 8b 44 24 08       	mov    0x8(%rsp),%rax
    6235:	64 48 33 04 25 28 00 	xor    %fs:0x28,%rax
    623c:	00 00 
    623e:	75 53                	jne    6293 <_ZNSt7__cxx1112basic_stringIcSt11char_traitsIcESaIcEE12_M_constructIPKcEEvT_S8_St20forward_iterator_tag.isra.52+0xc3>
    6240:	48 83 c4 10          	add    $0x10,%rsp
    6244:	5b                   	pop    %rbx
    6245:	5d                   	pop    %rbp
    6246:	41 5c                	pop    %r12
    6248:	c3                   	retq   
    6249:	0f 1f 80 00 00 00 00 	nopl   0x0(%rax)
    6250:	31 d2                	xor    %edx,%edx
    6252:	48 89 e6             	mov    %rsp,%rsi
    6255:	48 89 ef             	mov    %rbp,%rdi
    6258:	e8 d3 e8 ff ff       	callq  4b30 <_ZNSt7__cxx1112basic_stringIcSt11char_traitsIcESaIcEE9_M_createERmm@plt>
    625d:	48 8b 14 24          	mov    (%rsp),%rdx
    6261:	48 89 45 00          	mov    %rax,0x0(%rbp)
    6265:	48 89 55 10          	mov    %rdx,0x10(%rbp)
    6269:	48 89 da             	mov    %rbx,%rdx
    626c:	4c 89 e6             	mov    %r12,%rsi
    626f:	48 89 c7             	mov    %rax,%rdi
    6272:	e8 19 e5 ff ff       	callq  4790 <memcpy@plt>
    6277:	48 8b 55 00          	mov    0x0(%rbp),%rdx
    627b:	eb a7                	jmp    6224 <_ZNSt7__cxx1112basic_stringIcSt11char_traitsIcESaIcEE12_M_constructIPKcEEvT_S8_St20forward_iterator_tag.isra.52+0x54>
    627d:	0f 1f 00             	nopl   (%rax)
    6280:	48 85 db             	test   %rbx,%rbx
    6283:	74 9f                	je     6224 <_ZNSt7__cxx1112basic_stringIcSt11char_traitsIcESaIcEE12_M_constructIPKcEEvT_S8_St20forward_iterator_tag.isra.52+0x54>
    6285:	eb e2                	jmp    6269 <_ZNSt7__cxx1112basic_stringIcSt11char_traitsIcESaIcEE12_M_constructIPKcEEvT_S8_St20forward_iterator_tag.isra.52+0x99>
    6287:	48 8d 3d 7a a1 00 00 	lea    0xa17a(%rip),%rdi        # 10408 <_IO_stdin_used+0x8>
    628e:	e8 bd e4 ff ff       	callq  4750 <_ZSt19__throw_logic_errorPKc@plt>
    6293:	e8 f8 e5 ff ff       	callq  4890 <__stack_chk_fail@plt>
    6298:	0f 1f 84 00 00 00 00 	nopl   0x0(%rax,%rax,1)
    629f:	00 

00000000000062a0 <_Z5chencRKNSt7__cxx1112basic_stringIcSt11char_traitsIcESaIcEEEPKcS8_>:
    62a0:	41 57                	push   %r15
    62a2:	41 56                	push   %r14
    62a4:	41 55                	push   %r13
    62a6:	41 54                	push   %r12
    62a8:	55                   	push   %rbp
    62a9:	53                   	push   %rbx
    62aa:	48 89 f5             	mov    %rsi,%rbp
    62ad:	48 89 fb             	mov    %rdi,%rbx
    62b0:	48 83 ec 78          	sub    $0x78,%rsp
    62b4:	4c 8b 7e 08          	mov    0x8(%rsi),%r15
    62b8:	64 48 8b 04 25 28 00 	mov    %fs:0x28,%rax
    62bf:	00 00 
    62c1:	48 89 44 24 68       	mov    %rax,0x68(%rsp)
    62c6:	31 c0                	xor    %eax,%eax
    62c8:	4d 85 ff             	test   %r15,%r15
    62cb:	0f 84 af 01 00 00    	je     6480 <_Z5chencRKNSt7__cxx1112basic_stringIcSt11char_traitsIcESaIcEEEPKcS8_+0x1e0>
    62d1:	48 85 d2             	test   %rdx,%rdx
    62d4:	49 89 d5             	mov    %rdx,%r13
    62d7:	0f 84 a3 01 00 00    	je     6480 <_Z5chencRKNSt7__cxx1112basic_stringIcSt11char_traitsIcESaIcEEEPKcS8_+0x1e0>
    62dd:	48 85 c9             	test   %rcx,%rcx
    62e0:	49 89 ce             	mov    %rcx,%r14
    62e3:	0f 84 97 01 00 00    	je     6480 <_Z5chencRKNSt7__cxx1112basic_stringIcSt11char_traitsIcESaIcEEEPKcS8_+0x1e0>
    62e9:	48 89 ce             	mov    %rcx,%rsi
    62ec:	48 89 d7             	mov    %rdx,%rdi
    62ef:	e8 dc e6 ff ff       	callq  49d0 <strcmp@plt>
    62f4:	85 c0                	test   %eax,%eax
    62f6:	0f 84 84 01 00 00    	je     6480 <_Z5chencRKNSt7__cxx1112basic_stringIcSt11char_traitsIcESaIcEEEPKcS8_+0x1e0>
    62fc:	4c 8d 64 24 40       	lea    0x40(%rsp),%r12
    6301:	49 83 ff 0f          	cmp    $0xf,%r15
    6305:	be 0f 00 00 00       	mov    $0xf,%esi
    630a:	49 0f 43 f7          	cmovae %r15,%rsi
    630e:	31 d2                	xor    %edx,%edx
    6310:	49 8d 44 24 10       	lea    0x10(%r12),%rax
    6315:	4c 89 e7             	mov    %r12,%rdi
    6318:	48 89 44 24 40       	mov    %rax,0x40(%rsp)
    631d:	e8 ee e5 ff ff       	callq  4910 <_ZNSt7__cxx1112basic_stringIcSt11char_traitsIcESaIcEE12_M_constructEmc@plt>
    6322:	48 8b 45 08          	mov    0x8(%rbp),%rax
    6326:	48 8d 15 56 ae 00 00 	lea    0xae56(%rip),%rdx        # 11183 <_IO_stdin_used+0xd83>
    632d:	b9 0c 00 00 00       	mov    $0xc,%ecx
    6332:	4c 89 ee             	mov    %r13,%rsi
    6335:	48 89 d7             	mov    %rdx,%rdi
    6338:	48 89 44 24 20       	mov    %rax,0x20(%rsp)
    633d:	48 8b 44 24 48       	mov    0x48(%rsp),%rax
    6342:	f3 a6                	repz cmpsb %es:(%rdi),%ds:(%rsi)
    6344:	48 89 d7             	mov    %rdx,%rdi
    6347:	4c 89 f6             	mov    %r14,%rsi
    634a:	48 89 44 24 28       	mov    %rax,0x28(%rsp)
    634f:	48 8b 45 00          	mov    0x0(%rbp),%rax
    6353:	0f 97 c1             	seta   %cl
    6356:	80 d9 00             	sbb    $0x0,%cl
    6359:	84 c9                	test   %cl,%cl
    635b:	b9 0c 00 00 00       	mov    $0xc,%ecx
    6360:	48 89 44 24 30       	mov    %rax,0x30(%rsp)
    6365:	48 8b 44 24 40       	mov    0x40(%rsp),%rax
    636a:	48 89 44 24 38       	mov    %rax,0x38(%rsp)
    636f:	48 8d 05 06 ae 00 00 	lea    0xae06(%rip),%rax        # 1117c <_IO_stdin_used+0xd7c>
    6376:	49 89 c0             	mov    %rax,%r8
    6379:	4d 0f 45 c5          	cmovne %r13,%r8
    637d:	f3 a6                	repz cmpsb %es:(%rdi),%ds:(%rsi)
    637f:	4c 89 c6             	mov    %r8,%rsi
    6382:	0f 97 c2             	seta   %dl
    6385:	80 da 00             	sbb    $0x0,%dl
    6388:	84 d2                	test   %dl,%dl
    638a:	49 0f 45 c6          	cmovne %r14,%rax
    638e:	48 89 c7             	mov    %rax,%rdi
    6391:	e8 ca e3 ff ff       	callq  4760 <iconv_open@plt>
    6396:	48 83 f8 ff          	cmp    $0xffffffffffffffff,%rax
    639a:	49 89 c7             	mov    %rax,%r15
    639d:	0f 84 5d 01 00 00    	je     6500 <_Z5chencRKNSt7__cxx1112basic_stringIcSt11char_traitsIcESaIcEEEPKcS8_+0x260>
    63a3:	48 8d 44 24 28       	lea    0x28(%rsp),%rax
    63a8:	48 89 44 24 08       	mov    %rax,0x8(%rsp)
    63ad:	48 8d 44 24 38       	lea    0x38(%rsp),%rax
    63b2:	48 89 44 24 18       	mov    %rax,0x18(%rsp)
    63b7:	48 8d 44 24 20       	lea    0x20(%rsp),%rax
    63bc:	48 89 04 24          	mov    %rax,(%rsp)
    63c0:	48 8d 44 24 30       	lea    0x30(%rsp),%rax
    63c5:	48 89 44 24 10       	mov    %rax,0x10(%rsp)
    63ca:	eb 4a                	jmp    6416 <_Z5chencRKNSt7__cxx1112basic_stringIcSt11char_traitsIcESaIcEEEPKcS8_+0x176>
    63cc:	0f 1f 40 00          	nopl   0x0(%rax)
    63d0:	e8 eb e1 ff ff       	callq  45c0 <__errno_location@plt>
    63d5:	83 38 07             	cmpl   $0x7,(%rax)
    63d8:	0f 85 f2 00 00 00    	jne    64d0 <_Z5chencRKNSt7__cxx1112basic_stringIcSt11char_traitsIcESaIcEEEPKcS8_+0x230>
    63de:	48 8b 4c 24 20       	mov    0x20(%rsp),%rcx
    63e3:	48 8b 54 24 48       	mov    0x48(%rsp),%rdx
    63e8:	4c 89 e7             	mov    %r12,%rdi
    63eb:	48 8b 44 24 28       	mov    0x28(%rsp),%rax
    63f0:	48 8d 34 09          	lea    (%rcx,%rcx,1),%rsi
    63f4:	48 89 d5             	mov    %rdx,%rbp
    63f7:	48 29 c5             	sub    %rax,%rbp
    63fa:	48 01 f0             	add    %rsi,%rax
    63fd:	48 01 d6             	add    %rdx,%rsi
    6400:	31 d2                	xor    %edx,%edx
    6402:	48 89 44 24 28       	mov    %rax,0x28(%rsp)
    6407:	e8 84 e2 ff ff       	callq  4690 <_ZNSt7__cxx1112basic_stringIcSt11char_traitsIcESaIcEE6resizeEmc@plt>
    640c:	48 03 6c 24 40       	add    0x40(%rsp),%rbp
    6411:	48 89 6c 24 38       	mov    %rbp,0x38(%rsp)
    6416:	4c 8b 44 24 08       	mov    0x8(%rsp),%r8
    641b:	48 8b 4c 24 18       	mov    0x18(%rsp),%rcx
    6420:	4c 89 ff             	mov    %r15,%rdi
    6423:	48 8b 14 24          	mov    (%rsp),%rdx
    6427:	48 8b 74 24 10       	mov    0x10(%rsp),%rsi
    642c:	e8 ef e6 ff ff       	callq  4b20 <iconv@plt>
    6431:	48 83 f8 ff          	cmp    $0xffffffffffffffff,%rax
    6435:	74 99                	je     63d0 <_Z5chencRKNSt7__cxx1112basic_stringIcSt11char_traitsIcESaIcEEEPKcS8_+0x130>
    6437:	4c 89 ff             	mov    %r15,%rdi
    643a:	e8 41 e3 ff ff       	callq  4780 <iconv_close@plt>
    643f:	48 8b 74 24 38       	mov    0x38(%rsp),%rsi
    6444:	48 2b 74 24 40       	sub    0x40(%rsp),%rsi
    6449:	31 d2                	xor    %edx,%edx
    644b:	4c 89 e7             	mov    %r12,%rdi
    644e:	e8 3d e2 ff ff       	callq  4690 <_ZNSt7__cxx1112basic_stringIcSt11char_traitsIcESaIcEE6resizeEmc@plt>
    6453:	48 8d 43 10          	lea    0x10(%rbx),%rax
    6457:	49 83 c4 10          	add    $0x10,%r12
    645b:	48 89 03             	mov    %rax,(%rbx)
    645e:	48 8b 44 24 40       	mov    0x40(%rsp),%rax
    6463:	4c 39 e0             	cmp    %r12,%rax
    6466:	74 58                	je     64c0 <_Z5chencRKNSt7__cxx1112basic_stringIcSt11char_traitsIcESaIcEEEPKcS8_+0x220>
    6468:	48 89 03             	mov    %rax,(%rbx)
    646b:	48 8b 44 24 50       	mov    0x50(%rsp),%rax
    6470:	48 89 43 10          	mov    %rax,0x10(%rbx)
    6474:	48 8b 44 24 48       	mov    0x48(%rsp),%rax
    6479:	48 89 43 08          	mov    %rax,0x8(%rbx)
    647d:	eb 1b                	jmp    649a <_Z5chencRKNSt7__cxx1112basic_stringIcSt11char_traitsIcESaIcEEEPKcS8_+0x1fa>
    647f:	90                   	nop
    6480:	48 8d 43 10          	lea    0x10(%rbx),%rax
    6484:	48 89 df             	mov    %rbx,%rdi
    6487:	48 89 03             	mov    %rax,(%rbx)
    648a:	48 8b 75 00          	mov    0x0(%rbp),%rsi
    648e:	48 8b 55 08          	mov    0x8(%rbp),%rdx
    6492:	48 01 f2             	add    %rsi,%rdx
    6495:	e8 36 fd ff ff       	callq  61d0 <_ZNSt7__cxx1112basic_stringIcSt11char_traitsIcESaIcEE12_M_constructIPKcEEvT_S8_St20forward_iterator_tag.isra.52>
    649a:	48 89 d8             	mov    %rbx,%rax
    649d:	48 8b 5c 24 68       	mov    0x68(%rsp),%rbx
    64a2:	64 48 33 1c 25 28 00 	xor    %fs:0x28,%rbx
    64a9:	00 00 
    64ab:	0f 85 ad 00 00 00    	jne    655e <_Z5chencRKNSt7__cxx1112basic_stringIcSt11char_traitsIcESaIcEEEPKcS8_+0x2be>
    64b1:	48 83 c4 78          	add    $0x78,%rsp
    64b5:	5b                   	pop    %rbx
    64b6:	5d                   	pop    %rbp
    64b7:	41 5c                	pop    %r12
    64b9:	41 5d                	pop    %r13
    64bb:	41 5e                	pop    %r14
    64bd:	41 5f                	pop    %r15
    64bf:	c3                   	retq   
    64c0:	66 0f 6f 44 24 50    	movdqa 0x50(%rsp),%xmm0
    64c6:	0f 11 43 10          	movups %xmm0,0x10(%rbx)
    64ca:	eb a8                	jmp    6474 <_Z5chencRKNSt7__cxx1112basic_stringIcSt11char_traitsIcESaIcEEEPKcS8_+0x1d4>
    64cc:	0f 1f 40 00          	nopl   0x0(%rax)
    64d0:	48 8d 3d d6 ac 00 00 	lea    0xacd6(%rip),%rdi        # 111ad <_IO_stdin_used+0xdad>
    64d7:	e8 34 e1 ff ff       	callq  4610 <gettext@plt>
    64dc:	48 8b 3d 1d ed 20 00 	mov    0x20ed1d(%rip),%rdi        # 215200 <stderr@@GLIBC_2.2.5>
    64e3:	48 89 c2             	mov    %rax,%rdx
    64e6:	4d 89 e8             	mov    %r13,%r8
    64e9:	4c 89 f1             	mov    %r14,%rcx
    64ec:	be 01 00 00 00       	mov    $0x1,%esi
    64f1:	31 c0                	xor    %eax,%eax
    64f3:	e8 e8 e5 ff ff       	callq  4ae0 <__fprintf_chk@plt>
    64f8:	e9 3a ff ff ff       	jmpq   6437 <_Z5chencRKNSt7__cxx1112basic_stringIcSt11char_traitsIcESaIcEEEPKcS8_+0x197>
    64fd:	0f 1f 00             	nopl   (%rax)
    6500:	48 8d 3d 88 ac 00 00 	lea    0xac88(%rip),%rdi        # 1118f <_IO_stdin_used+0xd8f>
    6507:	e8 04 e1 ff ff       	callq  4610 <gettext@plt>
    650c:	48 8b 3d ed ec 20 00 	mov    0x20eced(%rip),%rdi        # 215200 <stderr@@GLIBC_2.2.5>
    6513:	48 89 c2             	mov    %rax,%rdx
    6516:	4d 89 e8             	mov    %r13,%r8
    6519:	4c 89 f1             	mov    %r14,%rcx
    651c:	be 01 00 00 00       	mov    $0x1,%esi
    6521:	31 c0                	xor    %eax,%eax
    6523:	e8 b8 e5 ff ff       	callq  4ae0 <__fprintf_chk@plt>
    6528:	48 8d 43 10          	lea    0x10(%rbx),%rax
    652c:	48 89 df             	mov    %rbx,%rdi
    652f:	48 89 03             	mov    %rax,(%rbx)
    6532:	48 8b 75 00          	mov    0x0(%rbp),%rsi
    6536:	48 8b 55 08          	mov    0x8(%rbp),%rdx
    653a:	48 01 f2             	add    %rsi,%rdx
    653d:	e8 8e fc ff ff       	callq  61d0 <_ZNSt7__cxx1112basic_stringIcSt11char_traitsIcESaIcEE12_M_constructIPKcEEvT_S8_St20forward_iterator_tag.isra.52>
    6542:	48 8b 7c 24 40       	mov    0x40(%rsp),%rdi
    6547:	49 83 c4 10          	add    $0x10,%r12
    654b:	4c 39 e7             	cmp    %r12,%rdi
    654e:	0f 84 46 ff ff ff    	je     649a <_Z5chencRKNSt7__cxx1112basic_stringIcSt11char_traitsIcESaIcEEEPKcS8_+0x1fa>
    6554:	e8 a7 e2 ff ff       	callq  4800 <_ZdlPv@plt>
    6559:	e9 3c ff ff ff       	jmpq   649a <_Z5chencRKNSt7__cxx1112basic_stringIcSt11char_traitsIcESaIcEEEPKcS8_+0x1fa>
    655e:	e8 2d e3 ff ff       	callq  4890 <__stack_chk_fail@plt>
    6563:	48 8b 7c 24 40       	mov    0x40(%rsp),%rdi
    6568:	49 83 c4 10          	add    $0x10,%r12
    656c:	48 89 c3             	mov    %rax,%rbx
    656f:	4c 39 e7             	cmp    %r12,%rdi
    6572:	74 05                	je     6579 <_Z5chencRKNSt7__cxx1112basic_stringIcSt11char_traitsIcESaIcEEEPKcS8_+0x2d9>
    6574:	e8 87 e2 ff ff       	callq  4800 <_ZdlPv@plt>
    6579:	48 89 df             	mov    %rbx,%rdi
    657c:	e8 8f e5 ff ff       	callq  4b10 <_Unwind_Resume@plt>
    6581:	0f 1f 44 00 00       	nopl   0x0(%rax,%rax,1)
    6586:	66 2e 0f 1f 84 00 00 	nopw   %cs:0x0(%rax,%rax,1)
    658d:	00 00 00 

0000000000006590 <_Z6putdicRKNSt7__cxx1112basic_stringIcSt11char_traitsIcESaIcEEEP8Hunspell>:
    6590:	41 56                	push   %r14
    6592:	41 55                	push   %r13
    6594:	49 89 f6             	mov    %rsi,%r14
    6597:	41 54                	push   %r12
    6599:	55                   	push   %rbp
    659a:	48 89 fe             	mov    %rdi,%rsi
    659d:	53                   	push   %rbx
    659e:	48 83 ec 70          	sub    $0x70,%rsp
    65a2:	48 8b 15 ef ec 20 00 	mov    0x20ecef(%rip),%rdx        # 215298 <ui_enc>
    65a9:	48 8b 0d 90 ec 20 00 	mov    0x20ec90(%rip),%rcx        # 215240 <dic_enc>
    65b0:	49 89 e4             	mov    %rsp,%r12
    65b3:	48 8d 5c 24 20       	lea    0x20(%rsp),%rbx
    65b8:	48 8d 6c 24 40       	lea    0x40(%rsp),%rbp
    65bd:	4c 89 e7             	mov    %r12,%rdi
    65c0:	64 48 8b 04 25 28 00 	mov    %fs:0x28,%rax
    65c7:	00 00 
    65c9:	48 89 44 24 68       	mov    %rax,0x68(%rsp)
    65ce:	31 c0                	xor    %eax,%eax
    65d0:	e8 cb fc ff ff       	callq  62a0 <_Z5chencRKNSt7__cxx1112basic_stringIcSt11char_traitsIcESaIcEEEPKcS8_>
    65d5:	48 8d 43 10          	lea    0x10(%rbx),%rax
    65d9:	4c 8b 2c 24          	mov    (%rsp),%r13
    65dd:	48 c7 44 24 28 00 00 	movq   $0x0,0x28(%rsp)
    65e4:	00 00 
    65e6:	c6 44 24 30 00       	movb   $0x0,0x30(%rsp)
    65eb:	48 c7 c2 ff ff ff ff 	mov    $0xffffffffffffffff,%rdx
    65f2:	48 89 44 24 20       	mov    %rax,0x20(%rsp)
    65f7:	48 8d 45 10          	lea    0x10(%rbp),%rax
    65fb:	4d 85 ed             	test   %r13,%r13
    65fe:	48 89 44 24 40       	mov    %rax,0x40(%rsp)
    6603:	74 0d                	je     6612 <_Z6putdicRKNSt7__cxx1112basic_stringIcSt11char_traitsIcESaIcEEEP8Hunspell+0x82>
    6605:	4c 89 ef             	mov    %r13,%rdi
    6608:	e8 e3 e0 ff ff       	callq  46f0 <strlen@plt>
    660d:	49 8d 54 05 00       	lea    0x0(%r13,%rax,1),%rdx
    6612:	4c 89 ee             	mov    %r13,%rsi
    6615:	48 89 ef             	mov    %rbp,%rdi
    6618:	e8 b3 fb ff ff       	callq  61d0 <_ZNSt7__cxx1112basic_stringIcSt11char_traitsIcESaIcEE12_M_constructIPKcEEvT_S8_St20forward_iterator_tag.isra.52>
    661d:	48 89 da             	mov    %rbx,%rdx
    6620:	48 89 ee             	mov    %rbp,%rsi
    6623:	4c 89 f7             	mov    %r14,%rdi
    6626:	e8 c5 e3 ff ff       	callq  49f0 <_ZN8Hunspell10input_convERKNSt7__cxx1112basic_stringIcSt11char_traitsIcESaIcEEERS5_@plt>
    662b:	48 8b 7c 24 40       	mov    0x40(%rsp),%rdi
    6630:	48 8d 45 10          	lea    0x10(%rbp),%rax
    6634:	48 39 c7             	cmp    %rax,%rdi
    6637:	74 05                	je     663e <_Z6putdicRKNSt7__cxx1112basic_stringIcSt11char_traitsIcESaIcEEEP8Hunspell+0xae>
    6639:	e8 c2 e1 ff ff       	callq  4800 <_ZdlPv@plt>
    663e:	48 89 de             	mov    %rbx,%rsi
    6641:	4c 89 e7             	mov    %r12,%rdi
    6644:	e8 e7 e0 ff ff       	callq  4730 <_ZNSt7__cxx1112basic_stringIcSt11char_traitsIcESaIcEE9_M_assignERKS4_@plt>
    6649:	45 31 ed             	xor    %r13d,%r13d
    664c:	48 83 7c 24 08 00    	cmpq   $0x0,0x8(%rsp)
    6652:	75 4c                	jne    66a0 <_Z6putdicRKNSt7__cxx1112basic_stringIcSt11char_traitsIcESaIcEEEP8Hunspell+0x110>
    6654:	48 8b 7c 24 20       	mov    0x20(%rsp),%rdi
    6659:	48 83 c3 10          	add    $0x10,%rbx
    665d:	48 39 df             	cmp    %rbx,%rdi
    6660:	74 05                	je     6667 <_Z6putdicRKNSt7__cxx1112basic_stringIcSt11char_traitsIcESaIcEEEP8Hunspell+0xd7>
    6662:	e8 99 e1 ff ff       	callq  4800 <_ZdlPv@plt>
    6667:	48 8b 3c 24          	mov    (%rsp),%rdi
    666b:	49 83 c4 10          	add    $0x10,%r12
    666f:	4c 39 e7             	cmp    %r12,%rdi
    6672:	74 05                	je     6679 <_Z6putdicRKNSt7__cxx1112basic_stringIcSt11char_traitsIcESaIcEEEP8Hunspell+0xe9>
    6674:	e8 87 e1 ff ff       	callq  4800 <_ZdlPv@plt>
    6679:	48 8b 4c 24 68       	mov    0x68(%rsp),%rcx
    667e:	64 48 33 0c 25 28 00 	xor    %fs:0x28,%rcx
    6685:	00 00 
    6687:	44 89 e8             	mov    %r13d,%eax
    668a:	0f 85 19 01 00 00    	jne    67a9 <_Z6putdicRKNSt7__cxx1112basic_stringIcSt11char_traitsIcESaIcEEEP8Hunspell+0x219>
    6690:	48 83 c4 70          	add    $0x70,%rsp
    6694:	5b                   	pop    %rbx
    6695:	5d                   	pop    %rbp
    6696:	41 5c                	pop    %r12
    6698:	41 5d                	pop    %r13
    669a:	41 5e                	pop    %r14
    669c:	c3                   	retq   
    669d:	0f 1f 00             	nopl   (%rax)
    66a0:	ba 01 00 00 00       	mov    $0x1,%edx
    66a5:	be 2f 00 00 00       	mov    $0x2f,%esi
    66aa:	4c 89 e7             	mov    %r12,%rdi
    66ad:	e8 fe e2 ff ff       	callq  49b0 <_ZNKSt7__cxx1112basic_stringIcSt11char_traitsIcESaIcEE4findEcm@plt>
    66b2:	48 83 f8 ff          	cmp    $0xffffffffffffffff,%rax
    66b6:	49 89 c5             	mov    %rax,%r13
    66b9:	75 25                	jne    66e0 <_Z6putdicRKNSt7__cxx1112basic_stringIcSt11char_traitsIcESaIcEEEP8Hunspell+0x150>
    66bb:	48 8b 34 24          	mov    (%rsp),%rsi
    66bf:	80 3e 2a             	cmpb   $0x2a,(%rsi)
    66c2:	0f 84 98 00 00 00    	je     6760 <_Z6putdicRKNSt7__cxx1112basic_stringIcSt11char_traitsIcESaIcEEEP8Hunspell+0x1d0>
    66c8:	4c 89 e6             	mov    %r12,%rsi
    66cb:	4c 89 f7             	mov    %r14,%rdi
    66ce:	e8 cd e4 ff ff       	callq  4ba0 <_ZN8Hunspell3addERKNSt7__cxx1112basic_stringIcSt11char_traitsIcESaIcEEE@plt>
    66d3:	41 89 c5             	mov    %eax,%r13d
    66d6:	e9 79 ff ff ff       	jmpq   6654 <_Z6putdicRKNSt7__cxx1112basic_stringIcSt11char_traitsIcESaIcEEEP8Hunspell+0xc4>
    66db:	0f 1f 44 00 00       	nopl   0x0(%rax,%rax,1)
    66e0:	48 8b 54 24 08       	mov    0x8(%rsp),%rdx
    66e5:	48 8d 40 01          	lea    0x1(%rax),%rax
    66e9:	48 39 d0             	cmp    %rdx,%rax
    66ec:	0f 87 bc 00 00 00    	ja     67ae <_Z6putdicRKNSt7__cxx1112basic_stringIcSt11char_traitsIcESaIcEEEP8Hunspell+0x21e>
    66f2:	48 8b 34 24          	mov    (%rsp),%rsi
    66f6:	48 8d 4d 10          	lea    0x10(%rbp),%rcx
    66fa:	48 89 ef             	mov    %rbp,%rdi
    66fd:	48 89 4c 24 40       	mov    %rcx,0x40(%rsp)
    6702:	48 01 f2             	add    %rsi,%rdx
    6705:	48 01 c6             	add    %rax,%rsi
    6708:	e8 c3 fa ff ff       	callq  61d0 <_ZNSt7__cxx1112basic_stringIcSt11char_traitsIcESaIcEE12_M_constructIPKcEEvT_S8_St20forward_iterator_tag.isra.52>
    670d:	31 d2                	xor    %edx,%edx
    670f:	4c 89 ee             	mov    %r13,%rsi
    6712:	4c 89 e7             	mov    %r12,%rdi
    6715:	e8 76 df ff ff       	callq  4690 <_ZNSt7__cxx1112basic_stringIcSt11char_traitsIcESaIcEE6resizeEmc@plt>
    671a:	48 83 7c 24 48 00    	cmpq   $0x0,0x48(%rsp)
    6720:	74 0a                	je     672c <_Z6putdicRKNSt7__cxx1112basic_stringIcSt11char_traitsIcESaIcEEEP8Hunspell+0x19c>
    6722:	48 8b 44 24 40       	mov    0x40(%rsp),%rax
    6727:	80 38 2f             	cmpb   $0x2f,(%rax)
    672a:	74 6c                	je     6798 <_Z6putdicRKNSt7__cxx1112basic_stringIcSt11char_traitsIcESaIcEEEP8Hunspell+0x208>
    672c:	48 89 ea             	mov    %rbp,%rdx
    672f:	4c 89 e6             	mov    %r12,%rsi
    6732:	4c 89 f7             	mov    %r14,%rdi
    6735:	e8 06 e1 ff ff       	callq  4840 <_ZN8Hunspell14add_with_affixERKNSt7__cxx1112basic_stringIcSt11char_traitsIcESaIcEEES7_@plt>
    673a:	48 8b 7c 24 40       	mov    0x40(%rsp),%rdi
    673f:	48 83 c5 10          	add    $0x10,%rbp
    6743:	41 89 c5             	mov    %eax,%r13d
    6746:	48 39 ef             	cmp    %rbp,%rdi
    6749:	0f 84 05 ff ff ff    	je     6654 <_Z6putdicRKNSt7__cxx1112basic_stringIcSt11char_traitsIcESaIcEEEP8Hunspell+0xc4>
    674f:	e8 ac e0 ff ff       	callq  4800 <_ZdlPv@plt>
    6754:	e9 fb fe ff ff       	jmpq   6654 <_Z6putdicRKNSt7__cxx1112basic_stringIcSt11char_traitsIcESaIcEEEP8Hunspell+0xc4>
    6759:	0f 1f 80 00 00 00 00 	nopl   0x0(%rax)
    6760:	48 8b 54 24 08       	mov    0x8(%rsp),%rdx
    6765:	48 85 d2             	test   %rdx,%rdx
    6768:	0f 84 a7 00 00 00    	je     6815 <_Z6putdicRKNSt7__cxx1112basic_stringIcSt11char_traitsIcESaIcEEEP8Hunspell+0x285>
    676e:	48 8d 45 10          	lea    0x10(%rbp),%rax
    6772:	48 01 f2             	add    %rsi,%rdx
    6775:	48 89 ef             	mov    %rbp,%rdi
    6778:	48 83 c6 01          	add    $0x1,%rsi
    677c:	48 89 44 24 40       	mov    %rax,0x40(%rsp)
    6781:	e8 4a fa ff ff       	callq  61d0 <_ZNSt7__cxx1112basic_stringIcSt11char_traitsIcESaIcEE12_M_constructIPKcEEvT_S8_St20forward_iterator_tag.isra.52>
    6786:	48 89 ee             	mov    %rbp,%rsi
    6789:	4c 89 f7             	mov    %r14,%rdi
    678c:	e8 4f e1 ff ff       	callq  48e0 <_ZN8Hunspell6removeERKNSt7__cxx1112basic_stringIcSt11char_traitsIcESaIcEEE@plt>
    6791:	eb a7                	jmp    673a <_Z6putdicRKNSt7__cxx1112basic_stringIcSt11char_traitsIcESaIcEEEP8Hunspell+0x1aa>
    6793:	0f 1f 44 00 00       	nopl   0x0(%rax,%rax,1)
    6798:	ba 01 00 00 00       	mov    $0x1,%edx
    679d:	31 f6                	xor    %esi,%esi
    679f:	48 89 ef             	mov    %rbp,%rdi
    67a2:	e8 99 e1 ff ff       	callq  4940 <_ZNSt7__cxx1112basic_stringIcSt11char_traitsIcESaIcEE8_M_eraseEmm@plt>
    67a7:	eb 83                	jmp    672c <_Z6putdicRKNSt7__cxx1112basic_stringIcSt11char_traitsIcESaIcEEEP8Hunspell+0x19c>
    67a9:	e8 e2 e0 ff ff       	callq  4890 <__stack_chk_fail@plt>
    67ae:	48 8d 35 11 aa 00 00 	lea    0xaa11(%rip),%rsi        # 111c6 <_IO_stdin_used+0xdc6>
    67b5:	48 8d 3d 7c 9c 00 00 	lea    0x9c7c(%rip),%rdi        # 10438 <_IO_stdin_used+0x38>
    67bc:	48 89 d1             	mov    %rdx,%rcx
    67bf:	48 89 c2             	mov    %rax,%rdx
    67c2:	31 c0                	xor    %eax,%eax
    67c4:	e8 77 e2 ff ff       	callq  4a40 <_ZSt24__throw_out_of_range_fmtPKcz@plt>
    67c9:	49 89 c5             	mov    %rax,%r13
    67cc:	48 8b 7c 24 20       	mov    0x20(%rsp),%rdi
    67d1:	48 83 c3 10          	add    $0x10,%rbx
    67d5:	48 39 df             	cmp    %rbx,%rdi
    67d8:	74 05                	je     67df <_Z6putdicRKNSt7__cxx1112basic_stringIcSt11char_traitsIcESaIcEEEP8Hunspell+0x24f>
    67da:	e8 21 e0 ff ff       	callq  4800 <_ZdlPv@plt>
    67df:	48 8b 3c 24          	mov    (%rsp),%rdi
    67e3:	49 83 c4 10          	add    $0x10,%r12
    67e7:	4c 39 e7             	cmp    %r12,%rdi
    67ea:	74 05                	je     67f1 <_Z6putdicRKNSt7__cxx1112basic_stringIcSt11char_traitsIcESaIcEEEP8Hunspell+0x261>
    67ec:	e8 0f e0 ff ff       	callq  4800 <_ZdlPv@plt>
    67f1:	4c 89 ef             	mov    %r13,%rdi
    67f4:	e8 17 e3 ff ff       	callq  4b10 <_Unwind_Resume@plt>
    67f9:	48 8b 7c 24 40       	mov    0x40(%rsp),%rdi
    67fe:	48 83 c5 10          	add    $0x10,%rbp
    6802:	49 89 c5             	mov    %rax,%r13
    6805:	48 39 ef             	cmp    %rbp,%rdi
    6808:	74 c2                	je     67cc <_Z6putdicRKNSt7__cxx1112basic_stringIcSt11char_traitsIcESaIcEEEP8Hunspell+0x23c>
    680a:	e8 f1 df ff ff       	callq  4800 <_ZdlPv@plt>
    680f:	eb bb                	jmp    67cc <_Z6putdicRKNSt7__cxx1112basic_stringIcSt11char_traitsIcESaIcEEEP8Hunspell+0x23c>
    6811:	eb e6                	jmp    67f9 <_Z6putdicRKNSt7__cxx1112basic_stringIcSt11char_traitsIcESaIcEEEP8Hunspell+0x269>
    6813:	eb e4                	jmp    67f9 <_Z6putdicRKNSt7__cxx1112basic_stringIcSt11char_traitsIcESaIcEEEP8Hunspell+0x269>
    6815:	48 8d 35 aa a9 00 00 	lea    0xa9aa(%rip),%rsi        # 111c6 <_IO_stdin_used+0xdc6>
    681c:	48 8d 3d 15 9c 00 00 	lea    0x9c15(%rip),%rdi        # 10438 <_IO_stdin_used+0x38>
    6823:	31 c9                	xor    %ecx,%ecx
    6825:	ba 01 00 00 00       	mov    $0x1,%edx
    682a:	31 c0                	xor    %eax,%eax
    682c:	e8 0f e2 ff ff       	callq  4a40 <_ZSt24__throw_out_of_range_fmtPKcz@plt>
    6831:	0f 1f 44 00 00       	nopl   0x0(%rax,%rax,1)
    6836:	66 2e 0f 1f 84 00 00 	nopw   %cs:0x0(%rax,%rax,1)
    683d:	00 00 00 

0000000000006840 <_Z12load_privdicPKcP8Hunspell>:
    6840:	41 57                	push   %r15
    6842:	41 56                	push   %r14
    6844:	49 89 f6             	mov    %rsi,%r14
    6847:	41 55                	push   %r13
    6849:	41 54                	push   %r12
    684b:	4c 8d 3d c6 dd 20 00 	lea    0x20ddc6(%rip),%r15        # 214618 <_ZTVSt9basic_iosIcSt11char_traitsIcEE@@GLIBCXX_3.4+0x10>
    6852:	55                   	push   %rbp
    6853:	53                   	push   %rbx
    6854:	48 89 fb             	mov    %rdi,%rbx
    6857:	48 81 ec 38 02 00 00 	sub    $0x238,%rsp
    685e:	48 8d 6c 24 20       	lea    0x20(%rsp),%rbp
    6863:	64 48 8b 04 25 28 00 	mov    %fs:0x28,%rax
    686a:	00 00 
    686c:	48 89 84 24 28 02 00 	mov    %rax,0x228(%rsp)
    6873:	00 
    6874:	31 c0                	xor    %eax,%eax
    6876:	48 8d bd 00 01 00 00 	lea    0x100(%rbp),%rdi
    687d:	e8 fe dd ff ff       	callq  4680 <_ZNSt8ios_baseC2Ev@plt>
    6882:	4c 8b 2d 67 df 20 00 	mov    0x20df67(%rip),%r13        # 2147f0 <_ZTTSt14basic_ifstreamIcSt11char_traitsIcEE@@GLIBCXX_3.4+0x8>
    6889:	c6 84 24 00 02 00 00 	movb   $0x0,0x200(%rsp)
    6890:	00 
    6891:	31 f6                	xor    %esi,%esi
    6893:	48 8b 0d 5e df 20 00 	mov    0x20df5e(%rip),%rcx        # 2147f8 <_ZTTSt14basic_ifstreamIcSt11char_traitsIcEE@@GLIBCXX_3.4+0x10>
    689a:	4c 89 bc 24 20 01 00 	mov    %r15,0x120(%rsp)
    68a1:	00 
    68a2:	48 c7 84 24 f8 01 00 	movq   $0x0,0x1f8(%rsp)
    68a9:	00 00 00 00 00 
    68ae:	c6 84 24 01 02 00 00 	movb   $0x0,0x201(%rsp)
    68b5:	00 
    68b6:	49 8b 45 e8          	mov    -0x18(%r13),%rax
    68ba:	48 c7 84 24 08 02 00 	movq   $0x0,0x208(%rsp)
    68c1:	00 00 00 00 00 
    68c6:	48 c7 84 24 10 02 00 	movq   $0x0,0x210(%rsp)
    68cd:	00 00 00 00 00 
    68d2:	48 c7 84 24 18 02 00 	movq   $0x0,0x218(%rsp)
    68d9:	00 00 00 00 00 
    68de:	48 c7 84 24 20 02 00 	movq   $0x0,0x220(%rsp)
    68e5:	00 00 00 00 00 
    68ea:	4c 89 6c 24 20       	mov    %r13,0x20(%rsp)
    68ef:	48 89 4c 04 20       	mov    %rcx,0x20(%rsp,%rax,1)
    68f4:	48 c7 44 24 28 00 00 	movq   $0x0,0x28(%rsp)
    68fb:	00 00 
    68fd:	49 8b 7d e8          	mov    -0x18(%r13),%rdi
    6901:	48 01 ef             	add    %rbp,%rdi
    6904:	e8 b7 e0 ff ff       	callq  49c0 <_ZNSt9basic_iosIcSt11char_traitsIcEE4initEPSt15basic_streambufIcS1_E@plt>
    6909:	48 8d 05 00 de 20 00 	lea    0x20de00(%rip),%rax        # 214710 <_ZTVSt14basic_ifstreamIcSt11char_traitsIcEE@@GLIBCXX_3.4+0x18>
    6910:	48 8d 7d 10          	lea    0x10(%rbp),%rdi
    6914:	48 89 44 24 20       	mov    %rax,0x20(%rsp)
    6919:	48 83 c0 28          	add    $0x28,%rax
    691d:	48 89 84 24 20 01 00 	mov    %rax,0x120(%rsp)
    6924:	00 
    6925:	e8 46 df ff ff       	callq  4870 <_ZNSt13basic_filebufIcSt11char_traitsIcEEC1Ev@plt>
    692a:	48 8d 75 10          	lea    0x10(%rbp),%rsi
    692e:	48 8d bd 00 01 00 00 	lea    0x100(%rbp),%rdi
    6935:	e8 86 e0 ff ff       	callq  49c0 <_ZNSt9basic_iosIcSt11char_traitsIcEE4initEPSt15basic_streambufIcS1_E@plt>
    693a:	48 8d 7d 10          	lea    0x10(%rbp),%rdi
    693e:	ba 08 00 00 00       	mov    $0x8,%edx
    6943:	48 89 de             	mov    %rbx,%rsi
    6946:	e8 a5 de ff ff       	callq  47f0 <_ZNSt13basic_filebufIcSt11char_traitsIcEE4openEPKcSt13_Ios_Openmode@plt>
    694b:	48 8b 54 24 20       	mov    0x20(%rsp),%rdx
    6950:	48 8b 7a e8          	mov    -0x18(%rdx),%rdi
    6954:	48 01 ef             	add    %rbp,%rdi
    6957:	48 85 c0             	test   %rax,%rax
    695a:	0f 84 68 01 00 00    	je     6ac8 <_Z12load_privdicPKcP8Hunspell+0x288>
    6960:	31 f6                	xor    %esi,%esi
    6962:	e8 89 e1 ff ff       	callq  4af0 <_ZNSt9basic_iosIcSt11char_traitsIcEE5clearESt12_Ios_Iostate@plt>
    6967:	48 8d 7d 78          	lea    0x78(%rbp),%rdi
    696b:	e8 d0 dc ff ff       	callq  4640 <_ZNKSt12__basic_fileIcE7is_openEv@plt>
    6970:	84 c0                	test   %al,%al
    6972:	0f 84 aa 00 00 00    	je     6a22 <_Z12load_privdicPKcP8Hunspell+0x1e2>
    6978:	49 89 e4             	mov    %rsp,%r12
    697b:	48 c7 44 24 08 00 00 	movq   $0x0,0x8(%rsp)
    6982:	00 00 
    6984:	c6 44 24 10 00       	movb   $0x0,0x10(%rsp)
    6989:	49 8d 44 24 10       	lea    0x10(%r12),%rax
    698e:	48 89 04 24          	mov    %rax,(%rsp)
    6992:	eb 2c                	jmp    69c0 <_Z12load_privdicPKcP8Hunspell+0x180>
    6994:	0f 1f 40 00          	nopl   0x0(%rax)
    6998:	0f be 53 43          	movsbl 0x43(%rbx),%edx
    699c:	4c 89 e6             	mov    %r12,%rsi
    699f:	48 89 ef             	mov    %rbp,%rdi
    69a2:	e8 b9 e1 ff ff       	callq  4b60 <_ZSt7getlineIcSt11char_traitsIcESaIcEERSt13basic_istreamIT_T0_ES7_RNSt7__cxx1112basic_stringIS4_S5_T1_EES4_@plt>
    69a7:	48 8b 10             	mov    (%rax),%rdx
    69aa:	48 8b 52 e8          	mov    -0x18(%rdx),%rdx
    69ae:	f6 44 10 20 05       	testb  $0x5,0x20(%rax,%rdx,1)
    69b3:	75 5b                	jne    6a10 <_Z12load_privdicPKcP8Hunspell+0x1d0>
    69b5:	4c 89 f6             	mov    %r14,%rsi
    69b8:	4c 89 e7             	mov    %r12,%rdi
    69bb:	e8 d0 fb ff ff       	callq  6590 <_Z6putdicRKNSt7__cxx1112basic_stringIcSt11char_traitsIcESaIcEEEP8Hunspell>
    69c0:	48 8b 44 24 20       	mov    0x20(%rsp),%rax
    69c5:	48 8b 40 e8          	mov    -0x18(%rax),%rax
    69c9:	48 8b 9c 04 10 01 00 	mov    0x110(%rsp,%rax,1),%rbx
    69d0:	00 
    69d1:	48 85 db             	test   %rbx,%rbx
    69d4:	0f 84 fe 00 00 00    	je     6ad8 <_Z12load_privdicPKcP8Hunspell+0x298>
    69da:	80 7b 38 00          	cmpb   $0x0,0x38(%rbx)
    69de:	75 b8                	jne    6998 <_Z12load_privdicPKcP8Hunspell+0x158>
    69e0:	48 89 df             	mov    %rbx,%rdi
    69e3:	e8 18 df ff ff       	callq  4900 <_ZNKSt5ctypeIcE13_M_widen_initEv@plt>
    69e8:	48 8b 03             	mov    (%rbx),%rax
    69eb:	48 8d 0d ee 57 00 00 	lea    0x57ee(%rip),%rcx        # c1e0 <_ZNKSt5ctypeIcE8do_widenEc>
    69f2:	ba 0a 00 00 00       	mov    $0xa,%edx
    69f7:	48 8b 40 30          	mov    0x30(%rax),%rax
    69fb:	48 39 c8             	cmp    %rcx,%rax
    69fe:	74 9c                	je     699c <_Z12load_privdicPKcP8Hunspell+0x15c>
    6a00:	be 0a 00 00 00       	mov    $0xa,%esi
    6a05:	48 89 df             	mov    %rbx,%rdi
    6a08:	ff d0                	callq  *%rax
    6a0a:	0f be d0             	movsbl %al,%edx
    6a0d:	eb 8d                	jmp    699c <_Z12load_privdicPKcP8Hunspell+0x15c>
    6a0f:	90                   	nop
    6a10:	48 8b 3c 24          	mov    (%rsp),%rdi
    6a14:	49 83 c4 10          	add    $0x10,%r12
    6a18:	4c 39 e7             	cmp    %r12,%rdi
    6a1b:	74 05                	je     6a22 <_Z12load_privdicPKcP8Hunspell+0x1e2>
    6a1d:	e8 de dd ff ff       	callq  4800 <_ZdlPv@plt>
    6a22:	48 8d 05 e7 dc 20 00 	lea    0x20dce7(%rip),%rax        # 214710 <_ZTVSt14basic_ifstreamIcSt11char_traitsIcEE@@GLIBCXX_3.4+0x18>
    6a29:	48 8d 7d 10          	lea    0x10(%rbp),%rdi
    6a2d:	48 89 44 24 20       	mov    %rax,0x20(%rsp)
    6a32:	48 83 c0 28          	add    $0x28,%rax
    6a36:	48 89 84 24 20 01 00 	mov    %rax,0x120(%rsp)
    6a3d:	00 
    6a3e:	48 8d 05 33 dd 20 00 	lea    0x20dd33(%rip),%rax        # 214778 <_ZTVSt13basic_filebufIcSt11char_traitsIcEE@@GLIBCXX_3.4+0x10>
    6a45:	48 89 44 24 30       	mov    %rax,0x30(%rsp)
    6a4a:	e8 e1 db ff ff       	callq  4630 <_ZNSt13basic_filebufIcSt11char_traitsIcEE5closeEv@plt>
    6a4f:	48 8d 7d 78          	lea    0x78(%rbp),%rdi
    6a53:	e8 28 e1 ff ff       	callq  4b80 <_ZNSt12__basic_fileIcED1Ev@plt>
    6a58:	48 8d 05 d9 db 20 00 	lea    0x20dbd9(%rip),%rax        # 214638 <_ZTVSt15basic_streambufIcSt11char_traitsIcEE@@GLIBCXX_3.4+0x10>
    6a5f:	48 8d 7d 48          	lea    0x48(%rbp),%rdi
    6a63:	48 89 44 24 30       	mov    %rax,0x30(%rsp)
    6a68:	e8 73 df ff ff       	callq  49e0 <_ZNSt6localeD1Ev@plt>
    6a6d:	49 8b 45 e8          	mov    -0x18(%r13),%rax
    6a71:	48 8b 0d 80 dd 20 00 	mov    0x20dd80(%rip),%rcx        # 2147f8 <_ZTTSt14basic_ifstreamIcSt11char_traitsIcEE@@GLIBCXX_3.4+0x10>
    6a78:	48 8d bd 00 01 00 00 	lea    0x100(%rbp),%rdi
    6a7f:	4c 89 6c 24 20       	mov    %r13,0x20(%rsp)
    6a84:	48 89 4c 04 20       	mov    %rcx,0x20(%rsp,%rax,1)
    6a89:	48 c7 44 24 28 00 00 	movq   $0x0,0x28(%rsp)
    6a90:	00 00 
    6a92:	4c 89 bc 24 20 01 00 	mov    %r15,0x120(%rsp)
    6a99:	00 
    6a9a:	e8 11 dc ff ff       	callq  46b0 <_ZNSt8ios_baseD2Ev@plt>
    6a9f:	48 8b 84 24 28 02 00 	mov    0x228(%rsp),%rax
    6aa6:	00 
    6aa7:	64 48 33 04 25 28 00 	xor    %fs:0x28,%rax
    6aae:	00 00 
    6ab0:	75 50                	jne    6b02 <_Z12load_privdicPKcP8Hunspell+0x2c2>
    6ab2:	48 81 c4 38 02 00 00 	add    $0x238,%rsp
    6ab9:	5b                   	pop    %rbx
    6aba:	5d                   	pop    %rbp
    6abb:	41 5c                	pop    %r12
    6abd:	41 5d                	pop    %r13
    6abf:	41 5e                	pop    %r14
    6ac1:	41 5f                	pop    %r15
    6ac3:	c3                   	retq   
    6ac4:	0f 1f 40 00          	nopl   0x0(%rax)
    6ac8:	8b 77 20             	mov    0x20(%rdi),%esi
    6acb:	83 ce 04             	or     $0x4,%esi
    6ace:	e8 1d e0 ff ff       	callq  4af0 <_ZNSt9basic_iosIcSt11char_traitsIcEE5clearESt12_Ios_Iostate@plt>
    6ad3:	e9 8f fe ff ff       	jmpq   6967 <_Z12load_privdicPKcP8Hunspell+0x127>
    6ad8:	e8 b3 de ff ff       	callq  4990 <_ZSt16__throw_bad_castv@plt>
    6add:	48 8b 3c 24          	mov    (%rsp),%rdi
    6ae1:	49 83 c4 10          	add    $0x10,%r12
    6ae5:	48 89 c3             	mov    %rax,%rbx
    6ae8:	4c 39 e7             	cmp    %r12,%rdi
    6aeb:	74 05                	je     6af2 <_Z12load_privdicPKcP8Hunspell+0x2b2>
    6aed:	e8 0e dd ff ff       	callq  4800 <_ZdlPv@plt>
    6af2:	48 89 ef             	mov    %rbp,%rdi
    6af5:	e8 66 db ff ff       	callq  4660 <_ZNSt14basic_ifstreamIcSt11char_traitsIcEED1Ev@plt>
    6afa:	48 89 df             	mov    %rbx,%rdi
    6afd:	e8 0e e0 ff ff       	callq  4b10 <_Unwind_Resume@plt>
    6b02:	e8 89 dd ff ff       	callq  4890 <__stack_chk_fail@plt>
    6b07:	48 89 c3             	mov    %rax,%rbx
    6b0a:	eb e6                	jmp    6af2 <_Z12load_privdicPKcP8Hunspell+0x2b2>
    6b0c:	48 8d 7d 10          	lea    0x10(%rbp),%rdi
    6b10:	48 89 c3             	mov    %rax,%rbx
    6b13:	e8 58 df ff ff       	callq  4a70 <_ZNSt13basic_filebufIcSt11char_traitsIcEED1Ev@plt>
    6b18:	49 8b 55 e8          	mov    -0x18(%r13),%rdx
    6b1c:	48 8b 05 d5 dc 20 00 	mov    0x20dcd5(%rip),%rax        # 2147f8 <_ZTTSt14basic_ifstreamIcSt11char_traitsIcEE@@GLIBCXX_3.4+0x10>
    6b23:	4c 89 6c 24 20       	mov    %r13,0x20(%rsp)
    6b28:	48 89 44 14 20       	mov    %rax,0x20(%rsp,%rdx,1)
    6b2d:	48 c7 44 24 28 00 00 	movq   $0x0,0x28(%rsp)
    6b34:	00 00 
    6b36:	48 8d bd 00 01 00 00 	lea    0x100(%rbp),%rdi
    6b3d:	4c 89 bc 24 20 01 00 	mov    %r15,0x120(%rsp)
    6b44:	00 
    6b45:	e8 66 db ff ff       	callq  46b0 <_ZNSt8ios_baseD2Ev@plt>
    6b4a:	48 89 df             	mov    %rbx,%rdi
    6b4d:	e8 be df ff ff       	callq  4b10 <_Unwind_Resume@plt>
    6b52:	48 89 c3             	mov    %rax,%rbx
    6b55:	eb c1                	jmp    6b18 <_Z12load_privdicPKcP8Hunspell+0x2d8>
    6b57:	48 89 c3             	mov    %rax,%rbx
    6b5a:	eb da                	jmp    6b36 <_Z12load_privdicPKcP8Hunspell+0x2f6>
    6b5c:	0f 1f 40 00          	nopl   0x0(%rax)

0000000000006b60 <_Z5existPKc>:
    6b60:	41 57                	push   %r15
    6b62:	41 56                	push   %r14
    6b64:	49 89 ff             	mov    %rdi,%r15
    6b67:	41 55                	push   %r13
    6b69:	41 54                	push   %r12
    6b6b:	4c 8d 25 a6 da 20 00 	lea    0x20daa6(%rip),%r12        # 214618 <_ZTVSt9basic_iosIcSt11char_traitsIcEE@@GLIBCXX_3.4+0x10>
    6b72:	55                   	push   %rbp
    6b73:	53                   	push   %rbx
    6b74:	48 81 ec 28 02 00 00 	sub    $0x228,%rsp
    6b7b:	48 8d 5c 24 10       	lea    0x10(%rsp),%rbx
    6b80:	64 48 8b 04 25 28 00 	mov    %fs:0x28,%rax
    6b87:	00 00 
    6b89:	48 89 84 24 18 02 00 	mov    %rax,0x218(%rsp)
    6b90:	00 
    6b91:	31 c0                	xor    %eax,%eax
    6b93:	48 8d bb 00 01 00 00 	lea    0x100(%rbx),%rdi
    6b9a:	e8 e1 da ff ff       	callq  4680 <_ZNSt8ios_baseC2Ev@plt>
    6b9f:	48 8b 2d 4a dc 20 00 	mov    0x20dc4a(%rip),%rbp        # 2147f0 <_ZTTSt14basic_ifstreamIcSt11char_traitsIcEE@@GLIBCXX_3.4+0x8>
    6ba6:	c6 84 24 f0 01 00 00 	movb   $0x0,0x1f0(%rsp)
    6bad:	00 
    6bae:	31 f6                	xor    %esi,%esi
    6bb0:	48 8b 0d 41 dc 20 00 	mov    0x20dc41(%rip),%rcx        # 2147f8 <_ZTTSt14basic_ifstreamIcSt11char_traitsIcEE@@GLIBCXX_3.4+0x10>
    6bb7:	4c 89 a4 24 10 01 00 	mov    %r12,0x110(%rsp)
    6bbe:	00 
    6bbf:	48 c7 84 24 e8 01 00 	movq   $0x0,0x1e8(%rsp)
    6bc6:	00 00 00 00 00 
    6bcb:	c6 84 24 f1 01 00 00 	movb   $0x0,0x1f1(%rsp)
    6bd2:	00 
    6bd3:	48 8b 45 e8          	mov    -0x18(%rbp),%rax
    6bd7:	48 c7 84 24 f8 01 00 	movq   $0x0,0x1f8(%rsp)
    6bde:	00 00 00 00 00 
    6be3:	48 c7 84 24 00 02 00 	movq   $0x0,0x200(%rsp)
    6bea:	00 00 00 00 00 
    6bef:	48 c7 84 24 08 02 00 	movq   $0x0,0x208(%rsp)
    6bf6:	00 00 00 00 00 
    6bfb:	48 c7 84 24 10 02 00 	movq   $0x0,0x210(%rsp)
    6c02:	00 00 00 00 00 
    6c07:	48 89 6c 24 10       	mov    %rbp,0x10(%rsp)
    6c0c:	48 89 4c 04 10       	mov    %rcx,0x10(%rsp,%rax,1)
    6c11:	48 c7 44 24 18 00 00 	movq   $0x0,0x18(%rsp)
    6c18:	00 00 
    6c1a:	48 8b 7d e8          	mov    -0x18(%rbp),%rdi
    6c1e:	48 01 df             	add    %rbx,%rdi
    6c21:	e8 9a dd ff ff       	callq  49c0 <_ZNSt9basic_iosIcSt11char_traitsIcEE4initEPSt15basic_streambufIcS1_E@plt>
    6c26:	4c 8d 35 e3 da 20 00 	lea    0x20dae3(%rip),%r14        # 214710 <_ZTVSt14basic_ifstreamIcSt11char_traitsIcEE@@GLIBCXX_3.4+0x18>
    6c2d:	48 8d 7b 10          	lea    0x10(%rbx),%rdi
    6c31:	4d 8d 6e 28          	lea    0x28(%r14),%r13
    6c35:	4c 89 74 24 10       	mov    %r14,0x10(%rsp)
    6c3a:	4c 89 ac 24 10 01 00 	mov    %r13,0x110(%rsp)
    6c41:	00 
    6c42:	e8 29 dc ff ff       	callq  4870 <_ZNSt13basic_filebufIcSt11char_traitsIcEEC1Ev@plt>
    6c47:	48 8d 73 10          	lea    0x10(%rbx),%rsi
    6c4b:	48 8d bb 00 01 00 00 	lea    0x100(%rbx),%rdi
    6c52:	e8 69 dd ff ff       	callq  49c0 <_ZNSt9basic_iosIcSt11char_traitsIcEE4initEPSt15basic_streambufIcS1_E@plt>
    6c57:	48 8d 7b 10          	lea    0x10(%rbx),%rdi
    6c5b:	ba 08 00 00 00       	mov    $0x8,%edx
    6c60:	4c 89 fe             	mov    %r15,%rsi
    6c63:	e8 88 db ff ff       	callq  47f0 <_ZNSt13basic_filebufIcSt11char_traitsIcEE4openEPKcSt13_Ios_Openmode@plt>
    6c68:	48 8b 54 24 10       	mov    0x10(%rsp),%rdx
    6c6d:	48 8b 7a e8          	mov    -0x18(%rdx),%rdi
    6c71:	48 01 df             	add    %rbx,%rdi
    6c74:	48 85 c0             	test   %rax,%rax
    6c77:	0f 84 b3 00 00 00    	je     6d30 <_Z5existPKc+0x1d0>
    6c7d:	31 f6                	xor    %esi,%esi
    6c7f:	e8 6c de ff ff       	callq  4af0 <_ZNSt9basic_iosIcSt11char_traitsIcEE5clearESt12_Ios_Iostate@plt>
    6c84:	4c 8d 7b 78          	lea    0x78(%rbx),%r15
    6c88:	4c 89 ff             	mov    %r15,%rdi
    6c8b:	e8 b0 d9 ff ff       	callq  4640 <_ZNKSt12__basic_fileIcE7is_openEv@plt>
    6c90:	48 8d 0d e1 da 20 00 	lea    0x20dae1(%rip),%rcx        # 214778 <_ZTVSt13basic_filebufIcSt11char_traitsIcEE@@GLIBCXX_3.4+0x10>
    6c97:	48 8d 7b 10          	lea    0x10(%rbx),%rdi
    6c9b:	88 44 24 0f          	mov    %al,0xf(%rsp)
    6c9f:	4c 89 74 24 10       	mov    %r14,0x10(%rsp)
    6ca4:	4c 89 ac 24 10 01 00 	mov    %r13,0x110(%rsp)
    6cab:	00 
    6cac:	48 89 4c 24 20       	mov    %rcx,0x20(%rsp)
    6cb1:	e8 7a d9 ff ff       	callq  4630 <_ZNSt13basic_filebufIcSt11char_traitsIcEE5closeEv@plt>
    6cb6:	4c 89 ff             	mov    %r15,%rdi
    6cb9:	e8 c2 de ff ff       	callq  4b80 <_ZNSt12__basic_fileIcED1Ev@plt>
    6cbe:	48 8d 15 73 d9 20 00 	lea    0x20d973(%rip),%rdx        # 214638 <_ZTVSt15basic_streambufIcSt11char_traitsIcEE@@GLIBCXX_3.4+0x10>
    6cc5:	48 8d 7b 48          	lea    0x48(%rbx),%rdi
    6cc9:	48 89 54 24 20       	mov    %rdx,0x20(%rsp)
    6cce:	e8 0d dd ff ff       	callq  49e0 <_ZNSt6localeD1Ev@plt>
    6cd3:	48 8b 45 e8          	mov    -0x18(%rbp),%rax
    6cd7:	48 8b 0d 1a db 20 00 	mov    0x20db1a(%rip),%rcx        # 2147f8 <_ZTTSt14basic_ifstreamIcSt11char_traitsIcEE@@GLIBCXX_3.4+0x10>
    6cde:	48 8d bb 00 01 00 00 	lea    0x100(%rbx),%rdi
    6ce5:	48 89 6c 24 10       	mov    %rbp,0x10(%rsp)
    6cea:	48 89 4c 04 10       	mov    %rcx,0x10(%rsp,%rax,1)
    6cef:	48 c7 44 24 18 00 00 	movq   $0x0,0x18(%rsp)
    6cf6:	00 00 
    6cf8:	4c 89 a4 24 10 01 00 	mov    %r12,0x110(%rsp)
    6cff:	00 
    6d00:	e8 ab d9 ff ff       	callq  46b0 <_ZNSt8ios_baseD2Ev@plt>
    6d05:	48 8b 94 24 18 02 00 	mov    0x218(%rsp),%rdx
    6d0c:	00 
    6d0d:	64 48 33 14 25 28 00 	xor    %fs:0x28,%rdx
    6d14:	00 00 
    6d16:	0f b6 44 24 0f       	movzbl 0xf(%rsp),%eax
    6d1b:	75 23                	jne    6d40 <_Z5existPKc+0x1e0>
    6d1d:	48 81 c4 28 02 00 00 	add    $0x228,%rsp
    6d24:	5b                   	pop    %rbx
    6d25:	5d                   	pop    %rbp
    6d26:	41 5c                	pop    %r12
    6d28:	41 5d                	pop    %r13
    6d2a:	41 5e                	pop    %r14
    6d2c:	41 5f                	pop    %r15
    6d2e:	c3                   	retq   
    6d2f:	90                   	nop
    6d30:	8b 77 20             	mov    0x20(%rdi),%esi
    6d33:	83 ce 04             	or     $0x4,%esi
    6d36:	e8 b5 dd ff ff       	callq  4af0 <_ZNSt9basic_iosIcSt11char_traitsIcEE5clearESt12_Ios_Iostate@plt>
    6d3b:	e9 44 ff ff ff       	jmpq   6c84 <_Z5existPKc+0x124>
    6d40:	e8 4b db ff ff       	callq  4890 <__stack_chk_fail@plt>
    6d45:	48 89 c5             	mov    %rax,%rbp
    6d48:	48 89 df             	mov    %rbx,%rdi
    6d4b:	e8 10 d9 ff ff       	callq  4660 <_ZNSt14basic_ifstreamIcSt11char_traitsIcEED1Ev@plt>
    6d50:	48 89 ef             	mov    %rbp,%rdi
    6d53:	e8 b8 dd ff ff       	callq  4b10 <_Unwind_Resume@plt>
    6d58:	48 89 c5             	mov    %rax,%rbp
    6d5b:	48 8d bb 00 01 00 00 	lea    0x100(%rbx),%rdi
    6d62:	4c 89 a4 24 10 01 00 	mov    %r12,0x110(%rsp)
    6d69:	00 
    6d6a:	e8 41 d9 ff ff       	callq  46b0 <_ZNSt8ios_baseD2Ev@plt>
    6d6f:	48 89 ef             	mov    %rbp,%rdi
    6d72:	e8 99 dd ff ff       	callq  4b10 <_Unwind_Resume@plt>
    6d77:	48 8d 7b 10          	lea    0x10(%rbx),%rdi
    6d7b:	49 89 c5             	mov    %rax,%r13
    6d7e:	e8 ed dc ff ff       	callq  4a70 <_ZNSt13basic_filebufIcSt11char_traitsIcEED1Ev@plt>
    6d83:	4c 89 e8             	mov    %r13,%rax
    6d86:	48 8b 55 e8          	mov    -0x18(%rbp),%rdx
    6d8a:	48 8b 0d 67 da 20 00 	mov    0x20da67(%rip),%rcx        # 2147f8 <_ZTTSt14basic_ifstreamIcSt11char_traitsIcEE@@GLIBCXX_3.4+0x10>
    6d91:	48 89 6c 24 10       	mov    %rbp,0x10(%rsp)
    6d96:	48 89 c5             	mov    %rax,%rbp
    6d99:	48 89 4c 14 10       	mov    %rcx,0x10(%rsp,%rdx,1)
    6d9e:	48 c7 44 24 18 00 00 	movq   $0x0,0x18(%rsp)
    6da5:	00 00 
    6da7:	eb b2                	jmp    6d5b <_Z5existPKc+0x1fb>
    6da9:	eb db                	jmp    6d86 <_Z5existPKc+0x226>
    6dab:	0f 1f 44 00 00       	nopl   0x0(%rax,%rax,1)

0000000000006db0 <_Z12save_privdicRKNSt7__cxx1112basic_stringIcSt11char_traitsIcESaIcEEES6_RSt6vectorIS4_SaIS4_EE>:
    6db0:	41 57                	push   %r15
    6db2:	41 56                	push   %r14
    6db4:	49 89 d7             	mov    %rdx,%r15
    6db7:	41 55                	push   %r13
    6db9:	41 54                	push   %r12
    6dbb:	55                   	push   %rbp
    6dbc:	53                   	push   %rbx
    6dbd:	48 89 fb             	mov    %rdi,%rbx
    6dc0:	48 89 f5             	mov    %rsi,%rbp
    6dc3:	48 8d 35 98 a6 00 00 	lea    0xa698(%rip),%rsi        # 11462 <_IO_stdin_used+0x1062>
    6dca:	48 83 ec 48          	sub    $0x48,%rsp
    6dce:	48 8b 3f             	mov    (%rdi),%rdi
    6dd1:	64 48 8b 04 25 28 00 	mov    %fs:0x28,%rax
    6dd8:	00 00 
    6dda:	48 89 44 24 38       	mov    %rax,0x38(%rsp)
    6ddf:	31 c0                	xor    %eax,%eax
    6de1:	e8 4a db ff ff       	callq  4930 <fopen@plt>
    6de6:	48 85 c0             	test   %rax,%rax
    6de9:	0f 84 a9 01 00 00    	je     6f98 <_Z12save_privdicRKNSt7__cxx1112basic_stringIcSt11char_traitsIcESaIcEEES6_RSt6vectorIS4_SaIS4_EE+0x1e8>
    6def:	48 89 c7             	mov    %rax,%rdi
    6df2:	e8 29 da ff ff       	callq  4820 <fclose@plt>
    6df7:	48 8b 3b             	mov    (%rbx),%rdi
    6dfa:	48 8d 35 26 a6 00 00 	lea    0xa626(%rip),%rsi        # 11427 <_IO_stdin_used+0x1027>
    6e01:	e8 2a db ff ff       	callq  4930 <fopen@plt>
    6e06:	49 89 c4             	mov    %rax,%r12
    6e09:	31 c0                	xor    %eax,%eax
    6e0b:	4d 85 e4             	test   %r12,%r12
    6e0e:	0f 84 39 01 00 00    	je     6f4d <_Z12save_privdicRKNSt7__cxx1112basic_stringIcSt11char_traitsIcESaIcEEES6_RSt6vectorIS4_SaIS4_EE+0x19d>
    6e14:	49 8b 37             	mov    (%r15),%rsi
    6e17:	49 3b 77 08          	cmp    0x8(%r15),%rsi
    6e1b:	0f 84 1f 01 00 00    	je     6f40 <_Z12save_privdicRKNSt7__cxx1112basic_stringIcSt11char_traitsIcESaIcEEES6_RSt6vectorIS4_SaIS4_EE+0x190>
    6e21:	48 8d 44 24 10       	lea    0x10(%rsp),%rax
    6e26:	31 db                	xor    %ebx,%ebx
    6e28:	48 8d 6c 24 20       	lea    0x20(%rsp),%rbp
    6e2d:	48 89 44 24 08       	mov    %rax,0x8(%rsp)
    6e32:	e9 91 00 00 00       	jmpq   6ec8 <_Z12save_privdicRKNSt7__cxx1112basic_stringIcSt11char_traitsIcESaIcEEES6_RSt6vectorIS4_SaIS4_EE+0x118>
    6e37:	66 0f 1f 84 00 00 00 	nopw   0x0(%rax,%rax,1)
    6e3e:	00 00 
    6e40:	49 8d 56 10          	lea    0x10(%r14),%rdx
    6e44:	48 39 d7             	cmp    %rdx,%rdi
    6e47:	0f 84 23 01 00 00    	je     6f70 <_Z12save_privdicRKNSt7__cxx1112basic_stringIcSt11char_traitsIcESaIcEEES6_RSt6vectorIS4_SaIS4_EE+0x1c0>
    6e4d:	49 89 06             	mov    %rax,(%r14)
    6e50:	48 8b 44 24 18       	mov    0x18(%rsp),%rax
    6e55:	48 85 ff             	test   %rdi,%rdi
    6e58:	49 8b 56 10          	mov    0x10(%r14),%rdx
    6e5c:	49 89 46 08          	mov    %rax,0x8(%r14)
    6e60:	48 8b 44 24 20       	mov    0x20(%rsp),%rax
    6e65:	49 89 46 10          	mov    %rax,0x10(%r14)
    6e69:	0f 84 16 01 00 00    	je     6f85 <_Z12save_privdicRKNSt7__cxx1112basic_stringIcSt11char_traitsIcESaIcEEES6_RSt6vectorIS4_SaIS4_EE+0x1d5>
    6e6f:	48 89 7c 24 10       	mov    %rdi,0x10(%rsp)
    6e74:	48 89 54 24 20       	mov    %rdx,0x20(%rsp)
    6e79:	48 c7 44 24 18 00 00 	movq   $0x0,0x18(%rsp)
    6e80:	00 00 
    6e82:	c6 07 00             	movb   $0x0,(%rdi)
    6e85:	48 8b 7c 24 10       	mov    0x10(%rsp),%rdi
    6e8a:	48 39 ef             	cmp    %rbp,%rdi
    6e8d:	74 05                	je     6e94 <_Z12save_privdicRKNSt7__cxx1112basic_stringIcSt11char_traitsIcESaIcEEES6_RSt6vectorIS4_SaIS4_EE+0xe4>
    6e8f:	e8 6c d9 ff ff       	callq  4800 <_ZdlPv@plt>
    6e94:	49 8b 07             	mov    (%r15),%rax
    6e97:	48 8d 15 48 a6 00 00 	lea    0xa648(%rip),%rdx        # 114e6 <_IO_stdin_used+0x10e6>
    6e9e:	be 01 00 00 00       	mov    $0x1,%esi
    6ea3:	4c 89 e7             	mov    %r12,%rdi
    6ea6:	48 83 c3 01          	add    $0x1,%rbx
    6eaa:	4a 8b 0c 28          	mov    (%rax,%r13,1),%rcx
    6eae:	31 c0                	xor    %eax,%eax
    6eb0:	e8 2b dc ff ff       	callq  4ae0 <__fprintf_chk@plt>
    6eb5:	49 8b 37             	mov    (%r15),%rsi
    6eb8:	49 8b 47 08          	mov    0x8(%r15),%rax
    6ebc:	48 29 f0             	sub    %rsi,%rax
    6ebf:	48 c1 f8 05          	sar    $0x5,%rax
    6ec3:	48 39 c3             	cmp    %rax,%rbx
    6ec6:	73 78                	jae    6f40 <_Z12save_privdicRKNSt7__cxx1112basic_stringIcSt11char_traitsIcESaIcEEES6_RSt6vectorIS4_SaIS4_EE+0x190>
    6ec8:	48 8b 7c 24 08       	mov    0x8(%rsp),%rdi
    6ecd:	49 89 dd             	mov    %rbx,%r13
    6ed0:	48 8b 0d c1 e3 20 00 	mov    0x20e3c1(%rip),%rcx        # 215298 <ui_enc>
    6ed7:	48 8b 15 b2 e3 20 00 	mov    0x20e3b2(%rip),%rdx        # 215290 <io_enc>
    6ede:	49 c1 e5 05          	shl    $0x5,%r13
    6ee2:	4c 01 ee             	add    %r13,%rsi
    6ee5:	e8 b6 f3 ff ff       	callq  62a0 <_Z5chencRKNSt7__cxx1112basic_stringIcSt11char_traitsIcESaIcEEEPKcS8_>
    6eea:	4d 8b 37             	mov    (%r15),%r14
    6eed:	48 8b 44 24 10       	mov    0x10(%rsp),%rax
    6ef2:	4d 01 ee             	add    %r13,%r14
    6ef5:	48 39 e8             	cmp    %rbp,%rax
    6ef8:	49 8b 3e             	mov    (%r14),%rdi
    6efb:	0f 85 3f ff ff ff    	jne    6e40 <_Z12save_privdicRKNSt7__cxx1112basic_stringIcSt11char_traitsIcESaIcEEES6_RSt6vectorIS4_SaIS4_EE+0x90>
    6f01:	48 8b 54 24 18       	mov    0x18(%rsp),%rdx
    6f06:	48 85 d2             	test   %rdx,%rdx
    6f09:	74 19                	je     6f24 <_Z12save_privdicRKNSt7__cxx1112basic_stringIcSt11char_traitsIcESaIcEEES6_RSt6vectorIS4_SaIS4_EE+0x174>
    6f0b:	48 83 fa 01          	cmp    $0x1,%rdx
    6f0f:	0f 85 9b 00 00 00    	jne    6fb0 <_Z12save_privdicRKNSt7__cxx1112basic_stringIcSt11char_traitsIcESaIcEEES6_RSt6vectorIS4_SaIS4_EE+0x200>
    6f15:	0f b6 44 24 20       	movzbl 0x20(%rsp),%eax
    6f1a:	88 07                	mov    %al,(%rdi)
    6f1c:	48 8b 54 24 18       	mov    0x18(%rsp),%rdx
    6f21:	49 8b 3e             	mov    (%r14),%rdi
    6f24:	49 89 56 08          	mov    %rdx,0x8(%r14)
    6f28:	c6 04 17 00          	movb   $0x0,(%rdi,%rdx,1)
    6f2c:	48 8b 7c 24 10       	mov    0x10(%rsp),%rdi
    6f31:	e9 43 ff ff ff       	jmpq   6e79 <_Z12save_privdicRKNSt7__cxx1112basic_stringIcSt11char_traitsIcESaIcEEES6_RSt6vectorIS4_SaIS4_EE+0xc9>
    6f36:	66 2e 0f 1f 84 00 00 	nopw   %cs:0x0(%rax,%rax,1)
    6f3d:	00 00 00 
    6f40:	4c 89 e7             	mov    %r12,%rdi
    6f43:	e8 d8 d8 ff ff       	callq  4820 <fclose@plt>
    6f48:	b8 01 00 00 00       	mov    $0x1,%eax
    6f4d:	48 8b 5c 24 38       	mov    0x38(%rsp),%rbx
    6f52:	64 48 33 1c 25 28 00 	xor    %fs:0x28,%rbx
    6f59:	00 00 
    6f5b:	75 75                	jne    6fd2 <_Z12save_privdicRKNSt7__cxx1112basic_stringIcSt11char_traitsIcESaIcEEES6_RSt6vectorIS4_SaIS4_EE+0x222>
    6f5d:	48 83 c4 48          	add    $0x48,%rsp
    6f61:	5b                   	pop    %rbx
    6f62:	5d                   	pop    %rbp
    6f63:	41 5c                	pop    %r12
    6f65:	41 5d                	pop    %r13
    6f67:	41 5e                	pop    %r14
    6f69:	41 5f                	pop    %r15
    6f6b:	c3                   	retq   
    6f6c:	0f 1f 40 00          	nopl   0x0(%rax)
    6f70:	49 89 06             	mov    %rax,(%r14)
    6f73:	48 8b 44 24 18       	mov    0x18(%rsp),%rax
    6f78:	49 89 46 08          	mov    %rax,0x8(%r14)
    6f7c:	48 8b 44 24 20       	mov    0x20(%rsp),%rax
    6f81:	49 89 46 10          	mov    %rax,0x10(%r14)
    6f85:	48 89 6c 24 10       	mov    %rbp,0x10(%rsp)
    6f8a:	48 89 ef             	mov    %rbp,%rdi
    6f8d:	e9 e7 fe ff ff       	jmpq   6e79 <_Z12save_privdicRKNSt7__cxx1112basic_stringIcSt11char_traitsIcESaIcEEES6_RSt6vectorIS4_SaIS4_EE+0xc9>
    6f92:	66 0f 1f 44 00 00    	nopw   0x0(%rax,%rax,1)
    6f98:	48 8b 7d 00          	mov    0x0(%rbp),%rdi
    6f9c:	48 8d 35 84 a4 00 00 	lea    0xa484(%rip),%rsi        # 11427 <_IO_stdin_used+0x1027>
    6fa3:	e8 88 d9 ff ff       	callq  4930 <fopen@plt>
    6fa8:	49 89 c4             	mov    %rax,%r12
    6fab:	e9 59 fe ff ff       	jmpq   6e09 <_Z12save_privdicRKNSt7__cxx1112basic_stringIcSt11char_traitsIcESaIcEEES6_RSt6vectorIS4_SaIS4_EE+0x59>
    6fb0:	48 89 ee             	mov    %rbp,%rsi
    6fb3:	e8 d8 d7 ff ff       	callq  4790 <memcpy@plt>
    6fb8:	48 8b 54 24 18       	mov    0x18(%rsp),%rdx
    6fbd:	49 8b 3e             	mov    (%r14),%rdi
    6fc0:	49 89 56 08          	mov    %rdx,0x8(%r14)
    6fc4:	c6 04 17 00          	movb   $0x0,(%rdi,%rdx,1)
    6fc8:	48 8b 7c 24 10       	mov    0x10(%rsp),%rdi
    6fcd:	e9 a7 fe ff ff       	jmpq   6e79 <_Z12save_privdicRKNSt7__cxx1112basic_stringIcSt11char_traitsIcESaIcEEES6_RSt6vectorIS4_SaIS4_EE+0xc9>
    6fd2:	e8 b9 d8 ff ff       	callq  4890 <__stack_chk_fail@plt>
    6fd7:	66 0f 1f 84 00 00 00 	nopw   0x0(%rax,%rax,1)
    6fde:	00 00 

0000000000006fe0 <_Z8basenamePKcc>:
    6fe0:	41 54                	push   %r12
    6fe2:	55                   	push   %rbp
    6fe3:	41 89 f4             	mov    %esi,%r12d
    6fe6:	53                   	push   %rbx
    6fe7:	48 89 fb             	mov    %rdi,%rbx
    6fea:	89 f5                	mov    %esi,%ebp
    6fec:	e8 ff d6 ff ff       	callq  46f0 <strlen@plt>
    6ff1:	48 01 d8             	add    %rbx,%rax
    6ff4:	44 3a 20             	cmp    (%rax),%r12b
    6ff7:	75 10                	jne    7009 <_Z8basenamePKcc+0x29>
    6ff9:	eb 1d                	jmp    7018 <_Z8basenamePKcc+0x38>
    6ffb:	0f 1f 44 00 00       	nopl   0x0(%rax,%rax,1)
    7000:	48 83 e8 01          	sub    $0x1,%rax
    7004:	40 38 28             	cmp    %bpl,(%rax)
    7007:	74 0f                	je     7018 <_Z8basenamePKcc+0x38>
    7009:	48 39 c3             	cmp    %rax,%rbx
    700c:	75 f2                	jne    7000 <_Z8basenamePKcc+0x20>
    700e:	5b                   	pop    %rbx
    700f:	5d                   	pop    %rbp
    7010:	41 5c                	pop    %r12
    7012:	c3                   	retq   
    7013:	0f 1f 44 00 00       	nopl   0x0(%rax,%rax,1)
    7018:	5b                   	pop    %rbx
    7019:	48 83 c0 01          	add    $0x1,%rax
    701d:	5d                   	pop    %rbp
    701e:	41 5c                	pop    %r12
    7020:	c3                   	retq   
    7021:	0f 1f 44 00 00       	nopl   0x0(%rax,%rax,1)
    7026:	66 2e 0f 1f 84 00 00 	nopw   %cs:0x0(%rax,%rax,1)
    702d:	00 00 00 

0000000000007030 <_Z5checkPP8HunspellPiRKNSt7__cxx1112basic_stringIcSt11char_traitsIcESaIcEEES2_PS8_>:
    7030:	41 57                	push   %r15
    7032:	41 56                	push   %r14
    7034:	41 55                	push   %r13
    7036:	41 54                	push   %r12
    7038:	55                   	push   %rbp
    7039:	53                   	push   %rbx
    703a:	48 81 ec b8 00 00 00 	sub    $0xb8,%rsp
    7041:	48 89 7c 24 20       	mov    %rdi,0x20(%rsp)
    7046:	8b 3d d4 e1 20 00    	mov    0x20e1d4(%rip),%edi        # 215220 <dmax>
    704c:	64 48 8b 04 25 28 00 	mov    %fs:0x28,%rax
    7053:	00 00 
    7055:	48 89 84 24 a8 00 00 	mov    %rax,0xa8(%rsp)
    705c:	00 
    705d:	31 c0                	xor    %eax,%eax
    705f:	48 89 54 24 30       	mov    %rdx,0x30(%rsp)
    7064:	48 89 4c 24 18       	mov    %rcx,0x18(%rsp)
    7069:	85 ff                	test   %edi,%edi
    706b:	4c 89 44 24 28       	mov    %r8,0x28(%rsp)
    7070:	0f 8e 4a 03 00 00    	jle    73c0 <_Z5checkPP8HunspellPiRKNSt7__cxx1112basic_stringIcSt11char_traitsIcESaIcEEES2_PS8_+0x390>
    7076:	48 8d 84 24 80 00 00 	lea    0x80(%rsp),%rax
    707d:	00 
    707e:	4c 8d 74 24 60       	lea    0x60(%rsp),%r14
    7083:	48 89 f3             	mov    %rsi,%rbx
    7086:	c7 44 24 14 00 00 00 	movl   $0x0,0x14(%rsp)
    708d:	00 
    708e:	48 8d 6c 24 40       	lea    0x40(%rsp),%rbp
    7093:	4c 8d 3d a6 e1 20 00 	lea    0x20e1a6(%rip),%r15        # 215240 <dic_enc>
    709a:	48 89 44 24 08       	mov    %rax,0x8(%rsp)
    709f:	4c 8d a4 24 90 00 00 	lea    0x90(%rsp),%r12
    70a6:	00 
    70a7:	4d 8d 6e 10          	lea    0x10(%r14),%r13
    70ab:	e9 25 01 00 00       	jmpq   71d5 <_Z5checkPP8HunspellPiRKNSt7__cxx1112basic_stringIcSt11char_traitsIcESaIcEEES2_PS8_+0x1a5>
    70b0:	48 63 13             	movslq (%rbx),%rdx
    70b3:	48 8d 3d 28 a1 00 00 	lea    0xa128(%rip),%rdi        # 111e2 <_IO_stdin_used+0xde2>
    70ba:	b9 06 00 00 00       	mov    $0x6,%ecx
    70bf:	49 8b 34 d7          	mov    (%r15,%rdx,8),%rsi
    70c3:	f3 a6                	repz cmpsb %es:(%rdi),%ds:(%rsi)
    70c5:	0f 97 c0             	seta   %al
    70c8:	1c 00                	sbb    $0x0,%al
    70ca:	84 c0                	test   %al,%al
    70cc:	74 69                	je     7137 <_Z5checkPP8HunspellPiRKNSt7__cxx1112basic_stringIcSt11char_traitsIcESaIcEEES2_PS8_+0x107>
    70ce:	48 8d 15 80 a9 00 00 	lea    0xa980(%rip),%rdx        # 11a55 <_ZTS9XMLParser+0x35d>
    70d5:	48 8b 7c 24 08       	mov    0x8(%rsp),%rdi
    70da:	4c 89 a4 24 80 00 00 	mov    %r12,0x80(%rsp)
    70e1:	00 
    70e2:	48 8d 72 ff          	lea    -0x1(%rdx),%rsi
    70e6:	e8 e5 f0 ff ff       	callq  61d0 <_ZNSt7__cxx1112basic_stringIcSt11char_traitsIcESaIcEE12_M_constructIPKcEEvT_S8_St20forward_iterator_tag.isra.52>
    70eb:	48 8d 15 f9 a0 00 00 	lea    0xa0f9(%rip),%rdx        # 111eb <_IO_stdin_used+0xdeb>
    70f2:	4c 89 f7             	mov    %r14,%rdi
    70f5:	4c 89 6c 24 60       	mov    %r13,0x60(%rsp)
    70fa:	48 8d 72 fd          	lea    -0x3(%rdx),%rsi
    70fe:	e8 cd f0 ff ff       	callq  61d0 <_ZNSt7__cxx1112basic_stringIcSt11char_traitsIcESaIcEE12_M_constructIPKcEEvT_S8_St20forward_iterator_tag.isra.52>
    7103:	48 8b 54 24 08       	mov    0x8(%rsp),%rdx
    7108:	4c 89 f6             	mov    %r14,%rsi
    710b:	48 89 ef             	mov    %rbp,%rdi
    710e:	e8 ad d7 ff ff       	callq  48c0 <_Z8mystrrepRNSt7__cxx1112basic_stringIcSt11char_traitsIcESaIcEEERKS4_S7_@plt>
    7113:	48 8b 7c 24 60       	mov    0x60(%rsp),%rdi
    7118:	4c 39 ef             	cmp    %r13,%rdi
    711b:	74 05                	je     7122 <_Z5checkPP8HunspellPiRKNSt7__cxx1112basic_stringIcSt11char_traitsIcESaIcEEES2_PS8_+0xf2>
    711d:	e8 de d6 ff ff       	callq  4800 <_ZdlPv@plt>
    7122:	48 8b bc 24 80 00 00 	mov    0x80(%rsp),%rdi
    7129:	00 
    712a:	4c 39 e7             	cmp    %r12,%rdi
    712d:	74 05                	je     7134 <_Z5checkPP8HunspellPiRKNSt7__cxx1112basic_stringIcSt11char_traitsIcESaIcEEES2_PS8_+0x104>
    712f:	e8 cc d6 ff ff       	callq  4800 <_ZdlPv@plt>
    7134:	48 63 13             	movslq (%rbx),%rdx
    7137:	48 8b 44 24 20       	mov    0x20(%rsp),%rax
    713c:	48 8b 4c 24 28       	mov    0x28(%rsp),%rcx
    7141:	48 89 ee             	mov    %rbp,%rsi
    7144:	48 8b 3c d0          	mov    (%rax,%rdx,8),%rdi
    7148:	48 8b 54 24 18       	mov    0x18(%rsp),%rdx
    714d:	e8 1e d5 ff ff       	callq  4670 <_ZN8Hunspell5spellERKNSt7__cxx1112basic_stringIcSt11char_traitsIcESaIcEEEPiPS5_@plt>
    7152:	84 c0                	test   %al,%al
    7154:	74 1c                	je     7172 <_Z5checkPP8HunspellPiRKNSt7__cxx1112basic_stringIcSt11char_traitsIcESaIcEEES2_PS8_+0x142>
    7156:	8b 0d 44 e1 20 00    	mov    0x20e144(%rip),%ecx        # 2152a0 <warn>
    715c:	85 c9                	test   %ecx,%ecx
    715e:	0f 84 1c 01 00 00    	je     7280 <_Z5checkPP8HunspellPiRKNSt7__cxx1112basic_stringIcSt11char_traitsIcESaIcEEES2_PS8_+0x250>
    7164:	48 8b 4c 24 18       	mov    0x18(%rsp),%rcx
    7169:	f6 01 40             	testb  $0x40,(%rcx)
    716c:	0f 84 0e 01 00 00    	je     7280 <_Z5checkPP8HunspellPiRKNSt7__cxx1112basic_stringIcSt11char_traitsIcESaIcEEES2_PS8_+0x250>
    7172:	48 63 13             	movslq (%rbx),%rdx
    7175:	48 8d 3d 66 a0 00 00 	lea    0xa066(%rip),%rdi        # 111e2 <_IO_stdin_used+0xde2>
    717c:	b9 06 00 00 00       	mov    $0x6,%ecx
    7181:	49 8b 34 d7          	mov    (%r15,%rdx,8),%rsi
    7185:	48 89 d0             	mov    %rdx,%rax
    7188:	f3 a6                	repz cmpsb %es:(%rdi),%ds:(%rsi)
    718a:	0f 97 c2             	seta   %dl
    718d:	80 da 00             	sbb    $0x0,%dl
    7190:	84 d2                	test   %dl,%dl
    7192:	0f 84 30 01 00 00    	je     72c8 <_Z5checkPP8HunspellPiRKNSt7__cxx1112basic_stringIcSt11char_traitsIcESaIcEEES2_PS8_+0x298>
    7198:	83 c0 01             	add    $0x1,%eax
    719b:	ba 00 00 00 00       	mov    $0x0,%edx
    71a0:	48 8b 7c 24 40       	mov    0x40(%rsp),%rdi
    71a5:	89 03                	mov    %eax,(%rbx)
    71a7:	3b 05 73 e0 20 00    	cmp    0x20e073(%rip),%eax        # 215220 <dmax>
    71ad:	0f 44 c2             	cmove  %edx,%eax
    71b0:	89 03                	mov    %eax,(%rbx)
    71b2:	48 8d 45 10          	lea    0x10(%rbp),%rax
    71b6:	48 39 c7             	cmp    %rax,%rdi
    71b9:	74 05                	je     71c0 <_Z5checkPP8HunspellPiRKNSt7__cxx1112basic_stringIcSt11char_traitsIcESaIcEEES2_PS8_+0x190>
    71bb:	e8 40 d6 ff ff       	callq  4800 <_ZdlPv@plt>
    71c0:	83 44 24 14 01       	addl   $0x1,0x14(%rsp)
    71c5:	8b 44 24 14          	mov    0x14(%rsp),%eax
    71c9:	39 05 51 e0 20 00    	cmp    %eax,0x20e051(%rip)        # 215220 <dmax>
    71cf:	0f 8e eb 01 00 00    	jle    73c0 <_Z5checkPP8HunspellPiRKNSt7__cxx1112basic_stringIcSt11char_traitsIcESaIcEEES2_PS8_+0x390>
    71d5:	48 63 03             	movslq (%rbx),%rax
    71d8:	48 8b 15 b1 e0 20 00 	mov    0x20e0b1(%rip),%rdx        # 215290 <io_enc>
    71df:	48 89 ef             	mov    %rbp,%rdi
    71e2:	48 8b 74 24 30       	mov    0x30(%rsp),%rsi
    71e7:	49 8b 0c c7          	mov    (%r15,%rax,8),%rcx
    71eb:	e8 b0 f0 ff ff       	callq  62a0 <_Z5chencRKNSt7__cxx1112basic_stringIcSt11char_traitsIcESaIcEEEPKcS8_>
    71f0:	48 8d 15 5e a8 00 00 	lea    0xa85e(%rip),%rdx        # 11a55 <_ZTS9XMLParser+0x35d>
    71f7:	48 8b 7c 24 08       	mov    0x8(%rsp),%rdi
    71fc:	4c 89 a4 24 80 00 00 	mov    %r12,0x80(%rsp)
    7203:	00 
    7204:	48 8d 72 ff          	lea    -0x1(%rdx),%rsi
    7208:	e8 c3 ef ff ff       	callq  61d0 <_ZNSt7__cxx1112basic_stringIcSt11char_traitsIcESaIcEE12_M_constructIPKcEEvT_S8_St20forward_iterator_tag.isra.52>
    720d:	48 8d 15 cd 9f 00 00 	lea    0x9fcd(%rip),%rdx        # 111e1 <_IO_stdin_used+0xde1>
    7214:	4c 89 f7             	mov    %r14,%rdi
    7217:	4c 89 6c 24 60       	mov    %r13,0x60(%rsp)
    721c:	48 8d 72 fa          	lea    -0x6(%rdx),%rsi
    7220:	e8 ab ef ff ff       	callq  61d0 <_ZNSt7__cxx1112basic_stringIcSt11char_traitsIcESaIcEE12_M_constructIPKcEEvT_S8_St20forward_iterator_tag.isra.52>
    7225:	48 8b 54 24 08       	mov    0x8(%rsp),%rdx
    722a:	4c 89 f6             	mov    %r14,%rsi
    722d:	48 89 ef             	mov    %rbp,%rdi
    7230:	e8 8b d6 ff ff       	callq  48c0 <_Z8mystrrepRNSt7__cxx1112basic_stringIcSt11char_traitsIcESaIcEEERKS4_S7_@plt>
    7235:	48 8b 7c 24 60       	mov    0x60(%rsp),%rdi
    723a:	4c 39 ef             	cmp    %r13,%rdi
    723d:	74 05                	je     7244 <_Z5checkPP8HunspellPiRKNSt7__cxx1112basic_stringIcSt11char_traitsIcESaIcEEES2_PS8_+0x214>
    723f:	e8 bc d5 ff ff       	callq  4800 <_ZdlPv@plt>
    7244:	48 8b bc 24 80 00 00 	mov    0x80(%rsp),%rdi
    724b:	00 
    724c:	4c 39 e7             	cmp    %r12,%rdi
    724f:	74 05                	je     7256 <_Z5checkPP8HunspellPiRKNSt7__cxx1112basic_stringIcSt11char_traitsIcESaIcEEES2_PS8_+0x226>
    7251:	e8 aa d5 ff ff       	callq  4800 <_ZdlPv@plt>
    7256:	8b 35 48 e0 20 00    	mov    0x20e048(%rip),%esi        # 2152a4 <checkapos>
    725c:	85 f6                	test   %esi,%esi
    725e:	0f 84 4c fe ff ff    	je     70b0 <_Z5checkPP8HunspellPiRKNSt7__cxx1112basic_stringIcSt11char_traitsIcESaIcEEES2_PS8_+0x80>
    7264:	31 d2                	xor    %edx,%edx
    7266:	be 27 00 00 00       	mov    $0x27,%esi
    726b:	48 89 ef             	mov    %rbp,%rdi
    726e:	e8 3d d7 ff ff       	callq  49b0 <_ZNKSt7__cxx1112basic_stringIcSt11char_traitsIcESaIcEE4findEcm@plt>
    7273:	48 83 f8 ff          	cmp    $0xffffffffffffffff,%rax
    7277:	0f 84 33 fe ff ff    	je     70b0 <_Z5checkPP8HunspellPiRKNSt7__cxx1112basic_stringIcSt11char_traitsIcESaIcEEES2_PS8_+0x80>
    727d:	31 c0                	xor    %eax,%eax
    727f:	90                   	nop
    7280:	48 8b 7c 24 40       	mov    0x40(%rsp),%rdi
    7285:	48 83 c5 10          	add    $0x10,%rbp
    7289:	48 39 ef             	cmp    %rbp,%rdi
    728c:	74 0e                	je     729c <_Z5checkPP8HunspellPiRKNSt7__cxx1112basic_stringIcSt11char_traitsIcESaIcEEES2_PS8_+0x26c>
    728e:	88 44 24 08          	mov    %al,0x8(%rsp)
    7292:	e8 69 d5 ff ff       	callq  4800 <_ZdlPv@plt>
    7297:	0f b6 44 24 08       	movzbl 0x8(%rsp),%eax
    729c:	48 8b 9c 24 a8 00 00 	mov    0xa8(%rsp),%rbx
    72a3:	00 
    72a4:	64 48 33 1c 25 28 00 	xor    %fs:0x28,%rbx
    72ab:	00 00 
    72ad:	0f 85 6c 01 00 00    	jne    741f <_Z5checkPP8HunspellPiRKNSt7__cxx1112basic_stringIcSt11char_traitsIcESaIcEEES2_PS8_+0x3ef>
    72b3:	48 81 c4 b8 00 00 00 	add    $0xb8,%rsp
    72ba:	5b                   	pop    %rbx
    72bb:	5d                   	pop    %rbp
    72bc:	41 5c                	pop    %r12
    72be:	41 5d                	pop    %r13
    72c0:	41 5e                	pop    %r14
    72c2:	41 5f                	pop    %r15
    72c4:	c3                   	retq   
    72c5:	0f 1f 00             	nopl   (%rax)
    72c8:	48 8d 35 19 9f 00 00 	lea    0x9f19(%rip),%rsi        # 111e8 <_IO_stdin_used+0xde8>
    72cf:	31 d2                	xor    %edx,%edx
    72d1:	b9 03 00 00 00       	mov    $0x3,%ecx
    72d6:	48 89 ef             	mov    %rbp,%rdi
    72d9:	e8 22 d8 ff ff       	callq  4b00 <_ZNKSt7__cxx1112basic_stringIcSt11char_traitsIcESaIcEE4findEPKcmm@plt>
    72de:	48 83 f8 ff          	cmp    $0xffffffffffffffff,%rax
    72e2:	0f 84 b6 00 00 00    	je     739e <_Z5checkPP8HunspellPiRKNSt7__cxx1112basic_stringIcSt11char_traitsIcESaIcEEES2_PS8_+0x36e>
    72e8:	48 63 03             	movslq (%rbx),%rax
    72eb:	48 8b 4c 24 20       	mov    0x20(%rsp),%rcx
    72f0:	48 8d 15 5e a7 00 00 	lea    0xa75e(%rip),%rdx        # 11a55 <_ZTS9XMLParser+0x35d>
    72f7:	48 8b 7c 24 08       	mov    0x8(%rsp),%rdi
    72fc:	4c 89 a4 24 80 00 00 	mov    %r12,0x80(%rsp)
    7303:	00 
    7304:	48 8d 72 ff          	lea    -0x1(%rdx),%rsi
    7308:	48 8b 04 c1          	mov    (%rcx,%rax,8),%rax
    730c:	48 89 44 24 38       	mov    %rax,0x38(%rsp)
    7311:	e8 ba ee ff ff       	callq  61d0 <_ZNSt7__cxx1112basic_stringIcSt11char_traitsIcESaIcEE12_M_constructIPKcEEvT_S8_St20forward_iterator_tag.isra.52>
    7316:	48 8d 15 ce 9e 00 00 	lea    0x9ece(%rip),%rdx        # 111eb <_IO_stdin_used+0xdeb>
    731d:	4c 89 f7             	mov    %r14,%rdi
    7320:	4c 89 6c 24 60       	mov    %r13,0x60(%rsp)
    7325:	48 8d 72 fd          	lea    -0x3(%rdx),%rsi
    7329:	e8 a2 ee ff ff       	callq  61d0 <_ZNSt7__cxx1112basic_stringIcSt11char_traitsIcESaIcEE12_M_constructIPKcEEvT_S8_St20forward_iterator_tag.isra.52>
    732e:	48 8b 54 24 08       	mov    0x8(%rsp),%rdx
    7333:	4c 89 f6             	mov    %r14,%rsi
    7336:	48 89 ef             	mov    %rbp,%rdi
    7339:	e8 82 d5 ff ff       	callq  48c0 <_Z8mystrrepRNSt7__cxx1112basic_stringIcSt11char_traitsIcESaIcEEERKS4_S7_@plt>
    733e:	48 8b 4c 24 28       	mov    0x28(%rsp),%rcx
    7343:	48 8b 54 24 18       	mov    0x18(%rsp),%rdx
    7348:	48 89 c6             	mov    %rax,%rsi
    734b:	48 8b 7c 24 38       	mov    0x38(%rsp),%rdi
    7350:	e8 1b d3 ff ff       	callq  4670 <_ZN8Hunspell5spellERKNSt7__cxx1112basic_stringIcSt11char_traitsIcESaIcEEEPiPS5_@plt>
    7355:	84 c0                	test   %al,%al
    7357:	74 0a                	je     7363 <_Z5checkPP8HunspellPiRKNSt7__cxx1112basic_stringIcSt11char_traitsIcESaIcEEES2_PS8_+0x333>
    7359:	8b 15 41 df 20 00    	mov    0x20df41(%rip),%edx        # 2152a0 <warn>
    735f:	85 d2                	test   %edx,%edx
    7361:	75 45                	jne    73a8 <_Z5checkPP8HunspellPiRKNSt7__cxx1112basic_stringIcSt11char_traitsIcESaIcEEES2_PS8_+0x378>
    7363:	48 8b 7c 24 60       	mov    0x60(%rsp),%rdi
    7368:	4c 39 ef             	cmp    %r13,%rdi
    736b:	74 0e                	je     737b <_Z5checkPP8HunspellPiRKNSt7__cxx1112basic_stringIcSt11char_traitsIcESaIcEEES2_PS8_+0x34b>
    736d:	88 44 24 38          	mov    %al,0x38(%rsp)
    7371:	e8 8a d4 ff ff       	callq  4800 <_ZdlPv@plt>
    7376:	0f b6 44 24 38       	movzbl 0x38(%rsp),%eax
    737b:	48 8b bc 24 80 00 00 	mov    0x80(%rsp),%rdi
    7382:	00 
    7383:	4c 39 e7             	cmp    %r12,%rdi
    7386:	74 0e                	je     7396 <_Z5checkPP8HunspellPiRKNSt7__cxx1112basic_stringIcSt11char_traitsIcESaIcEEES2_PS8_+0x366>
    7388:	88 44 24 38          	mov    %al,0x38(%rsp)
    738c:	e8 6f d4 ff ff       	callq  4800 <_ZdlPv@plt>
    7391:	0f b6 44 24 38       	movzbl 0x38(%rsp),%eax
    7396:	84 c0                	test   %al,%al
    7398:	0f 85 e2 fe ff ff    	jne    7280 <_Z5checkPP8HunspellPiRKNSt7__cxx1112basic_stringIcSt11char_traitsIcESaIcEEES2_PS8_+0x250>
    739e:	8b 03                	mov    (%rbx),%eax
    73a0:	e9 f3 fd ff ff       	jmpq   7198 <_Z5checkPP8HunspellPiRKNSt7__cxx1112basic_stringIcSt11char_traitsIcESaIcEEES2_PS8_+0x168>
    73a5:	0f 1f 00             	nopl   (%rax)
    73a8:	48 8b 44 24 18       	mov    0x18(%rsp),%rax
    73ad:	8b 00                	mov    (%rax),%eax
    73af:	89 44 24 38          	mov    %eax,0x38(%rsp)
    73b3:	c1 e8 06             	shr    $0x6,%eax
    73b6:	83 f0 01             	xor    $0x1,%eax
    73b9:	83 e0 01             	and    $0x1,%eax
    73bc:	eb a5                	jmp    7363 <_Z5checkPP8HunspellPiRKNSt7__cxx1112basic_stringIcSt11char_traitsIcESaIcEEES2_PS8_+0x333>
    73be:	66 90                	xchg   %ax,%ax
    73c0:	31 c0                	xor    %eax,%eax
    73c2:	e9 d5 fe ff ff       	jmpq   729c <_Z5checkPP8HunspellPiRKNSt7__cxx1112basic_stringIcSt11char_traitsIcESaIcEEES2_PS8_+0x26c>
    73c7:	48 8b 7c 24 60       	mov    0x60(%rsp),%rdi
    73cc:	49 83 c6 10          	add    $0x10,%r14
    73d0:	48 89 c3             	mov    %rax,%rbx
    73d3:	4c 39 f7             	cmp    %r14,%rdi
    73d6:	74 05                	je     73dd <_Z5checkPP8HunspellPiRKNSt7__cxx1112basic_stringIcSt11char_traitsIcESaIcEEES2_PS8_+0x3ad>
    73d8:	e8 23 d4 ff ff       	callq  4800 <_ZdlPv@plt>
    73dd:	48 8b 44 24 08       	mov    0x8(%rsp),%rax
    73e2:	48 8b bc 24 80 00 00 	mov    0x80(%rsp),%rdi
    73e9:	00 
    73ea:	48 83 c0 10          	add    $0x10,%rax
    73ee:	48 39 c7             	cmp    %rax,%rdi
    73f1:	74 05                	je     73f8 <_Z5checkPP8HunspellPiRKNSt7__cxx1112basic_stringIcSt11char_traitsIcESaIcEEES2_PS8_+0x3c8>
    73f3:	e8 08 d4 ff ff       	callq  4800 <_ZdlPv@plt>
    73f8:	48 8b 7c 24 40       	mov    0x40(%rsp),%rdi
    73fd:	48 83 c5 10          	add    $0x10,%rbp
    7401:	48 39 ef             	cmp    %rbp,%rdi
    7404:	74 05                	je     740b <_Z5checkPP8HunspellPiRKNSt7__cxx1112basic_stringIcSt11char_traitsIcESaIcEEES2_PS8_+0x3db>
    7406:	e8 f5 d3 ff ff       	callq  4800 <_ZdlPv@plt>
    740b:	48 89 df             	mov    %rbx,%rdi
    740e:	e8 fd d6 ff ff       	callq  4b10 <_Unwind_Resume@plt>
    7413:	eb b2                	jmp    73c7 <_Z5checkPP8HunspellPiRKNSt7__cxx1112basic_stringIcSt11char_traitsIcESaIcEEES2_PS8_+0x397>
    7415:	48 89 c3             	mov    %rax,%rbx
    7418:	eb c3                	jmp    73dd <_Z5checkPP8HunspellPiRKNSt7__cxx1112basic_stringIcSt11char_traitsIcESaIcEEES2_PS8_+0x3ad>
    741a:	48 89 c3             	mov    %rax,%rbx
    741d:	eb d9                	jmp    73f8 <_Z5checkPP8HunspellPiRKNSt7__cxx1112basic_stringIcSt11char_traitsIcESaIcEEES2_PS8_+0x3c8>
    741f:	e8 6c d4 ff ff       	callq  4890 <__stack_chk_fail@plt>
    7424:	eb ef                	jmp    7415 <_Z5checkPP8HunspellPiRKNSt7__cxx1112basic_stringIcSt11char_traitsIcESaIcEEES2_PS8_+0x3e5>
    7426:	eb f2                	jmp    741a <_Z5checkPP8HunspellPiRKNSt7__cxx1112basic_stringIcSt11char_traitsIcESaIcEEES2_PS8_+0x3ea>
    7428:	eb f0                	jmp    741a <_Z5checkPP8HunspellPiRKNSt7__cxx1112basic_stringIcSt11char_traitsIcESaIcEEES2_PS8_+0x3ea>
    742a:	eb 9b                	jmp    73c7 <_Z5checkPP8HunspellPiRKNSt7__cxx1112basic_stringIcSt11char_traitsIcESaIcEEES2_PS8_+0x397>
    742c:	eb e7                	jmp    7415 <_Z5checkPP8HunspellPiRKNSt7__cxx1112basic_stringIcSt11char_traitsIcESaIcEEES2_PS8_+0x3e5>
    742e:	66 90                	xchg   %ax,%ax

0000000000007430 <_Z9mymkdtempPc>:
    7430:	e9 3b d7 ff ff       	jmpq   4b70 <mkdtemp@plt>
    7435:	90                   	nop
    7436:	66 2e 0f 1f 84 00 00 	nopw   %cs:0x0(%rax,%rax,1)
    743d:	00 00 00 

0000000000007440 <_Z6exist2PciPKcS1_>:
    7440:	41 55                	push   %r13
    7442:	41 54                	push   %r12
    7444:	49 89 d5             	mov    %rdx,%r13
    7447:	55                   	push   %rbp
    7448:	53                   	push   %rbx
    7449:	48 8d 2d c4 9f 00 00 	lea    0x9fc4(%rip),%rbp        # 11414 <_IO_stdin_used+0x1014>
    7450:	49 89 cc             	mov    %rcx,%r12
    7453:	4c 63 c6             	movslq %esi,%r8
    7456:	48 89 f9             	mov    %rdi,%rcx
    7459:	48 83 ec 48          	sub    $0x48,%rsp
    745d:	48 8d 5c 24 10       	lea    0x10(%rsp),%rbx
    7462:	48 c7 44 24 18 00 00 	movq   $0x0,0x18(%rsp)
    7469:	00 00 
    746b:	c6 44 24 20 00       	movb   $0x0,0x20(%rsp)
    7470:	64 48 8b 04 25 28 00 	mov    %fs:0x28,%rax
    7477:	00 00 
    7479:	48 89 44 24 38       	mov    %rax,0x38(%rsp)
    747e:	31 c0                	xor    %eax,%eax
    7480:	48 8d 43 10          	lea    0x10(%rbx),%rax
    7484:	85 f6                	test   %esi,%esi
    7486:	48 89 df             	mov    %rbx,%rdi
    7489:	48 89 44 24 10       	mov    %rax,0x10(%rsp)
    748e:	48 8d 05 04 a6 00 00 	lea    0xa604(%rip),%rax        # 11a99 <_ZTS9ManParser+0x19>
    7495:	48 0f 45 e8          	cmovne %rax,%rbp
    7499:	31 d2                	xor    %edx,%edx
    749b:	31 f6                	xor    %esi,%esi
    749d:	e8 be d5 ff ff       	callq  4a60 <_ZNSt7__cxx1112basic_stringIcSt11char_traitsIcESaIcEE10_M_replaceEmmPKcm@plt>
    74a2:	48 89 ef             	mov    %rbp,%rdi
    74a5:	e8 46 d2 ff ff       	callq  46f0 <strlen@plt>
    74aa:	48 b9 ff ff ff ff ff 	movabs $0x7fffffffffffffff,%rcx
    74b1:	ff ff 7f 
    74b4:	48 2b 4c 24 18       	sub    0x18(%rsp),%rcx
    74b9:	48 39 c8             	cmp    %rcx,%rax
    74bc:	0f 87 5d 01 00 00    	ja     761f <_Z6exist2PciPKcS1_+0x1df>
    74c2:	48 89 c2             	mov    %rax,%rdx
    74c5:	48 89 ee             	mov    %rbp,%rsi
    74c8:	48 89 df             	mov    %rbx,%rdi
    74cb:	e8 d0 d1 ff ff       	callq  46a0 <_ZNSt7__cxx1112basic_stringIcSt11char_traitsIcESaIcEE9_M_appendEPKcm@plt>
    74d0:	4c 89 ef             	mov    %r13,%rdi
    74d3:	e8 18 d2 ff ff       	callq  46f0 <strlen@plt>
    74d8:	48 b9 ff ff ff ff ff 	movabs $0x7fffffffffffffff,%rcx
    74df:	ff ff 7f 
    74e2:	48 2b 4c 24 18       	sub    0x18(%rsp),%rcx
    74e7:	48 39 c8             	cmp    %rcx,%rax
    74ea:	0f 87 23 01 00 00    	ja     7613 <_Z6exist2PciPKcS1_+0x1d3>
    74f0:	48 89 c2             	mov    %rax,%rdx
    74f3:	4c 89 ee             	mov    %r13,%rsi
    74f6:	48 89 df             	mov    %rbx,%rdi
    74f9:	e8 a2 d1 ff ff       	callq  46a0 <_ZNSt7__cxx1112basic_stringIcSt11char_traitsIcESaIcEE9_M_appendEPKcm@plt>
    74fe:	4c 89 e7             	mov    %r12,%rdi
    7501:	e8 ea d1 ff ff       	callq  46f0 <strlen@plt>
    7506:	48 b9 ff ff ff ff ff 	movabs $0x7fffffffffffffff,%rcx
    750d:	ff ff 7f 
    7510:	48 2b 4c 24 18       	sub    0x18(%rsp),%rcx
    7515:	48 39 c8             	cmp    %rcx,%rax
    7518:	0f 87 cb 00 00 00    	ja     75e9 <_Z6exist2PciPKcS1_+0x1a9>
    751e:	48 89 c2             	mov    %rax,%rdx
    7521:	4c 89 e6             	mov    %r12,%rsi
    7524:	48 89 df             	mov    %rbx,%rdi
    7527:	e8 74 d1 ff ff       	callq  46a0 <_ZNSt7__cxx1112basic_stringIcSt11char_traitsIcESaIcEE9_M_appendEPKcm@plt>
    752c:	48 8b 7c 24 10       	mov    0x10(%rsp),%rdi
    7531:	e8 2a f6 ff ff       	callq  6b60 <_Z5existPKc>
    7536:	84 c0                	test   %al,%al
    7538:	75 5c                	jne    7596 <_Z6exist2PciPKcS1_+0x156>
    753a:	48 b8 ff ff ff ff ff 	movabs $0x7fffffffffffffff,%rax
    7541:	ff ff 7f 
    7544:	48 2b 44 24 18       	sub    0x18(%rsp),%rax
    7549:	48 83 f8 02          	cmp    $0x2,%rax
    754d:	0f 86 ed 00 00 00    	jbe    7640 <_Z6exist2PciPKcS1_+0x200>
    7553:	48 8d 35 c4 9c 00 00 	lea    0x9cc4(%rip),%rsi        # 1121e <_IO_stdin_used+0xe1e>
    755a:	ba 03 00 00 00       	mov    $0x3,%edx
    755f:	48 89 df             	mov    %rbx,%rdi
    7562:	e8 39 d1 ff ff       	callq  46a0 <_ZNSt7__cxx1112basic_stringIcSt11char_traitsIcESaIcEE9_M_appendEPKcm@plt>
    7567:	48 8b 7c 24 10       	mov    0x10(%rsp),%rdi
    756c:	e8 ef f5 ff ff       	callq  6b60 <_Z5existPKc>
    7571:	84 c0                	test   %al,%al
    7573:	74 6b                	je     75e0 <_Z6exist2PciPKcS1_+0x1a0>
    7575:	48 8b 4c 24 18       	mov    0x18(%rsp),%rcx
    757a:	48 8d 51 fd          	lea    -0x3(%rcx),%rdx
    757e:	48 39 ca             	cmp    %rcx,%rdx
    7581:	0f 87 a4 00 00 00    	ja     762b <_Z6exist2PciPKcS1_+0x1eb>
    7587:	48 8b 44 24 10       	mov    0x10(%rsp),%rax
    758c:	48 89 54 24 18       	mov    %rdx,0x18(%rsp)
    7591:	c6 44 08 fd 00       	movb   $0x0,-0x3(%rax,%rcx,1)
    7596:	48 8b 7c 24 10       	mov    0x10(%rsp),%rdi
    759b:	e8 60 d0 ff ff       	callq  4600 <_Z8mystrdupPKc@plt>
    75a0:	48 8b 7c 24 10       	mov    0x10(%rsp),%rdi
    75a5:	48 83 c3 10          	add    $0x10,%rbx
    75a9:	48 39 df             	cmp    %rbx,%rdi
    75ac:	74 0f                	je     75bd <_Z6exist2PciPKcS1_+0x17d>
    75ae:	48 89 44 24 08       	mov    %rax,0x8(%rsp)
    75b3:	e8 48 d2 ff ff       	callq  4800 <_ZdlPv@plt>
    75b8:	48 8b 44 24 08       	mov    0x8(%rsp),%rax
    75bd:	48 8b 54 24 38       	mov    0x38(%rsp),%rdx
    75c2:	64 48 33 14 25 28 00 	xor    %fs:0x28,%rdx
    75c9:	00 00 
    75cb:	75 17                	jne    75e4 <_Z6exist2PciPKcS1_+0x1a4>
    75cd:	48 83 c4 48          	add    $0x48,%rsp
    75d1:	5b                   	pop    %rbx
    75d2:	5d                   	pop    %rbp
    75d3:	41 5c                	pop    %r12
    75d5:	41 5d                	pop    %r13
    75d7:	c3                   	retq   
    75d8:	0f 1f 84 00 00 00 00 	nopl   0x0(%rax,%rax,1)
    75df:	00 
    75e0:	31 c0                	xor    %eax,%eax
    75e2:	eb bc                	jmp    75a0 <_Z6exist2PciPKcS1_+0x160>
    75e4:	e8 a7 d2 ff ff       	callq  4890 <__stack_chk_fail@plt>
    75e9:	48 8d 3d fc 9b 00 00 	lea    0x9bfc(%rip),%rdi        # 111ec <_IO_stdin_used+0xdec>
    75f0:	e8 2b d1 ff ff       	callq  4720 <_ZSt20__throw_length_errorPKc@plt>
    75f5:	48 8b 7c 24 10       	mov    0x10(%rsp),%rdi
    75fa:	48 83 c3 10          	add    $0x10,%rbx
    75fe:	48 89 c5             	mov    %rax,%rbp
    7601:	48 39 df             	cmp    %rbx,%rdi
    7604:	74 05                	je     760b <_Z6exist2PciPKcS1_+0x1cb>
    7606:	e8 f5 d1 ff ff       	callq  4800 <_ZdlPv@plt>
    760b:	48 89 ef             	mov    %rbp,%rdi
    760e:	e8 fd d4 ff ff       	callq  4b10 <_Unwind_Resume@plt>
    7613:	48 8d 3d d2 9b 00 00 	lea    0x9bd2(%rip),%rdi        # 111ec <_IO_stdin_used+0xdec>
    761a:	e8 01 d1 ff ff       	callq  4720 <_ZSt20__throw_length_errorPKc@plt>
    761f:	48 8d 3d c6 9b 00 00 	lea    0x9bc6(%rip),%rdi        # 111ec <_IO_stdin_used+0xdec>
    7626:	e8 f5 d0 ff ff       	callq  4720 <_ZSt20__throw_length_errorPKc@plt>
    762b:	48 8d 35 cf 9b 00 00 	lea    0x9bcf(%rip),%rsi        # 11201 <_IO_stdin_used+0xe01>
    7632:	48 8d 3d ff 8d 00 00 	lea    0x8dff(%rip),%rdi        # 10438 <_IO_stdin_used+0x38>
    7639:	31 c0                	xor    %eax,%eax
    763b:	e8 00 d4 ff ff       	callq  4a40 <_ZSt24__throw_out_of_range_fmtPKcz@plt>
    7640:	48 8d 3d a5 9b 00 00 	lea    0x9ba5(%rip),%rdi        # 111ec <_IO_stdin_used+0xdec>
    7647:	e8 d4 d0 ff ff       	callq  4720 <_ZSt20__throw_length_errorPKc@plt>
    764c:	0f 1f 40 00          	nopl   0x0(%rax)

0000000000007650 <_Z11listdicpathPci>:
    7650:	41 57                	push   %r15
    7652:	41 56                	push   %r14
    7654:	48 89 f9             	mov    %rdi,%rcx
    7657:	41 55                	push   %r13
    7659:	41 54                	push   %r12
    765b:	4c 63 c6             	movslq %esi,%r8
    765e:	55                   	push   %rbp
    765f:	53                   	push   %rbx
    7660:	48 8d 1d ad 9d 00 00 	lea    0x9dad(%rip),%rbx        # 11414 <_IO_stdin_used+0x1014>
    7667:	48 83 ec 38          	sub    $0x38,%rsp
    766b:	49 89 e6             	mov    %rsp,%r14
    766e:	48 c7 44 24 08 00 00 	movq   $0x0,0x8(%rsp)
    7675:	00 00 
    7677:	c6 44 24 10 00       	movb   $0x0,0x10(%rsp)
    767c:	64 48 8b 04 25 28 00 	mov    %fs:0x28,%rax
    7683:	00 00 
    7685:	48 89 44 24 28       	mov    %rax,0x28(%rsp)
    768a:	31 c0                	xor    %eax,%eax
    768c:	49 8d 46 10          	lea    0x10(%r14),%rax
    7690:	85 f6                	test   %esi,%esi
    7692:	4c 89 f7             	mov    %r14,%rdi
    7695:	48 89 04 24          	mov    %rax,(%rsp)
    7699:	48 8d 05 f9 a3 00 00 	lea    0xa3f9(%rip),%rax        # 11a99 <_ZTS9ManParser+0x19>
    76a0:	48 0f 45 d8          	cmovne %rax,%rbx
    76a4:	31 d2                	xor    %edx,%edx
    76a6:	31 f6                	xor    %esi,%esi
    76a8:	e8 b3 d3 ff ff       	callq  4a60 <_ZNSt7__cxx1112basic_stringIcSt11char_traitsIcESaIcEE10_M_replaceEmmPKcm@plt>
    76ad:	48 89 df             	mov    %rbx,%rdi
    76b0:	e8 3b d0 ff ff       	callq  46f0 <strlen@plt>
    76b5:	48 b9 ff ff ff ff ff 	movabs $0x7fffffffffffffff,%rcx
    76bc:	ff ff 7f 
    76bf:	48 2b 4c 24 08       	sub    0x8(%rsp),%rcx
    76c4:	48 39 c8             	cmp    %rcx,%rax
    76c7:	0f 87 37 01 00 00    	ja     7804 <_Z11listdicpathPci+0x1b4>
    76cd:	48 89 c2             	mov    %rax,%rdx
    76d0:	48 89 de             	mov    %rbx,%rsi
    76d3:	4c 89 f7             	mov    %r14,%rdi
    76d6:	e8 c5 cf ff ff       	callq  46a0 <_ZNSt7__cxx1112basic_stringIcSt11char_traitsIcESaIcEE9_M_appendEPKcm@plt>
    76db:	48 8b 3c 24          	mov    (%rsp),%rdi
    76df:	e8 4c d3 ff ff       	callq  4a30 <opendir@plt>
    76e4:	48 85 c0             	test   %rax,%rax
    76e7:	49 89 c4             	mov    %rax,%r12
    76ea:	0f 84 10 01 00 00    	je     7800 <_Z11listdicpathPci+0x1b0>
    76f0:	4c 8d 3d 2b 9b 00 00 	lea    0x9b2b(%rip),%r15        # 11222 <_IO_stdin_used+0xe22>
    76f7:	4c 89 e7             	mov    %r12,%rdi
    76fa:	e8 51 d3 ff ff       	callq  4a50 <readdir@plt>
    76ff:	48 85 c0             	test   %rax,%rax
    7702:	0f 84 ae 00 00 00    	je     77b6 <_Z11listdicpathPci+0x166>
    7708:	48 8d 68 13          	lea    0x13(%rax),%rbp
    770c:	48 89 ef             	mov    %rbp,%rdi
    770f:	e8 dc cf ff ff       	callq  46f0 <strlen@plt>
    7714:	83 f8 04             	cmp    $0x4,%eax
    7717:	48 89 c3             	mov    %rax,%rbx
    771a:	7e db                	jle    76f7 <_Z11listdicpathPci+0xa7>
    771c:	4c 63 e8             	movslq %eax,%r13
    771f:	48 8d 3d ef 9a 00 00 	lea    0x9aef(%rip),%rdi        # 11215 <_IO_stdin_used+0xe15>
    7726:	b9 05 00 00 00       	mov    $0x5,%ecx
    772b:	4a 8d 74 2d fc       	lea    -0x4(%rbp,%r13,1),%rsi
    7730:	f3 a6                	repz cmpsb %es:(%rdi),%ds:(%rsi)
    7732:	0f 97 c0             	seta   %al
    7735:	1c 00                	sbb    $0x0,%al
    7737:	84 c0                	test   %al,%al
    7739:	74 21                	je     775c <_Z11listdicpathPci+0x10c>
    773b:	83 fb 07             	cmp    $0x7,%ebx
    773e:	7e b7                	jle    76f7 <_Z11listdicpathPci+0xa7>
    7740:	4a 8d 74 2d f9       	lea    -0x7(%rbp,%r13,1),%rsi
    7745:	48 8d 3d ce 9a 00 00 	lea    0x9ace(%rip),%rdi        # 1121a <_IO_stdin_used+0xe1a>
    774c:	b9 08 00 00 00       	mov    $0x8,%ecx
    7751:	f3 a6                	repz cmpsb %es:(%rdi),%ds:(%rsi)
    7753:	0f 97 c0             	seta   %al
    7756:	1c 00                	sbb    $0x0,%al
    7758:	84 c0                	test   %al,%al
    775a:	75 9b                	jne    76f7 <_Z11listdicpathPci+0xa7>
    775c:	48 89 ef             	mov    %rbp,%rdi
    775f:	e8 9c ce ff ff       	callq  4600 <_Z8mystrdupPKc@plt>
    7764:	48 89 c5             	mov    %rax,%rbp
    7767:	31 c0                	xor    %eax,%eax
    7769:	4c 89 fa             	mov    %r15,%rdx
    776c:	42 80 7c 2d ff 7a    	cmpb   $0x7a,-0x1(%rbp,%r13,1)
    7772:	49 89 e8             	mov    %rbp,%r8
    7775:	be 01 00 00 00       	mov    $0x1,%esi
    777a:	0f 94 c0             	sete   %al
    777d:	8d 44 40 04          	lea    0x4(%rax,%rax,2),%eax
    7781:	29 c3                	sub    %eax,%ebx
    7783:	31 c0                	xor    %eax,%eax
    7785:	48 63 db             	movslq %ebx,%rbx
    7788:	c6 44 1d 00 00       	movb   $0x0,0x0(%rbp,%rbx,1)
    778d:	48 8b 0c 24          	mov    (%rsp),%rcx
    7791:	48 8b 3d 68 da 20 00 	mov    0x20da68(%rip),%rdi        # 215200 <stderr@@GLIBC_2.2.5>
    7798:	e8 43 d3 ff ff       	callq  4ae0 <__fprintf_chk@plt>
    779d:	48 89 ef             	mov    %rbp,%rdi
    77a0:	e8 ab d1 ff ff       	callq  4950 <free@plt>
    77a5:	4c 89 e7             	mov    %r12,%rdi
    77a8:	e8 a3 d2 ff ff       	callq  4a50 <readdir@plt>
    77ad:	48 85 c0             	test   %rax,%rax
    77b0:	0f 85 52 ff ff ff    	jne    7708 <_Z11listdicpathPci+0xb8>
    77b6:	4c 89 e7             	mov    %r12,%rdi
    77b9:	e8 e2 d2 ff ff       	callq  4aa0 <closedir@plt>
    77be:	bb 01 00 00 00       	mov    $0x1,%ebx
    77c3:	48 8b 3c 24          	mov    (%rsp),%rdi
    77c7:	49 83 c6 10          	add    $0x10,%r14
    77cb:	4c 39 f7             	cmp    %r14,%rdi
    77ce:	74 05                	je     77d5 <_Z11listdicpathPci+0x185>
    77d0:	e8 2b d0 ff ff       	callq  4800 <_ZdlPv@plt>
    77d5:	48 8b 54 24 28       	mov    0x28(%rsp),%rdx
    77da:	64 48 33 14 25 28 00 	xor    %fs:0x28,%rdx
    77e1:	00 00 
    77e3:	89 d8                	mov    %ebx,%eax
    77e5:	75 46                	jne    782d <_Z11listdicpathPci+0x1dd>
    77e7:	48 83 c4 38          	add    $0x38,%rsp
    77eb:	5b                   	pop    %rbx
    77ec:	5d                   	pop    %rbp
    77ed:	41 5c                	pop    %r12
    77ef:	41 5d                	pop    %r13
    77f1:	41 5e                	pop    %r14
    77f3:	41 5f                	pop    %r15
    77f5:	c3                   	retq   
    77f6:	66 2e 0f 1f 84 00 00 	nopw   %cs:0x0(%rax,%rax,1)
    77fd:	00 00 00 
    7800:	31 db                	xor    %ebx,%ebx
    7802:	eb bf                	jmp    77c3 <_Z11listdicpathPci+0x173>
    7804:	48 8d 3d e1 99 00 00 	lea    0x99e1(%rip),%rdi        # 111ec <_IO_stdin_used+0xdec>
    780b:	e8 10 cf ff ff       	callq  4720 <_ZSt20__throw_length_errorPKc@plt>
    7810:	48 8b 3c 24          	mov    (%rsp),%rdi
    7814:	49 83 c6 10          	add    $0x10,%r14
    7818:	48 89 c3             	mov    %rax,%rbx
    781b:	4c 39 f7             	cmp    %r14,%rdi
    781e:	74 05                	je     7825 <_Z11listdicpathPci+0x1d5>
    7820:	e8 db cf ff ff       	callq  4800 <_ZdlPv@plt>
    7825:	48 89 df             	mov    %rbx,%rdi
    7828:	e8 e3 d2 ff ff       	callq  4b10 <_Unwind_Resume@plt>
    782d:	e8 5e d0 ff ff       	callq  4890 <__stack_chk_fail@plt>
    7832:	0f 1f 40 00          	nopl   0x0(%rax)
    7836:	66 2e 0f 1f 84 00 00 	nopw   %cs:0x0(%rax,%rax,1)
    783d:	00 00 00 

0000000000007840 <_Z6searchPcS_PKc>:
    7840:	41 54                	push   %r12
    7842:	49 89 d4             	mov    %rdx,%r12
    7845:	55                   	push   %rbp
    7846:	48 89 f5             	mov    %rsi,%rbp
    7849:	53                   	push   %rbx
    784a:	48 8d 5f 01          	lea    0x1(%rdi),%rbx
    784e:	eb 1d                	jmp    786d <_Z6searchPcS_PKc+0x2d>
    7850:	4c 89 e1             	mov    %r12,%rcx
    7853:	48 89 ea             	mov    %rbp,%rdx
    7856:	e8 e5 fb ff ff       	callq  7440 <_Z6exist2PciPKcS1_>
    785b:	80 7b ff 00          	cmpb   $0x0,-0x1(%rbx)
    785f:	74 31                	je     7892 <_Z6searchPcS_PKc+0x52>
    7861:	48 85 c0             	test   %rax,%rax
    7864:	75 2c                	jne    7892 <_Z6searchPcS_PKc+0x52>
    7866:	48 89 df             	mov    %rbx,%rdi
    7869:	48 83 c3 01          	add    $0x1,%rbx
    786d:	0f b6 43 ff          	movzbl -0x1(%rbx),%eax
    7871:	3c 3a                	cmp    $0x3a,%al
    7873:	74 04                	je     7879 <_Z6searchPcS_PKc+0x39>
    7875:	84 c0                	test   %al,%al
    7877:	75 f0                	jne    7869 <_Z6searchPcS_PKc+0x29>
    7879:	48 8d 73 ff          	lea    -0x1(%rbx),%rsi
    787d:	48 29 fe             	sub    %rdi,%rsi
    7880:	48 85 ed             	test   %rbp,%rbp
    7883:	75 cb                	jne    7850 <_Z6searchPcS_PKc+0x10>
    7885:	e8 c6 fd ff ff       	callq  7650 <_Z11listdicpathPci>
    788a:	80 7b ff 00          	cmpb   $0x0,-0x1(%rbx)
    788e:	75 d6                	jne    7866 <_Z6searchPcS_PKc+0x26>
    7890:	31 c0                	xor    %eax,%eax
    7892:	5b                   	pop    %rbx
    7893:	5d                   	pop    %rbp
    7894:	41 5c                	pop    %r12
    7896:	c3                   	retq   
    7897:	66 0f 1f 84 00 00 00 	nopw   0x0(%rax,%rax,1)
    789e:	00 00 

00000000000078a0 <_ZSt16__introsort_loopIN9__gnu_cxx17__normal_iteratorIP6w_charSt6vectorIS2_SaIS2_EEEElNS0_5__ops15_Iter_less_iterEEvT_SA_T0_T1_.isra.89>:
    78a0:	41 57                	push   %r15
    78a2:	41 56                	push   %r14
    78a4:	41 55                	push   %r13
    78a6:	49 89 d5             	mov    %rdx,%r13
    78a9:	41 54                	push   %r12
    78ab:	48 89 f2             	mov    %rsi,%rdx
    78ae:	55                   	push   %rbp
    78af:	53                   	push   %rbx
    78b0:	48 29 fa             	sub    %rdi,%rdx
    78b3:	48 83 ec 18          	sub    $0x18,%rsp
    78b7:	48 83 fa 20          	cmp    $0x20,%rdx
    78bb:	0f 8e 46 02 00 00    	jle    7b07 <_ZSt16__introsort_loopIN9__gnu_cxx17__normal_iteratorIP6w_charSt6vectorIS2_SaIS2_EEEElNS0_5__ops15_Iter_less_iterEEvT_SA_T0_T1_.isra.89+0x267>
    78c1:	4d 85 ed             	test   %r13,%r13
    78c4:	48 89 fd             	mov    %rdi,%rbp
    78c7:	49 89 f4             	mov    %rsi,%r12
    78ca:	0f 84 b7 01 00 00    	je     7a87 <_ZSt16__introsort_loopIN9__gnu_cxx17__normal_iteratorIP6w_charSt6vectorIS2_SaIS2_EEEElNS0_5__ops15_Iter_less_iterEEvT_SA_T0_T1_.isra.89+0x1e7>
    78d0:	48 8d 47 02          	lea    0x2(%rdi),%rax
    78d4:	48 89 f3             	mov    %rsi,%rbx
    78d7:	48 89 44 24 08       	mov    %rax,0x8(%rsp)
    78dc:	48 29 eb             	sub    %rbp,%rbx
    78df:	0f b6 4d 03          	movzbl 0x3(%rbp),%ecx
    78e3:	0f b6 55 02          	movzbl 0x2(%rbp),%edx
    78e7:	48 d1 fb             	sar    %rbx
    78ea:	44 0f b6 46 fe       	movzbl -0x2(%rsi),%r8d
    78ef:	49 83 ed 01          	sub    $0x1,%r13
    78f3:	48 89 d8             	mov    %rbx,%rax
    78f6:	44 0f b6 4d 00       	movzbl 0x0(%rbp),%r9d
    78fb:	44 0f b6 55 01       	movzbl 0x1(%rbp),%r10d
    7900:	48 c1 e8 3f          	shr    $0x3f,%rax
    7904:	48 01 c3             	add    %rax,%rbx
    7907:	c1 e1 08             	shl    $0x8,%ecx
    790a:	48 83 e3 fe          	and    $0xfffffffffffffffe,%rbx
    790e:	01 d1                	add    %edx,%ecx
    7910:	48 8d 44 1d 00       	lea    0x0(%rbp,%rbx,1),%rax
    7915:	0f b6 50 01          	movzbl 0x1(%rax),%edx
    7919:	0f b6 38             	movzbl (%rax),%edi
    791c:	c1 e2 08             	shl    $0x8,%edx
    791f:	01 fa                	add    %edi,%edx
    7921:	0f b6 7e ff          	movzbl -0x1(%rsi),%edi
    7925:	c1 e7 08             	shl    $0x8,%edi
    7928:	44 01 c7             	add    %r8d,%edi
    792b:	66 39 d1             	cmp    %dx,%cx
    792e:	0f 83 e4 00 00 00    	jae    7a18 <_ZSt16__introsort_loopIN9__gnu_cxx17__normal_iteratorIP6w_charSt6vectorIS2_SaIS2_EEEElNS0_5__ops15_Iter_less_iterEEvT_SA_T0_T1_.isra.89+0x178>
    7934:	66 39 fa             	cmp    %di,%dx
    7937:	0f 82 d9 01 00 00    	jb     7b16 <_ZSt16__introsort_loopIN9__gnu_cxx17__normal_iteratorIP6w_charSt6vectorIS2_SaIS2_EEEElNS0_5__ops15_Iter_less_iterEEvT_SA_T0_T1_.isra.89+0x276>
    793d:	66 39 f9             	cmp    %di,%cx
    7940:	0f 82 e4 00 00 00    	jb     7a2a <_ZSt16__introsort_loopIN9__gnu_cxx17__normal_iteratorIP6w_charSt6vectorIS2_SaIS2_EEEElNS0_5__ops15_Iter_less_iterEEvT_SA_T0_T1_.isra.89+0x18a>
    7946:	0f b7 45 02          	movzwl 0x2(%rbp),%eax
    794a:	44 88 4d 02          	mov    %r9b,0x2(%rbp)
    794e:	44 88 55 03          	mov    %r10b,0x3(%rbp)
    7952:	66 89 45 00          	mov    %ax,0x0(%rbp)
    7956:	44 0f b6 46 fe       	movzbl -0x2(%rsi),%r8d
    795b:	44 0f b6 7e ff       	movzbl -0x1(%rsi),%r15d
    7960:	44 0f b6 75 01       	movzbl 0x1(%rbp),%r14d
    7965:	44 0f b6 5d 00       	movzbl 0x0(%rbp),%r11d
    796a:	48 89 f0             	mov    %rsi,%rax
    796d:	48 8b 5c 24 08       	mov    0x8(%rsp),%rbx
    7972:	41 0f b6 c8          	movzbl %r8b,%ecx
    7976:	66 2e 0f 1f 84 00 00 	nopw   %cs:0x0(%rax,%rax,1)
    797d:	00 00 00 
    7980:	45 89 f0             	mov    %r14d,%r8d
    7983:	44 89 d2             	mov    %r10d,%edx
    7986:	41 0f b6 f9          	movzbl %r9b,%edi
    798a:	41 c1 e0 08          	shl    $0x8,%r8d
    798e:	c1 e2 08             	shl    $0x8,%edx
    7991:	49 89 dc             	mov    %rbx,%r12
    7994:	45 01 d8             	add    %r11d,%r8d
    7997:	01 fa                	add    %edi,%edx
    7999:	66 44 39 c2          	cmp    %r8w,%dx
    799d:	72 63                	jb     7a02 <_ZSt16__introsort_loopIN9__gnu_cxx17__normal_iteratorIP6w_charSt6vectorIS2_SaIS2_EEEElNS0_5__ops15_Iter_less_iterEEvT_SA_T0_T1_.isra.89+0x162>
    799f:	41 c1 e7 08          	shl    $0x8,%r15d
    79a3:	48 8d 50 fe          	lea    -0x2(%rax),%rdx
    79a7:	41 01 cf             	add    %ecx,%r15d
    79aa:	66 45 39 f8          	cmp    %r15w,%r8w
    79ae:	0f 83 9c 00 00 00    	jae    7a50 <_ZSt16__introsort_loopIN9__gnu_cxx17__normal_iteratorIP6w_charSt6vectorIS2_SaIS2_EEEElNS0_5__ops15_Iter_less_iterEEvT_SA_T0_T1_.isra.89+0x1b0>
    79b4:	48 8d 78 fc          	lea    -0x4(%rax),%rdi
    79b8:	0f 1f 84 00 00 00 00 	nopl   0x0(%rax,%rax,1)
    79bf:	00 
    79c0:	48 89 f8             	mov    %rdi,%rax
    79c3:	48 83 ef 02          	sub    $0x2,%rdi
    79c7:	0f b6 50 01          	movzbl 0x1(%rax),%edx
    79cb:	0f b6 08             	movzbl (%rax),%ecx
    79ce:	c1 e2 08             	shl    $0x8,%edx
    79d1:	01 ca                	add    %ecx,%edx
    79d3:	66 41 39 d0          	cmp    %dx,%r8w
    79d7:	72 e7                	jb     79c0 <_ZSt16__introsort_loopIN9__gnu_cxx17__normal_iteratorIP6w_charSt6vectorIS2_SaIS2_EEEElNS0_5__ops15_Iter_less_iterEEvT_SA_T0_T1_.isra.89+0x120>
    79d9:	48 39 c3             	cmp    %rax,%rbx
    79dc:	0f 83 7e 00 00 00    	jae    7a60 <_ZSt16__introsort_loopIN9__gnu_cxx17__normal_iteratorIP6w_charSt6vectorIS2_SaIS2_EEEElNS0_5__ops15_Iter_less_iterEEvT_SA_T0_T1_.isra.89+0x1c0>
    79e2:	0f b7 10             	movzwl (%rax),%edx
    79e5:	66 89 13             	mov    %dx,(%rbx)
    79e8:	44 88 08             	mov    %r9b,(%rax)
    79eb:	44 88 50 01          	mov    %r10b,0x1(%rax)
    79ef:	0f b6 48 fe          	movzbl -0x2(%rax),%ecx
    79f3:	44 0f b6 78 ff       	movzbl -0x1(%rax),%r15d
    79f8:	44 0f b6 75 01       	movzbl 0x1(%rbp),%r14d
    79fd:	44 0f b6 5d 00       	movzbl 0x0(%rbp),%r11d
    7a02:	44 0f b6 4b 02       	movzbl 0x2(%rbx),%r9d
    7a07:	44 0f b6 53 03       	movzbl 0x3(%rbx),%r10d
    7a0c:	48 83 c3 02          	add    $0x2,%rbx
    7a10:	e9 6b ff ff ff       	jmpq   7980 <_ZSt16__introsort_loopIN9__gnu_cxx17__normal_iteratorIP6w_charSt6vectorIS2_SaIS2_EEEElNS0_5__ops15_Iter_less_iterEEvT_SA_T0_T1_.isra.89+0xe0>
    7a15:	0f 1f 00             	nopl   (%rax)
    7a18:	66 39 f9             	cmp    %di,%cx
    7a1b:	0f 82 25 ff ff ff    	jb     7946 <_ZSt16__introsort_loopIN9__gnu_cxx17__normal_iteratorIP6w_charSt6vectorIS2_SaIS2_EEEElNS0_5__ops15_Iter_less_iterEEvT_SA_T0_T1_.isra.89+0xa6>
    7a21:	66 39 fa             	cmp    %di,%dx
    7a24:	0f 83 ec 00 00 00    	jae    7b16 <_ZSt16__introsort_loopIN9__gnu_cxx17__normal_iteratorIP6w_charSt6vectorIS2_SaIS2_EEEElNS0_5__ops15_Iter_less_iterEEvT_SA_T0_T1_.isra.89+0x276>
    7a2a:	0f b7 46 fe          	movzwl -0x2(%rsi),%eax
    7a2e:	45 89 d7             	mov    %r10d,%r15d
    7a31:	45 89 c8             	mov    %r9d,%r8d
    7a34:	66 89 45 00          	mov    %ax,0x0(%rbp)
    7a38:	44 88 4e fe          	mov    %r9b,-0x2(%rsi)
    7a3c:	44 88 56 ff          	mov    %r10b,-0x1(%rsi)
    7a40:	44 0f b6 55 03       	movzbl 0x3(%rbp),%r10d
    7a45:	44 0f b6 4d 02       	movzbl 0x2(%rbp),%r9d
    7a4a:	e9 11 ff ff ff       	jmpq   7960 <_ZSt16__introsort_loopIN9__gnu_cxx17__normal_iteratorIP6w_charSt6vectorIS2_SaIS2_EEEElNS0_5__ops15_Iter_less_iterEEvT_SA_T0_T1_.isra.89+0xc0>
    7a4f:	90                   	nop
    7a50:	48 89 d0             	mov    %rdx,%rax
    7a53:	48 39 c3             	cmp    %rax,%rbx
    7a56:	0f 82 86 ff ff ff    	jb     79e2 <_ZSt16__introsort_loopIN9__gnu_cxx17__normal_iteratorIP6w_charSt6vectorIS2_SaIS2_EEEElNS0_5__ops15_Iter_less_iterEEvT_SA_T0_T1_.isra.89+0x142>
    7a5c:	0f 1f 40 00          	nopl   0x0(%rax)
    7a60:	4c 89 ea             	mov    %r13,%rdx
    7a63:	48 89 df             	mov    %rbx,%rdi
    7a66:	e8 35 fe ff ff       	callq  78a0 <_ZSt16__introsort_loopIN9__gnu_cxx17__normal_iteratorIP6w_charSt6vectorIS2_SaIS2_EEEElNS0_5__ops15_Iter_less_iterEEvT_SA_T0_T1_.isra.89>
    7a6b:	48 89 da             	mov    %rbx,%rdx
    7a6e:	48 29 ea             	sub    %rbp,%rdx
    7a71:	48 83 fa 20          	cmp    $0x20,%rdx
    7a75:	0f 8e 8c 00 00 00    	jle    7b07 <_ZSt16__introsort_loopIN9__gnu_cxx17__normal_iteratorIP6w_charSt6vectorIS2_SaIS2_EEEElNS0_5__ops15_Iter_less_iterEEvT_SA_T0_T1_.isra.89+0x267>
    7a7b:	4d 85 ed             	test   %r13,%r13
    7a7e:	48 89 de             	mov    %rbx,%rsi
    7a81:	0f 85 55 fe ff ff    	jne    78dc <_ZSt16__introsort_loopIN9__gnu_cxx17__normal_iteratorIP6w_charSt6vectorIS2_SaIS2_EEEElNS0_5__ops15_Iter_less_iterEEvT_SA_T0_T1_.isra.89+0x3c>
    7a87:	48 89 d3             	mov    %rdx,%rbx
    7a8a:	48 d1 fb             	sar    %rbx
    7a8d:	4c 8d 6b fe          	lea    -0x2(%rbx),%r13
    7a91:	49 d1 fd             	sar    %r13
    7a94:	eb 0e                	jmp    7aa4 <_ZSt16__introsort_loopIN9__gnu_cxx17__normal_iteratorIP6w_charSt6vectorIS2_SaIS2_EEEElNS0_5__ops15_Iter_less_iterEEvT_SA_T0_T1_.isra.89+0x204>
    7a96:	66 2e 0f 1f 84 00 00 	nopw   %cs:0x0(%rax,%rax,1)
    7a9d:	00 00 00 
    7aa0:	49 83 ed 01          	sub    $0x1,%r13
    7aa4:	42 0f b7 4c 6d 00    	movzwl 0x0(%rbp,%r13,2),%ecx
    7aaa:	48 83 ec 08          	sub    $0x8,%rsp
    7aae:	4c 89 ee             	mov    %r13,%rsi
    7ab1:	6a 00                	pushq  $0x0
    7ab3:	48 89 da             	mov    %rbx,%rdx
    7ab6:	48 89 ef             	mov    %rbp,%rdi
    7ab9:	e8 d2 4b 00 00       	callq  c690 <_ZSt13__adjust_heapIN9__gnu_cxx17__normal_iteratorIP6w_charSt6vectorIS2_SaIS2_EEEElS2_NS0_5__ops15_Iter_less_iterEEvT_T0_SB_T1_T2_>
    7abe:	4d 85 ed             	test   %r13,%r13
    7ac1:	59                   	pop    %rcx
    7ac2:	5e                   	pop    %rsi
    7ac3:	75 db                	jne    7aa0 <_ZSt16__introsort_loopIN9__gnu_cxx17__normal_iteratorIP6w_charSt6vectorIS2_SaIS2_EEEElNS0_5__ops15_Iter_less_iterEEvT_SA_T0_T1_.isra.89+0x200>
    7ac5:	49 83 ec 02          	sub    $0x2,%r12
    7ac9:	0f 1f 80 00 00 00 00 	nopl   0x0(%rax)
    7ad0:	0f b7 45 00          	movzwl 0x0(%rbp),%eax
    7ad4:	41 0f b7 0c 24       	movzwl (%r12),%ecx
    7ad9:	4c 89 e3             	mov    %r12,%rbx
    7adc:	48 83 ec 08          	sub    $0x8,%rsp
    7ae0:	48 29 eb             	sub    %rbp,%rbx
    7ae3:	31 f6                	xor    %esi,%esi
    7ae5:	48 89 da             	mov    %rbx,%rdx
    7ae8:	48 89 ef             	mov    %rbp,%rdi
    7aeb:	49 83 ec 02          	sub    $0x2,%r12
    7aef:	48 d1 fa             	sar    %rdx
    7af2:	66 41 89 44 24 02    	mov    %ax,0x2(%r12)
    7af8:	6a 00                	pushq  $0x0
    7afa:	e8 91 4b 00 00       	callq  c690 <_ZSt13__adjust_heapIN9__gnu_cxx17__normal_iteratorIP6w_charSt6vectorIS2_SaIS2_EEEElS2_NS0_5__ops15_Iter_less_iterEEvT_T0_SB_T1_T2_>
    7aff:	48 83 fb 02          	cmp    $0x2,%rbx
    7b03:	58                   	pop    %rax
    7b04:	5a                   	pop    %rdx
    7b05:	7f c9                	jg     7ad0 <_ZSt16__introsort_loopIN9__gnu_cxx17__normal_iteratorIP6w_charSt6vectorIS2_SaIS2_EEEElNS0_5__ops15_Iter_less_iterEEvT_SA_T0_T1_.isra.89+0x230>
    7b07:	48 83 c4 18          	add    $0x18,%rsp
    7b0b:	5b                   	pop    %rbx
    7b0c:	5d                   	pop    %rbp
    7b0d:	41 5c                	pop    %r12
    7b0f:	41 5d                	pop    %r13
    7b11:	41 5e                	pop    %r14
    7b13:	41 5f                	pop    %r15
    7b15:	c3                   	retq   
    7b16:	0f b7 10             	movzwl (%rax),%edx
    7b19:	66 89 55 00          	mov    %dx,0x0(%rbp)
    7b1d:	44 88 08             	mov    %r9b,(%rax)
    7b20:	44 88 50 01          	mov    %r10b,0x1(%rax)
    7b24:	44 0f b6 46 fe       	movzbl -0x2(%rsi),%r8d
    7b29:	44 0f b6 4d 02       	movzbl 0x2(%rbp),%r9d
    7b2e:	44 0f b6 55 03       	movzbl 0x3(%rbp),%r10d
    7b33:	44 0f b6 7e ff       	movzbl -0x1(%rsi),%r15d
    7b38:	e9 23 fe ff ff       	jmpq   7960 <_ZSt16__introsort_loopIN9__gnu_cxx17__normal_iteratorIP6w_charSt6vectorIS2_SaIS2_EEEElNS0_5__ops15_Iter_less_iterEEvT_SA_T0_T1_.isra.89+0xc0>
    7b3d:	0f 1f 00             	nopl   (%rax)

0000000000007b40 <_Z10get_parseriPKcP8Hunspell>:
    7b40:	41 57                	push   %r15
    7b42:	41 56                	push   %r14
    7b44:	41 55                	push   %r13
    7b46:	41 54                	push   %r12
    7b48:	55                   	push   %rbp
    7b49:	53                   	push   %rbx
    7b4a:	48 81 ec f8 20 00 00 	sub    $0x20f8,%rsp
    7b51:	89 7c 24 5c          	mov    %edi,0x5c(%rsp)
    7b55:	48 89 d7             	mov    %rdx,%rdi
    7b58:	48 89 74 24 60       	mov    %rsi,0x60(%rsp)
    7b5d:	48 89 54 24 50       	mov    %rdx,0x50(%rsp)
    7b62:	64 48 8b 04 25 28 00 	mov    %fs:0x28,%rax
    7b69:	00 00 
    7b6b:	48 89 84 24 e8 20 00 	mov    %rax,0x20e8(%rsp)
    7b72:	00 
    7b73:	31 c0                	xor    %eax,%eax
    7b75:	e8 86 cb ff ff       	callq  4700 <_ZNK8Hunspell17get_dict_encodingB5cxx11Ev@plt>
    7b7a:	48 8b 00             	mov    (%rax),%rax
    7b7d:	48 89 44 24 40       	mov    %rax,0x40(%rsp)
    7b82:	e8 f9 cc ff ff       	callq  4880 <_Z18initialize_utf_tblv@plt>
    7b87:	48 8b 05 02 d7 20 00 	mov    0x20d702(%rip),%rax        # 215290 <io_enc>
    7b8e:	48 85 c0             	test   %rax,%rax
    7b91:	0f 84 11 06 00 00    	je     81a8 <_Z10get_parseriPKcP8Hunspell+0x668>
    7b97:	48 8d 3d 44 96 00 00 	lea    0x9644(%rip),%rdi        # 111e2 <_IO_stdin_used+0xde2>
    7b9e:	b9 06 00 00 00       	mov    $0x6,%ecx
    7ba3:	48 89 c6             	mov    %rax,%rsi
    7ba6:	48 89 7c 24 48       	mov    %rdi,0x48(%rsp)
    7bab:	f3 a6                	repz cmpsb %es:(%rdi),%ds:(%rsi)
    7bad:	0f 97 c2             	seta   %dl
    7bb0:	80 da 00             	sbb    $0x0,%dl
    7bb3:	84 d2                	test   %dl,%dl
    7bb5:	0f 85 35 02 00 00    	jne    7df0 <_Z10get_parseriPKcP8Hunspell+0x2b0>
    7bbb:	48 8b 44 24 48       	mov    0x48(%rsp),%rax
    7bc0:	48 89 05 c9 d6 20 00 	mov    %rax,0x20d6c9(%rip)        # 215290 <io_enc>
    7bc7:	4c 8b 7c 24 50       	mov    0x50(%rsp),%r15
    7bcc:	4c 89 ff             	mov    %r15,%rdi
    7bcf:	e8 4c ce ff ff       	callq  4a20 <_ZNK8Hunspell19get_wordchars_utf16Ev@plt>
    7bd4:	4c 89 ff             	mov    %r15,%rdi
    7bd7:	48 89 c3             	mov    %rax,%rbx
    7bda:	e8 c1 cc ff ff       	callq  48a0 <_ZNK8Hunspell17get_wordchars_cppB5cxx11Ev@plt>
    7bdf:	48 8b 0b             	mov    (%rbx),%rcx
    7be2:	48 8b 53 08          	mov    0x8(%rbx),%rdx
    7be6:	48 8b 74 24 40       	mov    0x40(%rsp),%rsi
    7beb:	48 8b 7c 24 48       	mov    0x48(%rsp),%rdi
    7bf0:	48 29 ca             	sub    %rcx,%rdx
    7bf3:	48 d1 fa             	sar    %rdx
    7bf6:	85 d2                	test   %edx,%edx
    7bf8:	89 15 da d6 20 00    	mov    %edx,0x20d6da(%rip)        # 2152d8 <wordchars_utf16_len>
    7bfe:	ba 00 00 00 00       	mov    $0x0,%edx
    7c03:	48 0f 44 ca          	cmove  %rdx,%rcx
    7c07:	48 89 0d ea d6 20 00 	mov    %rcx,0x20d6ea(%rip)        # 2152f8 <wordchars_utf16>
    7c0e:	b9 06 00 00 00       	mov    $0x6,%ecx
    7c13:	f3 a6                	repz cmpsb %es:(%rdi),%ds:(%rsi)
    7c15:	0f 97 c2             	seta   %dl
    7c18:	80 da 00             	sbb    $0x0,%dl
    7c1b:	84 d2                	test   %dl,%dl
    7c1d:	0f 84 ad 01 00 00    	je     7dd0 <_Z10get_parseriPKcP8Hunspell+0x290>
    7c23:	48 8b 50 08          	mov    0x8(%rax),%rdx
    7c27:	48 85 d2             	test   %rdx,%rdx
    7c2a:	0f 84 a0 01 00 00    	je     7dd0 <_Z10get_parseriPKcP8Hunspell+0x290>
    7c30:	48 8b 00             	mov    (%rax),%rax
    7c33:	48 8b 74 24 40       	mov    0x40(%rsp),%rsi
    7c38:	48 8d 1d 01 d7 20 00 	lea    0x20d701(%rip),%rbx        # 215340 <text_conv>
    7c3f:	48 8d 3d 3d 95 00 00 	lea    0x953d(%rip),%rdi        # 11183 <_IO_stdin_used+0xd83>
    7c46:	48 89 94 24 80 00 00 	mov    %rdx,0x80(%rsp)
    7c4d:	00 
    7c4e:	48 c7 84 24 88 00 00 	movq   $0x2000,0x88(%rsp)
    7c55:	00 00 20 00 00 
    7c5a:	48 89 9c 24 90 00 00 	mov    %rbx,0x90(%rsp)
    7c61:	00 
    7c62:	b9 0c 00 00 00       	mov    $0xc,%ecx
    7c67:	48 89 44 24 78       	mov    %rax,0x78(%rsp)
    7c6c:	f3 a6                	repz cmpsb %es:(%rdi),%ds:(%rsi)
    7c6e:	48 8d 35 07 95 00 00 	lea    0x9507(%rip),%rsi        # 1117c <_IO_stdin_used+0xd7c>
    7c75:	48 8d 3d 66 95 00 00 	lea    0x9566(%rip),%rdi        # 111e2 <_IO_stdin_used+0xde2>
    7c7c:	0f 97 c0             	seta   %al
    7c7f:	1c 00                	sbb    $0x0,%al
    7c81:	84 c0                	test   %al,%al
    7c83:	48 0f 45 74 24 40    	cmovne 0x40(%rsp),%rsi
    7c89:	e8 d2 ca ff ff       	callq  4760 <iconv_open@plt>
    7c8e:	48 83 f8 ff          	cmp    $0xffffffffffffffff,%rax
    7c92:	48 89 c5             	mov    %rax,%rbp
    7c95:	0f 84 69 06 00 00    	je     8304 <_Z10get_parseriPKcP8Hunspell+0x7c4>
    7c9b:	48 8d 94 24 80 00 00 	lea    0x80(%rsp),%rdx
    7ca2:	00 
    7ca3:	48 8d 74 24 78       	lea    0x78(%rsp),%rsi
    7ca8:	48 8d 8c 24 90 00 00 	lea    0x90(%rsp),%rcx
    7caf:	00 
    7cb0:	4c 8d 84 24 88 00 00 	lea    0x88(%rsp),%r8
    7cb7:	00 
    7cb8:	48 89 c7             	mov    %rax,%rdi
    7cbb:	e8 60 ce ff ff       	callq  4b20 <iconv@plt>
    7cc0:	48 89 ef             	mov    %rbp,%rdi
    7cc3:	48 8d ac 24 b0 00 00 	lea    0xb0(%rsp),%rbp
    7cca:	00 
    7ccb:	e8 b0 ca ff ff       	callq  4780 <iconv_close@plt>
    7cd0:	48 8d 45 10          	lea    0x10(%rbp),%rax
    7cd4:	48 89 de             	mov    %rbx,%rsi
    7cd7:	48 89 da             	mov    %rbx,%rdx
    7cda:	48 89 84 24 b0 00 00 	mov    %rax,0xb0(%rsp)
    7ce1:	00 
    7ce2:	8b 0a                	mov    (%rdx),%ecx
    7ce4:	48 83 c2 04          	add    $0x4,%rdx
    7ce8:	8d 81 ff fe fe fe    	lea    -0x1010101(%rcx),%eax
    7cee:	f7 d1                	not    %ecx
    7cf0:	21 c8                	and    %ecx,%eax
    7cf2:	25 80 80 80 80       	and    $0x80808080,%eax
    7cf7:	74 e9                	je     7ce2 <_Z10get_parseriPKcP8Hunspell+0x1a2>
    7cf9:	89 c1                	mov    %eax,%ecx
    7cfb:	48 89 ef             	mov    %rbp,%rdi
    7cfe:	c1 e9 10             	shr    $0x10,%ecx
    7d01:	a9 80 80 00 00       	test   $0x8080,%eax
    7d06:	0f 44 c1             	cmove  %ecx,%eax
    7d09:	48 8d 4a 02          	lea    0x2(%rdx),%rcx
    7d0d:	48 0f 44 d1          	cmove  %rcx,%rdx
    7d11:	89 c1                	mov    %eax,%ecx
    7d13:	00 c1                	add    %al,%cl
    7d15:	48 83 da 03          	sbb    $0x3,%rdx
    7d19:	48 29 f2             	sub    %rsi,%rdx
    7d1c:	48 8d 35 1d d6 20 00 	lea    0x20d61d(%rip),%rsi        # 215340 <text_conv>
    7d23:	48 01 da             	add    %rbx,%rdx
    7d26:	e8 a5 e4 ff ff       	callq  61d0 <_ZNSt7__cxx1112basic_stringIcSt11char_traitsIcESaIcEE12_M_constructIPKcEEvT_S8_St20forward_iterator_tag.isra.52>
    7d2b:	48 8d 3d ae d5 20 00 	lea    0x20d5ae(%rip),%rdi        # 2152e0 <new_wordchars_utf16>
    7d32:	48 89 ee             	mov    %rbp,%rsi
    7d35:	e8 96 ce ff ff       	callq  4bd0 <_Z6u8_u16RSt6vectorI6w_charSaIS0_EERKNSt7__cxx1112basic_stringIcSt11char_traitsIcESaIcEEE@plt>
    7d3a:	48 8b bc 24 b0 00 00 	mov    0xb0(%rsp),%rdi
    7d41:	00 
    7d42:	48 83 c5 10          	add    $0x10,%rbp
    7d46:	48 39 ef             	cmp    %rbp,%rdi
    7d49:	74 05                	je     7d50 <_Z10get_parseriPKcP8Hunspell+0x210>
    7d4b:	e8 b0 ca ff ff       	callq  4800 <_ZdlPv@plt>
    7d50:	48 8b 2d 91 d5 20 00 	mov    0x20d591(%rip),%rbp        # 2152e8 <new_wordchars_utf16+0x8>
    7d57:	48 8b 1d 82 d5 20 00 	mov    0x20d582(%rip),%rbx        # 2152e0 <new_wordchars_utf16>
    7d5e:	49 89 ec             	mov    %rbp,%r12
    7d61:	49 29 dc             	sub    %rbx,%r12
    7d64:	4c 89 e0             	mov    %r12,%rax
    7d67:	48 d1 f8             	sar    %rax
    7d6a:	48 39 dd             	cmp    %rbx,%rbp
    7d6d:	74 51                	je     7dc0 <_Z10get_parseriPKcP8Hunspell+0x280>
    7d6f:	48 0f bd c0          	bsr    %rax,%rax
    7d73:	ba 3f 00 00 00       	mov    $0x3f,%edx
    7d78:	48 89 ee             	mov    %rbp,%rsi
    7d7b:	48 83 f0 3f          	xor    $0x3f,%rax
    7d7f:	48 89 df             	mov    %rbx,%rdi
    7d82:	48 98                	cltq   
    7d84:	48 29 c2             	sub    %rax,%rdx
    7d87:	48 01 d2             	add    %rdx,%rdx
    7d8a:	e8 11 fb ff ff       	callq  78a0 <_ZSt16__introsort_loopIN9__gnu_cxx17__normal_iteratorIP6w_charSt6vectorIS2_SaIS2_EEEElNS0_5__ops15_Iter_less_iterEEvT_SA_T0_T1_.isra.89>
    7d8f:	49 83 fc 20          	cmp    $0x20,%r12
    7d93:	0f 8f 1a 07 00 00    	jg     84b3 <_Z10get_parseriPKcP8Hunspell+0x973>
    7d99:	48 83 ec 08          	sub    $0x8,%rsp
    7d9d:	48 89 df             	mov    %rbx,%rdi
    7da0:	48 89 ee             	mov    %rbp,%rsi
    7da3:	6a 00                	pushq  $0x0
    7da5:	e8 e6 47 00 00       	callq  c590 <_ZSt16__insertion_sortIN9__gnu_cxx17__normal_iteratorIP6w_charSt6vectorIS2_SaIS2_EEEENS0_5__ops15_Iter_less_iterEEvT_SA_T0_>
    7daa:	48 8b 1d 2f d5 20 00 	mov    0x20d52f(%rip),%rbx        # 2152e0 <new_wordchars_utf16>
    7db1:	48 8b 05 30 d5 20 00 	mov    0x20d530(%rip),%rax        # 2152e8 <new_wordchars_utf16+0x8>
    7db8:	5a                   	pop    %rdx
    7db9:	59                   	pop    %rcx
    7dba:	48 29 d8             	sub    %rbx,%rax
    7dbd:	48 d1 f8             	sar    %rax
    7dc0:	48 89 1d 31 d5 20 00 	mov    %rbx,0x20d531(%rip)        # 2152f8 <wordchars_utf16>
    7dc7:	89 05 0b d5 20 00    	mov    %eax,0x20d50b(%rip)        # 2152d8 <wordchars_utf16_len>
    7dcd:	0f 1f 00             	nopl   (%rax)
    7dd0:	8b 44 24 5c          	mov    0x5c(%rsp),%eax
    7dd4:	83 f8 06             	cmp    $0x6,%eax
    7dd7:	0f 87 7c 07 00 00    	ja     8559 <_Z10get_parseriPKcP8Hunspell+0xa19>
    7ddd:	48 8d 15 30 97 00 00 	lea    0x9730(%rip),%rdx        # 11514 <_IO_stdin_used+0x1114>
    7de4:	48 63 04 82          	movslq (%rdx,%rax,4),%rax
    7de8:	48 01 d0             	add    %rdx,%rax
    7deb:	ff e0                	jmpq   *%rax
    7ded:	0f 1f 00             	nopl   (%rax)
    7df0:	48 8d 3d 31 94 00 00 	lea    0x9431(%rip),%rdi        # 11228 <_IO_stdin_used+0xe28>
    7df7:	b9 06 00 00 00       	mov    $0x6,%ecx
    7dfc:	48 89 c6             	mov    %rax,%rsi
    7dff:	f3 a6                	repz cmpsb %es:(%rdi),%ds:(%rsi)
    7e01:	0f 97 c2             	seta   %dl
    7e04:	80 da 00             	sbb    $0x0,%dl
    7e07:	84 d2                	test   %dl,%dl
    7e09:	0f 84 ac fd ff ff    	je     7bbb <_Z10get_parseriPKcP8Hunspell+0x7b>
    7e0f:	48 8d 3d 18 94 00 00 	lea    0x9418(%rip),%rdi        # 1122e <_IO_stdin_used+0xe2e>
    7e16:	b9 05 00 00 00       	mov    $0x5,%ecx
    7e1b:	48 89 c6             	mov    %rax,%rsi
    7e1e:	f3 a6                	repz cmpsb %es:(%rdi),%ds:(%rsi)
    7e20:	0f 97 c2             	seta   %dl
    7e23:	80 da 00             	sbb    $0x0,%dl
    7e26:	84 d2                	test   %dl,%dl
    7e28:	0f 84 8d fd ff ff    	je     7bbb <_Z10get_parseriPKcP8Hunspell+0x7b>
    7e2e:	48 8d 3d fe 93 00 00 	lea    0x93fe(%rip),%rdi        # 11233 <_IO_stdin_used+0xe33>
    7e35:	b9 05 00 00 00       	mov    $0x5,%ecx
    7e3a:	48 89 c6             	mov    %rax,%rsi
    7e3d:	f3 a6                	repz cmpsb %es:(%rdi),%ds:(%rsi)
    7e3f:	0f 97 c2             	seta   %dl
    7e42:	80 da 00             	sbb    $0x0,%dl
    7e45:	84 d2                	test   %dl,%dl
    7e47:	0f 84 6e fd ff ff    	je     7bbb <_Z10get_parseriPKcP8Hunspell+0x7b>
    7e4d:	48 8d 3d 2f 93 00 00 	lea    0x932f(%rip),%rdi        # 11183 <_IO_stdin_used+0xd83>
    7e54:	48 89 c6             	mov    %rax,%rsi
    7e57:	c6 84 24 e0 00 00 00 	movb   $0x0,0xe0(%rsp)
    7e5e:	00 
    7e5f:	b9 0c 00 00 00       	mov    $0xc,%ecx
    7e64:	f3 a6                	repz cmpsb %es:(%rdi),%ds:(%rsi)
    7e66:	48 8d 3d 75 93 00 00 	lea    0x9375(%rip),%rdi        # 111e2 <_IO_stdin_used+0xde2>
    7e6d:	0f 97 c2             	seta   %dl
    7e70:	80 da 00             	sbb    $0x0,%dl
    7e73:	84 d2                	test   %dl,%dl
    7e75:	48 8d 15 00 93 00 00 	lea    0x9300(%rip),%rdx        # 1117c <_IO_stdin_used+0xd7c>
    7e7c:	48 0f 44 c2          	cmove  %rdx,%rax
    7e80:	48 89 c6             	mov    %rax,%rsi
    7e83:	e8 d8 c8 ff ff       	callq  4760 <iconv_open@plt>
    7e88:	48 83 f8 ff          	cmp    $0xffffffffffffffff,%rax
    7e8c:	49 89 c5             	mov    %rax,%r13
    7e8f:	0f 84 66 08 00 00    	je     86fb <_Z10get_parseriPKcP8Hunspell+0xbbb>
    7e95:	48 8d 84 24 e0 00 00 	lea    0xe0(%rsp),%rax
    7e9c:	00 
    7e9d:	48 8d ac 24 d6 00 00 	lea    0xd6(%rsp),%rbp
    7ea4:	00 
    7ea5:	4c 8d b4 24 d4 00 00 	lea    0xd4(%rsp),%r14
    7eac:	00 
    7ead:	4c 8d bc 24 c0 00 00 	lea    0xc0(%rsp),%r15
    7eb4:	00 
    7eb5:	bb 20 00 00 00       	mov    $0x20,%ebx
    7eba:	48 89 44 24 68       	mov    %rax,0x68(%rsp)
    7ebf:	48 89 44 24 30       	mov    %rax,0x30(%rsp)
    7ec4:	48 8d 84 24 88 00 00 	lea    0x88(%rsp),%rax
    7ecb:	00 
    7ecc:	48 89 44 24 20       	mov    %rax,0x20(%rsp)
    7ed1:	48 8d 84 24 80 00 00 	lea    0x80(%rsp),%rax
    7ed8:	00 
    7ed9:	48 89 44 24 18       	mov    %rax,0x18(%rsp)
    7ede:	48 8d 44 24 78       	lea    0x78(%rsp),%rax
    7ee3:	48 89 44 24 10       	mov    %rax,0x10(%rsp)
    7ee8:	48 8d 44 24 70       	lea    0x70(%rsp),%rax
    7eed:	48 89 44 24 08       	mov    %rax,0x8(%rsp)
    7ef2:	48 8d 84 24 b0 00 00 	lea    0xb0(%rsp),%rax
    7ef9:	00 
    7efa:	48 89 44 24 28       	mov    %rax,0x28(%rsp)
    7eff:	48 8d 84 24 90 00 00 	lea    0x90(%rsp),%rax
    7f06:	00 
    7f07:	48 89 44 24 38       	mov    %rax,0x38(%rsp)
    7f0c:	0f 1f 40 00          	nopl   0x0(%rax)
    7f10:	4c 8b 44 24 10       	mov    0x10(%rsp),%r8
    7f15:	48 8b 4c 24 18       	mov    0x18(%rsp),%rcx
    7f1a:	4c 89 ef             	mov    %r13,%rdi
    7f1d:	48 8b 54 24 08       	mov    0x8(%rsp),%rdx
    7f22:	48 8b 74 24 20       	mov    0x20(%rsp),%rsi
    7f27:	41 89 dc             	mov    %ebx,%r12d
    7f2a:	48 c7 44 24 70 01 00 	movq   $0x1,0x70(%rsp)
    7f31:	00 00 
    7f33:	48 c7 44 24 78 0a 00 	movq   $0xa,0x78(%rsp)
    7f3a:	00 00 
    7f3c:	48 89 ac 24 80 00 00 	mov    %rbp,0x80(%rsp)
    7f43:	00 
    7f44:	c6 84 24 d6 00 00 00 	movb   $0x0,0xd6(%rsp)
    7f4b:	00 
    7f4c:	4c 89 b4 24 88 00 00 	mov    %r14,0x88(%rsp)
    7f53:	00 
    7f54:	88 9c 24 d4 00 00 00 	mov    %bl,0xd4(%rsp)
    7f5b:	c6 84 24 d5 00 00 00 	movb   $0x0,0xd5(%rsp)
    7f62:	00 
    7f63:	e8 b8 cb ff ff       	callq  4b20 <iconv@plt>
    7f68:	48 83 f8 ff          	cmp    $0xffffffffffffffff,%rax
    7f6c:	0f 84 b1 00 00 00    	je     8023 <_Z10get_parseriPKcP8Hunspell+0x4e3>
    7f72:	48 8b 94 24 80 00 00 	mov    0x80(%rsp),%rdx
    7f79:	00 
    7f7a:	48 8b 7c 24 28       	mov    0x28(%rsp),%rdi
    7f7f:	48 89 ee             	mov    %rbp,%rsi
    7f82:	48 c7 84 24 90 00 00 	movq   $0x0,0x90(%rsp)
    7f89:	00 00 00 00 00 
    7f8e:	48 c7 84 24 98 00 00 	movq   $0x0,0x98(%rsp)
    7f95:	00 00 00 00 00 
    7f9a:	48 c7 84 24 a0 00 00 	movq   $0x0,0xa0(%rsp)
    7fa1:	00 00 00 00 00 
    7fa6:	4c 89 bc 24 b0 00 00 	mov    %r15,0xb0(%rsp)
    7fad:	00 
    7fae:	e8 1d e2 ff ff       	callq  61d0 <_ZNSt7__cxx1112basic_stringIcSt11char_traitsIcESaIcEE12_M_constructIPKcEEvT_S8_St20forward_iterator_tag.isra.52>
    7fb3:	48 8b 74 24 28       	mov    0x28(%rsp),%rsi
    7fb8:	48 8b 7c 24 38       	mov    0x38(%rsp),%rdi
    7fbd:	e8 0e cc ff ff       	callq  4bd0 <_Z6u8_u16RSt6vectorI6w_charSaIS0_EERKNSt7__cxx1112basic_stringIcSt11char_traitsIcESaIcEEE@plt>
    7fc2:	48 8b bc 24 b0 00 00 	mov    0xb0(%rsp),%rdi
    7fc9:	00 
    7fca:	4c 39 ff             	cmp    %r15,%rdi
    7fcd:	74 05                	je     7fd4 <_Z10get_parseriPKcP8Hunspell+0x494>
    7fcf:	e8 2c c8 ff ff       	callq  4800 <_ZdlPv@plt>
    7fd4:	48 8b 84 24 90 00 00 	mov    0x90(%rsp),%rax
    7fdb:	00 
    7fdc:	31 ff                	xor    %edi,%edi
    7fde:	48 3b 84 24 98 00 00 	cmp    0x98(%rsp),%rax
    7fe5:	00 
    7fe6:	74 0f                	je     7ff7 <_Z10get_parseriPKcP8Hunspell+0x4b7>
    7fe8:	0f b6 78 01          	movzbl 0x1(%rax),%edi
    7fec:	0f b6 00             	movzbl (%rax),%eax
    7fef:	c1 e7 08             	shl    $0x8,%edi
    7ff2:	01 c7                	add    %eax,%edi
    7ff4:	0f b7 ff             	movzwl %di,%edi
    7ff7:	e8 74 c7 ff ff       	callq  4770 <_Z14unicodeisalphat@plt>
    7ffc:	85 c0                	test   %eax,%eax
    7ffe:	74 11                	je     8011 <_Z10get_parseriPKcP8Hunspell+0x4d1>
    8000:	48 8b 44 24 30       	mov    0x30(%rsp),%rax
    8005:	44 88 20             	mov    %r12b,(%rax)
    8008:	48 83 c0 01          	add    $0x1,%rax
    800c:	48 89 44 24 30       	mov    %rax,0x30(%rsp)
    8011:	48 8b bc 24 90 00 00 	mov    0x90(%rsp),%rdi
    8018:	00 
    8019:	48 85 ff             	test   %rdi,%rdi
    801c:	74 05                	je     8023 <_Z10get_parseriPKcP8Hunspell+0x4e3>
    801e:	e8 dd c7 ff ff       	callq  4800 <_ZdlPv@plt>
    8023:	83 c3 01             	add    $0x1,%ebx
    8026:	81 fb 00 01 00 00    	cmp    $0x100,%ebx
    802c:	0f 85 de fe ff ff    	jne    7f10 <_Z10get_parseriPKcP8Hunspell+0x3d0>
    8032:	4c 89 ef             	mov    %r13,%rdi
    8035:	e8 46 c7 ff ff       	callq  4780 <iconv_close@plt>
    803a:	48 8b 44 24 30       	mov    0x30(%rsp),%rax
    803f:	48 8b 7c 24 50       	mov    0x50(%rsp),%rdi
    8044:	c6 00 00             	movb   $0x0,(%rax)
    8047:	e8 54 c8 ff ff       	callq  48a0 <_ZNK8Hunspell17get_wordchars_cppB5cxx11Ev@plt>
    804c:	48 8b 50 08          	mov    0x8(%rax),%rdx
    8050:	48 89 c3             	mov    %rax,%rbx
    8053:	48 85 d2             	test   %rdx,%rdx
    8056:	0f 84 1a 01 00 00    	je     8176 <_Z10get_parseriPKcP8Hunspell+0x636>
    805c:	48 8b 74 24 40       	mov    0x40(%rsp),%rsi
    8061:	48 8b 7c 24 48       	mov    0x48(%rsp),%rdi
    8066:	b9 06 00 00 00       	mov    $0x6,%ecx
    806b:	f3 a6                	repz cmpsb %es:(%rdi),%ds:(%rsi)
    806d:	0f 97 c0             	seta   %al
    8070:	1c 00                	sbb    $0x0,%al
    8072:	84 c0                	test   %al,%al
    8074:	0f 84 cc 06 00 00    	je     8746 <_Z10get_parseriPKcP8Hunspell+0xc06>
    807a:	48 8b 4c 24 68       	mov    0x68(%rsp),%rcx
    807f:	8b 31                	mov    (%rcx),%esi
    8081:	48 83 c1 04          	add    $0x4,%rcx
    8085:	8d 86 ff fe fe fe    	lea    -0x1010101(%rsi),%eax
    808b:	f7 d6                	not    %esi
    808d:	21 f0                	and    %esi,%eax
    808f:	25 80 80 80 80       	and    $0x80808080,%eax
    8094:	74 e9                	je     807f <_Z10get_parseriPKcP8Hunspell+0x53f>
    8096:	89 c6                	mov    %eax,%esi
    8098:	48 8d 3d e4 90 00 00 	lea    0x90e4(%rip),%rdi        # 11183 <_IO_stdin_used+0xd83>
    809f:	4c 8d 05 d6 90 00 00 	lea    0x90d6(%rip),%r8        # 1117c <_IO_stdin_used+0xd7c>
    80a6:	c1 ee 10             	shr    $0x10,%esi
    80a9:	a9 80 80 00 00       	test   $0x8080,%eax
    80ae:	0f 44 c6             	cmove  %esi,%eax
    80b1:	48 8d 71 02          	lea    0x2(%rcx),%rsi
    80b5:	48 0f 44 ce          	cmove  %rsi,%rcx
    80b9:	89 c6                	mov    %eax,%esi
    80bb:	40 00 c6             	add    %al,%sil
    80be:	48 8b 74 24 40       	mov    0x40(%rsp),%rsi
    80c3:	48 83 d9 03          	sbb    $0x3,%rcx
    80c7:	48 83 c2 01          	add    $0x1,%rdx
    80cb:	48 89 4c 24 78       	mov    %rcx,0x78(%rsp)
    80d0:	48 89 94 24 80 00 00 	mov    %rdx,0x80(%rsp)
    80d7:	00 
    80d8:	b9 0c 00 00 00       	mov    $0xc,%ecx
    80dd:	48 89 94 24 88 00 00 	mov    %rdx,0x88(%rsp)
    80e4:	00 
    80e5:	f3 a6                	repz cmpsb %es:(%rdi),%ds:(%rsi)
    80e7:	48 8b 74 24 40       	mov    0x40(%rsp),%rsi
    80ec:	48 8d 3d 90 90 00 00 	lea    0x9090(%rip),%rdi        # 11183 <_IO_stdin_used+0xd83>
    80f3:	b9 0c 00 00 00       	mov    $0xc,%ecx
    80f8:	0f 97 c0             	seta   %al
    80fb:	1c 00                	sbb    $0x0,%al
    80fd:	84 c0                	test   %al,%al
    80ff:	48 8b 05 8a d1 20 00 	mov    0x20d18a(%rip),%rax        # 215290 <io_enc>
    8106:	49 0f 44 f0          	cmove  %r8,%rsi
    810a:	49 89 f1             	mov    %rsi,%r9
    810d:	48 89 c6             	mov    %rax,%rsi
    8110:	f3 a6                	repz cmpsb %es:(%rdi),%ds:(%rsi)
    8112:	4c 89 ce             	mov    %r9,%rsi
    8115:	0f 97 c2             	seta   %dl
    8118:	80 da 00             	sbb    $0x0,%dl
    811b:	84 d2                	test   %dl,%dl
    811d:	49 0f 44 c0          	cmove  %r8,%rax
    8121:	48 89 c7             	mov    %rax,%rdi
    8124:	e8 37 c6 ff ff       	callq  4760 <iconv_open@plt>
    8129:	48 83 f8 ff          	cmp    $0xffffffffffffffff,%rax
    812d:	48 89 c5             	mov    %rax,%rbp
    8130:	0f 84 e9 04 00 00    	je     861f <_Z10get_parseriPKcP8Hunspell+0xadf>
    8136:	48 8b 03             	mov    (%rbx),%rax
    8139:	48 8d 4c 24 78       	lea    0x78(%rsp),%rcx
    813e:	48 8d 94 24 80 00 00 	lea    0x80(%rsp),%rdx
    8145:	00 
    8146:	48 8d b4 24 90 00 00 	lea    0x90(%rsp),%rsi
    814d:	00 
    814e:	4c 8d 84 24 88 00 00 	lea    0x88(%rsp),%r8
    8155:	00 
    8156:	48 89 ef             	mov    %rbp,%rdi
    8159:	48 89 84 24 90 00 00 	mov    %rax,0x90(%rsp)
    8160:	00 
    8161:	e8 ba c9 ff ff       	callq  4b20 <iconv@plt>
    8166:	48 89 ef             	mov    %rbp,%rdi
    8169:	e8 12 c6 ff ff       	callq  4780 <iconv_close@plt>
    816e:	48 8b 44 24 78       	mov    0x78(%rsp),%rax
    8173:	c6 00 00             	movb   $0x0,(%rax)
    8176:	80 bc 24 e0 00 00 00 	cmpb   $0x0,0xe0(%rsp)
    817d:	00 
    817e:	0f 85 d0 02 00 00    	jne    8454 <_Z10get_parseriPKcP8Hunspell+0x914>
    8184:	8b 44 24 5c          	mov    0x5c(%rsp),%eax
    8188:	83 f8 06             	cmp    $0x6,%eax
    818b:	0f 87 87 04 00 00    	ja     8618 <_Z10get_parseriPKcP8Hunspell+0xad8>
    8191:	48 8d 15 98 93 00 00 	lea    0x9398(%rip),%rdx        # 11530 <_IO_stdin_used+0x1130>
    8198:	48 63 04 82          	movslq (%rdx,%rax,4),%rax
    819c:	48 01 d0             	add    %rdx,%rax
    819f:	ff e0                	jmpq   *%rax
    81a1:	0f 1f 80 00 00 00 00 	nopl   0x0(%rax)
    81a8:	48 8b 05 e9 d0 20 00 	mov    0x20d0e9(%rip),%rax        # 215298 <ui_enc>
    81af:	48 85 c0             	test   %rax,%rax
    81b2:	0f 84 65 02 00 00    	je     841d <_Z10get_parseriPKcP8Hunspell+0x8dd>
    81b8:	48 8d 3d 23 90 00 00 	lea    0x9023(%rip),%rdi        # 111e2 <_IO_stdin_used+0xde2>
    81bf:	48 89 05 ca d0 20 00 	mov    %rax,0x20d0ca(%rip)        # 215290 <io_enc>
    81c6:	b9 06 00 00 00       	mov    $0x6,%ecx
    81cb:	48 89 c6             	mov    %rax,%rsi
    81ce:	48 89 7c 24 48       	mov    %rdi,0x48(%rsp)
    81d3:	f3 a6                	repz cmpsb %es:(%rdi),%ds:(%rsi)
    81d5:	0f 97 c2             	seta   %dl
    81d8:	80 da 00             	sbb    $0x0,%dl
    81db:	84 d2                	test   %dl,%dl
    81dd:	0f 85 6a fc ff ff    	jne    7e4d <_Z10get_parseriPKcP8Hunspell+0x30d>
    81e3:	e9 df f9 ff ff       	jmpq   7bc7 <_Z10get_parseriPKcP8Hunspell+0x87>
    81e8:	bf 10 01 00 00       	mov    $0x110,%edi
    81ed:	e8 3e c6 ff ff       	callq  4830 <_Znwm@plt>
    81f2:	8b 15 e0 d0 20 00    	mov    0x20d0e0(%rip),%edx        # 2152d8 <wordchars_utf16_len>
    81f8:	48 8b 35 f9 d0 20 00 	mov    0x20d0f9(%rip),%rsi        # 2152f8 <wordchars_utf16>
    81ff:	48 89 c7             	mov    %rax,%rdi
    8202:	48 89 c3             	mov    %rax,%rbx
    8205:	e8 56 81 00 00       	callq  10360 <_ZN9ODFParserC1EPK6w_chari>
    820a:	66 0f 1f 44 00 00    	nopw   0x0(%rax,%rax,1)
    8210:	8b 35 92 d0 20 00    	mov    0x20d092(%rip),%esi        # 2152a8 <checkurl>
    8216:	48 89 df             	mov    %rbx,%rdi
    8219:	e8 32 6a 00 00       	callq  ec50 <_ZN10TextParser16set_url_checkingEi>
    821e:	48 8b 8c 24 e8 20 00 	mov    0x20e8(%rsp),%rcx
    8225:	00 
    8226:	64 48 33 0c 25 28 00 	xor    %fs:0x28,%rcx
    822d:	00 00 
    822f:	48 89 d8             	mov    %rbx,%rax
    8232:	0f 85 a9 07 00 00    	jne    89e1 <_Z10get_parseriPKcP8Hunspell+0xea1>
    8238:	48 81 c4 f8 20 00 00 	add    $0x20f8,%rsp
    823f:	5b                   	pop    %rbx
    8240:	5d                   	pop    %rbp
    8241:	41 5c                	pop    %r12
    8243:	41 5d                	pop    %r13
    8245:	41 5e                	pop    %r14
    8247:	41 5f                	pop    %r15
    8249:	c3                   	retq   
    824a:	bf 10 01 00 00       	mov    $0x110,%edi
    824f:	e8 dc c5 ff ff       	callq  4830 <_Znwm@plt>
    8254:	8b 15 7e d0 20 00    	mov    0x20d07e(%rip),%edx        # 2152d8 <wordchars_utf16_len>
    825a:	48 8b 35 97 d0 20 00 	mov    0x20d097(%rip),%rsi        # 2152f8 <wordchars_utf16>
    8261:	48 89 c7             	mov    %rax,%rdi
    8264:	48 89 c3             	mov    %rax,%rbx
    8267:	e8 84 49 00 00       	callq  cbf0 <_ZN9XMLParserC1EPK6w_chari>
    826c:	eb a2                	jmp    8210 <_Z10get_parseriPKcP8Hunspell+0x6d0>
    826e:	48 8b 2d ab d0 20 00 	mov    0x20d0ab(%rip),%rbp        # 215320 <_Z9wordcharsB5cxx11>
    8275:	bf f8 00 00 00       	mov    $0xf8,%edi
    827a:	e8 b1 c5 ff ff       	callq  4830 <_Znwm@plt>
    827f:	48 89 c7             	mov    %rax,%rdi
    8282:	48 89 c3             	mov    %rax,%rbx
    8285:	48 89 ee             	mov    %rbp,%rsi
    8288:	e8 f3 47 00 00       	callq  ca80 <_ZN11FirstParserC1EPKc>
    828d:	eb 81                	jmp    8210 <_Z10get_parseriPKcP8Hunspell+0x6d0>
    828f:	bf f8 00 00 00       	mov    $0xf8,%edi
    8294:	e8 97 c5 ff ff       	callq  4830 <_Znwm@plt>
    8299:	8b 15 39 d0 20 00    	mov    0x20d039(%rip),%edx        # 2152d8 <wordchars_utf16_len>
    829f:	48 8b 35 52 d0 20 00 	mov    0x20d052(%rip),%rsi        # 2152f8 <wordchars_utf16>
    82a6:	48 89 c7             	mov    %rax,%rdi
    82a9:	48 89 c3             	mov    %rax,%rbx
    82ac:	e8 cf 60 00 00       	callq  e380 <_ZN9ManParserC1EPK6w_chari>
    82b1:	e9 5a ff ff ff       	jmpq   8210 <_Z10get_parseriPKcP8Hunspell+0x6d0>
    82b6:	bf 10 01 00 00       	mov    $0x110,%edi
    82bb:	e8 70 c5 ff ff       	callq  4830 <_Znwm@plt>
    82c0:	8b 15 12 d0 20 00    	mov    0x20d012(%rip),%edx        # 2152d8 <wordchars_utf16_len>
    82c6:	48 8b 35 2b d0 20 00 	mov    0x20d02b(%rip),%rsi        # 2152f8 <wordchars_utf16>
    82cd:	48 89 c7             	mov    %rax,%rdi
    82d0:	48 89 c3             	mov    %rax,%rbx
    82d3:	e8 88 7f 00 00       	callq  10260 <_ZN10HTMLParserC1EPK6w_chari>
    82d8:	e9 33 ff ff ff       	jmpq   8210 <_Z10get_parseriPKcP8Hunspell+0x6d0>
    82dd:	bf 08 01 00 00       	mov    $0x108,%edi
    82e2:	e8 49 c5 ff ff       	callq  4830 <_Znwm@plt>
    82e7:	8b 15 eb cf 20 00    	mov    0x20cfeb(%rip),%edx        # 2152d8 <wordchars_utf16_len>
    82ed:	48 8b 35 04 d0 20 00 	mov    0x20d004(%rip),%rsi        # 2152f8 <wordchars_utf16>
    82f4:	48 89 c7             	mov    %rax,%rdi
    82f7:	48 89 c3             	mov    %rax,%rbx
    82fa:	e8 11 57 00 00       	callq  da10 <_ZN11LaTeXParserC1EPK6w_chari>
    82ff:	e9 0c ff ff ff       	jmpq   8210 <_Z10get_parseriPKcP8Hunspell+0x6d0>
    8304:	48 8d 3d 65 81 00 00 	lea    0x8165(%rip),%rdi        # 10470 <_IO_stdin_used+0x70>
    830b:	e8 00 c3 ff ff       	callq  4610 <gettext@plt>
    8310:	48 8b 4c 24 40       	mov    0x40(%rsp),%rcx
    8315:	48 8b 3d e4 ce 20 00 	mov    0x20cee4(%rip),%rdi        # 215200 <stderr@@GLIBC_2.2.5>
    831c:	48 89 c2             	mov    %rax,%rdx
    831f:	be 01 00 00 00       	mov    $0x1,%esi
    8324:	31 c0                	xor    %eax,%eax
    8326:	e8 b5 c7 ff ff       	callq  4ae0 <__fprintf_chk@plt>
    832b:	48 c7 05 c2 cf 20 00 	movq   $0x0,0x20cfc2(%rip)        # 2152f8 <wordchars_utf16>
    8332:	00 00 00 00 
    8336:	c7 05 98 cf 20 00 00 	movl   $0x0,0x20cf98(%rip)        # 2152d8 <wordchars_utf16_len>
    833d:	00 00 00 
    8340:	e9 8b fa ff ff       	jmpq   7dd0 <_Z10get_parseriPKcP8Hunspell+0x290>
    8345:	48 8b 2d d4 cf 20 00 	mov    0x20cfd4(%rip),%rbp        # 215320 <_Z9wordcharsB5cxx11>
    834c:	bf 10 01 00 00       	mov    $0x110,%edi
    8351:	e8 da c4 ff ff       	callq  4830 <_Znwm@plt>
    8356:	48 89 c7             	mov    %rax,%rdi
    8359:	48 89 c3             	mov    %rax,%rbx
    835c:	48 89 ee             	mov    %rbp,%rsi
    835f:	e8 dc 7f 00 00       	callq  10340 <_ZN9ODFParserC1EPKc>
    8364:	e9 a7 fe ff ff       	jmpq   8210 <_Z10get_parseriPKcP8Hunspell+0x6d0>
    8369:	48 8b 2d b0 cf 20 00 	mov    0x20cfb0(%rip),%rbp        # 215320 <_Z9wordcharsB5cxx11>
    8370:	bf 10 01 00 00       	mov    $0x110,%edi
    8375:	e8 b6 c4 ff ff       	callq  4830 <_Znwm@plt>
    837a:	48 89 c7             	mov    %rax,%rdi
    837d:	48 89 c3             	mov    %rax,%rbx
    8380:	48 89 ee             	mov    %rbp,%rsi
    8383:	e8 28 48 00 00       	callq  cbb0 <_ZN9XMLParserC1EPKc>
    8388:	e9 83 fe ff ff       	jmpq   8210 <_Z10get_parseriPKcP8Hunspell+0x6d0>
    838d:	48 8b 2d 8c cf 20 00 	mov    0x20cf8c(%rip),%rbp        # 215320 <_Z9wordcharsB5cxx11>
    8394:	bf f8 00 00 00       	mov    $0xf8,%edi
    8399:	e8 92 c4 ff ff       	callq  4830 <_Znwm@plt>
    839e:	48 89 c7             	mov    %rax,%rdi
    83a1:	48 89 c3             	mov    %rax,%rbx
    83a4:	48 89 ee             	mov    %rbp,%rsi
    83a7:	e8 d4 46 00 00       	callq  ca80 <_ZN11FirstParserC1EPKc>
    83ac:	e9 5f fe ff ff       	jmpq   8210 <_Z10get_parseriPKcP8Hunspell+0x6d0>
    83b1:	48 8b 2d 68 cf 20 00 	mov    0x20cf68(%rip),%rbp        # 215320 <_Z9wordcharsB5cxx11>
    83b8:	bf f8 00 00 00       	mov    $0xf8,%edi
    83bd:	e8 6e c4 ff ff       	callq  4830 <_Znwm@plt>
    83c2:	48 89 c7             	mov    %rax,%rdi
    83c5:	48 89 c3             	mov    %rax,%rbx
    83c8:	48 89 ee             	mov    %rbp,%rsi
    83cb:	e8 90 5f 00 00       	callq  e360 <_ZN9ManParserC1EPKc>
    83d0:	e9 3b fe ff ff       	jmpq   8210 <_Z10get_parseriPKcP8Hunspell+0x6d0>
    83d5:	48 8b 2d 44 cf 20 00 	mov    0x20cf44(%rip),%rbp        # 215320 <_Z9wordcharsB5cxx11>
    83dc:	bf 10 01 00 00       	mov    $0x110,%edi
    83e1:	e8 4a c4 ff ff       	callq  4830 <_Znwm@plt>
    83e6:	48 89 c7             	mov    %rax,%rdi
    83e9:	48 89 c3             	mov    %rax,%rbx
    83ec:	48 89 ee             	mov    %rbp,%rsi
    83ef:	e8 4c 7e 00 00       	callq  10240 <_ZN10HTMLParserC1EPKc>
    83f4:	e9 17 fe ff ff       	jmpq   8210 <_Z10get_parseriPKcP8Hunspell+0x6d0>
    83f9:	48 8b 2d 20 cf 20 00 	mov    0x20cf20(%rip),%rbp        # 215320 <_Z9wordcharsB5cxx11>
    8400:	bf 08 01 00 00       	mov    $0x108,%edi
    8405:	e8 26 c4 ff ff       	callq  4830 <_Znwm@plt>
    840a:	48 89 c7             	mov    %rax,%rdi
    840d:	48 89 c3             	mov    %rax,%rbx
    8410:	48 89 ee             	mov    %rbp,%rsi
    8413:	e8 c8 55 00 00       	callq  d9e0 <_ZN11LaTeXParserC1EPKc>
    8418:	e9 f3 fd ff ff       	jmpq   8210 <_Z10get_parseriPKcP8Hunspell+0x6d0>
    841d:	48 8b 54 24 40       	mov    0x40(%rsp),%rdx
    8422:	48 8d 3d b9 8d 00 00 	lea    0x8db9(%rip),%rdi        # 111e2 <_IO_stdin_used+0xde2>
    8429:	b9 06 00 00 00       	mov    $0x6,%ecx
    842e:	48 89 7c 24 48       	mov    %rdi,0x48(%rsp)
    8433:	48 89 d6             	mov    %rdx,%rsi
    8436:	48 89 15 53 ce 20 00 	mov    %rdx,0x20ce53(%rip)        # 215290 <io_enc>
    843d:	f3 a6                	repz cmpsb %es:(%rdi),%ds:(%rsi)
    843f:	0f 97 c0             	seta   %al
    8442:	1c 00                	sbb    $0x0,%al
    8444:	84 c0                	test   %al,%al
    8446:	0f 84 7b f7 ff ff    	je     7bc7 <_Z10get_parseriPKcP8Hunspell+0x87>
    844c:	48 89 d0             	mov    %rdx,%rax
    844f:	e9 f9 f9 ff ff       	jmpq   7e4d <_Z10get_parseriPKcP8Hunspell+0x30d>
    8454:	4c 8b 44 24 68       	mov    0x68(%rsp),%r8
    8459:	41 8b 10             	mov    (%r8),%edx
    845c:	49 83 c0 04          	add    $0x4,%r8
    8460:	8d 82 ff fe fe fe    	lea    -0x1010101(%rdx),%eax
    8466:	f7 d2                	not    %edx
    8468:	21 d0                	and    %edx,%eax
    846a:	25 80 80 80 80       	and    $0x80808080,%eax
    846f:	74 e8                	je     8459 <_Z10get_parseriPKcP8Hunspell+0x919>
    8471:	89 c2                	mov    %eax,%edx
    8473:	48 8d 3d a6 ce 20 00 	lea    0x20cea6(%rip),%rdi        # 215320 <_Z9wordcharsB5cxx11>
    847a:	c1 ea 10             	shr    $0x10,%edx
    847d:	a9 80 80 00 00       	test   $0x8080,%eax
    8482:	0f 44 c2             	cmove  %edx,%eax
    8485:	49 8d 50 02          	lea    0x2(%r8),%rdx
    8489:	89 c1                	mov    %eax,%ecx
    848b:	4c 0f 44 c2          	cmove  %rdx,%r8
    848f:	00 c1                	add    %al,%cl
    8491:	48 8b 44 24 68       	mov    0x68(%rsp),%rax
    8496:	48 8b 15 8b ce 20 00 	mov    0x20ce8b(%rip),%rdx        # 215328 <_Z9wordcharsB5cxx11+0x8>
    849d:	49 83 d8 03          	sbb    $0x3,%r8
    84a1:	31 f6                	xor    %esi,%esi
    84a3:	49 29 c0             	sub    %rax,%r8
    84a6:	48 89 c1             	mov    %rax,%rcx
    84a9:	e8 b2 c5 ff ff       	callq  4a60 <_ZNSt7__cxx1112basic_stringIcSt11char_traitsIcESaIcEE10_M_replaceEmmPKcm@plt>
    84ae:	e9 d1 fc ff ff       	jmpq   8184 <_Z10get_parseriPKcP8Hunspell+0x644>
    84b3:	48 83 ec 08          	sub    $0x8,%rsp
    84b7:	4c 8d 63 20          	lea    0x20(%rbx),%r12
    84bb:	48 89 df             	mov    %rbx,%rdi
    84be:	6a 00                	pushq  $0x0
    84c0:	4c 89 e6             	mov    %r12,%rsi
    84c3:	e8 c8 40 00 00       	callq  c590 <_ZSt16__insertion_sortIN9__gnu_cxx17__normal_iteratorIP6w_charSt6vectorIS2_SaIS2_EEEENS0_5__ops15_Iter_less_iterEEvT_SA_T0_>
    84c8:	4c 39 e5             	cmp    %r12,%rbp
    84cb:	4d 89 e0             	mov    %r12,%r8
    84ce:	49 89 eb             	mov    %rbp,%r11
    84d1:	5e                   	pop    %rsi
    84d2:	5f                   	pop    %rdi
    84d3:	74 6b                	je     8540 <_Z10get_parseriPKcP8Hunspell+0xa00>
    84d5:	0f 1f 00             	nopl   (%rax)
    84d8:	45 0f b6 48 01       	movzbl 0x1(%r8),%r9d
    84dd:	41 0f b6 10          	movzbl (%r8),%edx
    84e1:	49 8d 40 fe          	lea    -0x2(%r8),%rax
    84e5:	41 0f b6 48 fe       	movzbl -0x2(%r8),%ecx
    84ea:	44 89 cf             	mov    %r9d,%edi
    84ed:	41 89 d2             	mov    %edx,%r10d
    84f0:	c1 e7 08             	shl    $0x8,%edi
    84f3:	01 d7                	add    %edx,%edi
    84f5:	41 0f b6 50 ff       	movzbl -0x1(%r8),%edx
    84fa:	c1 e2 08             	shl    $0x8,%edx
    84fd:	01 ca                	add    %ecx,%edx
    84ff:	66 39 fa             	cmp    %di,%dx
    8502:	77 0f                	ja     8513 <_Z10get_parseriPKcP8Hunspell+0x9d3>
    8504:	e9 35 02 00 00       	jmpq   873e <_Z10get_parseriPKcP8Hunspell+0xbfe>
    8509:	0f 1f 80 00 00 00 00 	nopl   0x0(%rax)
    8510:	48 89 f0             	mov    %rsi,%rax
    8513:	0f b7 10             	movzwl (%rax),%edx
    8516:	0f b6 48 fe          	movzbl -0x2(%rax),%ecx
    851a:	48 8d 70 fe          	lea    -0x2(%rax),%rsi
    851e:	66 89 50 02          	mov    %dx,0x2(%rax)
    8522:	0f b6 50 ff          	movzbl -0x1(%rax),%edx
    8526:	c1 e2 08             	shl    $0x8,%edx
    8529:	01 ca                	add    %ecx,%edx
    852b:	66 39 d7             	cmp    %dx,%di
    852e:	72 e0                	jb     8510 <_Z10get_parseriPKcP8Hunspell+0x9d0>
    8530:	49 83 c0 02          	add    $0x2,%r8
    8534:	44 88 10             	mov    %r10b,(%rax)
    8537:	44 88 48 01          	mov    %r9b,0x1(%rax)
    853b:	4d 39 c3             	cmp    %r8,%r11
    853e:	75 98                	jne    84d8 <_Z10get_parseriPKcP8Hunspell+0x998>
    8540:	48 8b 1d 99 cd 20 00 	mov    0x20cd99(%rip),%rbx        # 2152e0 <new_wordchars_utf16>
    8547:	48 8b 05 9a cd 20 00 	mov    0x20cd9a(%rip),%rax        # 2152e8 <new_wordchars_utf16+0x8>
    854e:	48 29 d8             	sub    %rbx,%rax
    8551:	48 d1 f8             	sar    %rax
    8554:	e9 67 f8 ff ff       	jmpq   7dc0 <_Z10get_parseriPKcP8Hunspell+0x280>
    8559:	bb 01 00 00 00       	mov    $0x1,%ebx
    855e:	48 8b 54 24 60       	mov    0x60(%rsp),%rdx
    8563:	48 85 d2             	test   %rdx,%rdx
    8566:	48 89 d6             	mov    %rdx,%rsi
    8569:	0f 84 e9 00 00 00    	je     8658 <_Z10get_parseriPKcP8Hunspell+0xb18>
    856f:	48 8d 3d c7 8c 00 00 	lea    0x8cc7(%rip),%rdi        # 1123d <_IO_stdin_used+0xe3d>
    8576:	b9 05 00 00 00       	mov    $0x5,%ecx
    857b:	f3 a6                	repz cmpsb %es:(%rdi),%ds:(%rsi)
    857d:	0f 97 c0             	seta   %al
    8580:	1c 00                	sbb    $0x0,%al
    8582:	84 c0                	test   %al,%al
    8584:	0f 84 22 01 00 00    	je     86ac <_Z10get_parseriPKcP8Hunspell+0xb6c>
    858a:	48 8d 3d a7 8c 00 00 	lea    0x8ca7(%rip),%rdi        # 11238 <_IO_stdin_used+0xe38>
    8591:	b9 04 00 00 00       	mov    $0x4,%ecx
    8596:	48 89 d6             	mov    %rdx,%rsi
    8599:	f3 a6                	repz cmpsb %es:(%rdi),%ds:(%rsi)
    859b:	0f 97 c0             	seta   %al
    859e:	1c 00                	sbb    $0x0,%al
    85a0:	84 c0                	test   %al,%al
    85a2:	0f 84 04 01 00 00    	je     86ac <_Z10get_parseriPKcP8Hunspell+0xb6c>
    85a8:	48 8d 3d 8d 8c 00 00 	lea    0x8c8d(%rip),%rdi        # 1123c <_IO_stdin_used+0xe3c>
    85af:	b9 06 00 00 00       	mov    $0x6,%ecx
    85b4:	48 89 d6             	mov    %rdx,%rsi
    85b7:	f3 a6                	repz cmpsb %es:(%rdi),%ds:(%rsi)
    85b9:	0f 97 c0             	seta   %al
    85bc:	1c 00                	sbb    $0x0,%al
    85be:	84 c0                	test   %al,%al
    85c0:	0f 84 e6 00 00 00    	je     86ac <_Z10get_parseriPKcP8Hunspell+0xb6c>
    85c6:	48 8b 74 24 60       	mov    0x60(%rsp),%rsi
    85cb:	48 8d 3d 9d 8c 00 00 	lea    0x8c9d(%rip),%rdi        # 1126f <_IO_stdin_used+0xe6f>
    85d2:	b9 04 00 00 00       	mov    $0x4,%ecx
    85d7:	f3 a6                	repz cmpsb %es:(%rdi),%ds:(%rsi)
    85d9:	0f 97 c0             	seta   %al
    85dc:	1c 00                	sbb    $0x0,%al
    85de:	84 c0                	test   %al,%al
    85e0:	0f 85 79 01 00 00    	jne    875f <_Z10get_parseriPKcP8Hunspell+0xc1f>
    85e6:	85 db                	test   %ebx,%ebx
    85e8:	0f 84 ca 01 00 00    	je     87b8 <_Z10get_parseriPKcP8Hunspell+0xc78>
    85ee:	bf 10 01 00 00       	mov    $0x110,%edi
    85f3:	e8 38 c2 ff ff       	callq  4830 <_Znwm@plt>
    85f8:	8b 15 da cc 20 00    	mov    0x20ccda(%rip),%edx        # 2152d8 <wordchars_utf16_len>
    85fe:	48 8b 35 f3 cc 20 00 	mov    0x20ccf3(%rip),%rsi        # 2152f8 <wordchars_utf16>
    8605:	48 89 c7             	mov    %rax,%rdi
    8608:	48 89 c3             	mov    %rax,%rbx
    860b:	e8 e0 45 00 00       	callq  cbf0 <_ZN9XMLParserC1EPK6w_chari>
    8610:	e9 fb fb ff ff       	jmpq   8210 <_Z10get_parseriPKcP8Hunspell+0x6d0>
    8615:	0f 1f 00             	nopl   (%rax)
    8618:	31 db                	xor    %ebx,%ebx
    861a:	e9 3f ff ff ff       	jmpq   855e <_Z10get_parseriPKcP8Hunspell+0xa1e>
    861f:	48 8d 3d 69 8b 00 00 	lea    0x8b69(%rip),%rdi        # 1118f <_IO_stdin_used+0xd8f>
    8626:	48 8b 1d 63 cc 20 00 	mov    0x20cc63(%rip),%rbx        # 215290 <io_enc>
    862d:	e8 de bf ff ff       	callq  4610 <gettext@plt>
    8632:	4c 8b 44 24 40       	mov    0x40(%rsp),%r8
    8637:	48 8b 3d c2 cb 20 00 	mov    0x20cbc2(%rip),%rdi        # 215200 <stderr@@GLIBC_2.2.5>
    863e:	48 89 c2             	mov    %rax,%rdx
    8641:	48 89 d9             	mov    %rbx,%rcx
    8644:	be 01 00 00 00       	mov    $0x1,%esi
    8649:	31 c0                	xor    %eax,%eax
    864b:	e8 90 c4 ff ff       	callq  4ae0 <__fprintf_chk@plt>
    8650:	e9 21 fb ff ff       	jmpq   8176 <_Z10get_parseriPKcP8Hunspell+0x636>
    8655:	0f 1f 00             	nopl   (%rax)
    8658:	85 db                	test   %ebx,%ebx
    865a:	74 2c                	je     8688 <_Z10get_parseriPKcP8Hunspell+0xb48>
    865c:	bf f8 00 00 00       	mov    $0xf8,%edi
    8661:	e8 ca c1 ff ff       	callq  4830 <_Znwm@plt>
    8666:	8b 15 6c cc 20 00    	mov    0x20cc6c(%rip),%edx        # 2152d8 <wordchars_utf16_len>
    866c:	48 8b 35 85 cc 20 00 	mov    0x20cc85(%rip),%rsi        # 2152f8 <wordchars_utf16>
    8673:	48 89 c7             	mov    %rax,%rdi
    8676:	48 89 c3             	mov    %rax,%rbx
    8679:	e8 c2 60 00 00       	callq  e740 <_ZN10TextParserC1EPK6w_chari>
    867e:	e9 8d fb ff ff       	jmpq   8210 <_Z10get_parseriPKcP8Hunspell+0x6d0>
    8683:	0f 1f 44 00 00       	nopl   0x0(%rax,%rax,1)
    8688:	48 8b 2d 91 cc 20 00 	mov    0x20cc91(%rip),%rbp        # 215320 <_Z9wordcharsB5cxx11>
    868f:	bf f8 00 00 00       	mov    $0xf8,%edi
    8694:	e8 97 c1 ff ff       	callq  4830 <_Znwm@plt>
    8699:	48 89 c7             	mov    %rax,%rdi
    869c:	48 89 c3             	mov    %rax,%rbx
    869f:	48 89 ee             	mov    %rbp,%rsi
    86a2:	e8 c9 6b 00 00       	callq  f270 <_ZN10TextParserC1EPKc>
    86a7:	e9 64 fb ff ff       	jmpq   8210 <_Z10get_parseriPKcP8Hunspell+0x6d0>
    86ac:	85 db                	test   %ebx,%ebx
    86ae:	74 27                	je     86d7 <_Z10get_parseriPKcP8Hunspell+0xb97>
    86b0:	bf 10 01 00 00       	mov    $0x110,%edi
    86b5:	e8 76 c1 ff ff       	callq  4830 <_Znwm@plt>
    86ba:	8b 15 18 cc 20 00    	mov    0x20cc18(%rip),%edx        # 2152d8 <wordchars_utf16_len>
    86c0:	48 8b 35 31 cc 20 00 	mov    0x20cc31(%rip),%rsi        # 2152f8 <wordchars_utf16>
    86c7:	48 89 c7             	mov    %rax,%rdi
    86ca:	48 89 c3             	mov    %rax,%rbx
    86cd:	e8 8e 7b 00 00       	callq  10260 <_ZN10HTMLParserC1EPK6w_chari>
    86d2:	e9 39 fb ff ff       	jmpq   8210 <_Z10get_parseriPKcP8Hunspell+0x6d0>
    86d7:	48 8b 2d 42 cc 20 00 	mov    0x20cc42(%rip),%rbp        # 215320 <_Z9wordcharsB5cxx11>
    86de:	bf 10 01 00 00       	mov    $0x110,%edi
    86e3:	e8 48 c1 ff ff       	callq  4830 <_Znwm@plt>
    86e8:	48 89 c7             	mov    %rax,%rdi
    86eb:	48 89 c3             	mov    %rax,%rbx
    86ee:	48 89 ee             	mov    %rbp,%rsi
    86f1:	e8 4a 7b 00 00       	callq  10240 <_ZN10HTMLParserC1EPKc>
    86f6:	e9 15 fb ff ff       	jmpq   8210 <_Z10get_parseriPKcP8Hunspell+0x6d0>
    86fb:	48 8d 3d 6e 7d 00 00 	lea    0x7d6e(%rip),%rdi        # 10470 <_IO_stdin_used+0x70>
    8702:	48 8b 1d 87 cb 20 00 	mov    0x20cb87(%rip),%rbx        # 215290 <io_enc>
    8709:	e8 02 bf ff ff       	callq  4610 <gettext@plt>
    870e:	48 8b 3d eb ca 20 00 	mov    0x20caeb(%rip),%rdi        # 215200 <stderr@@GLIBC_2.2.5>
    8715:	48 89 c2             	mov    %rax,%rdx
    8718:	48 89 d9             	mov    %rbx,%rcx
    871b:	be 01 00 00 00       	mov    $0x1,%esi
    8720:	31 c0                	xor    %eax,%eax
    8722:	e8 b9 c3 ff ff       	callq  4ae0 <__fprintf_chk@plt>
    8727:	48 8d 84 24 e0 00 00 	lea    0xe0(%rsp),%rax
    872e:	00 
    872f:	48 89 44 24 68       	mov    %rax,0x68(%rsp)
    8734:	48 89 44 24 30       	mov    %rax,0x30(%rsp)
    8739:	e9 fc f8 ff ff       	jmpq   803a <_Z10get_parseriPKcP8Hunspell+0x4fa>
    873e:	4c 89 c0             	mov    %r8,%rax
    8741:	e9 ea fd ff ff       	jmpq   8530 <_Z10get_parseriPKcP8Hunspell+0x9f0>
    8746:	48 8b 7c 24 50       	mov    0x50(%rsp),%rdi
    874b:	e8 d0 c2 ff ff       	callq  4a20 <_ZNK8Hunspell19get_wordchars_utf16Ev@plt>
    8750:	48 8b 50 08          	mov    0x8(%rax),%rdx
    8754:	48 2b 10             	sub    (%rax),%rdx
    8757:	48 d1 fa             	sar    %rdx
    875a:	e9 1b f9 ff ff       	jmpq   807a <_Z10get_parseriPKcP8Hunspell+0x53a>
    875f:	48 8b 7c 24 60       	mov    0x60(%rsp),%rdi
    8764:	e8 87 bf ff ff       	callq  46f0 <strlen@plt>
    8769:	48 83 f8 03          	cmp    $0x3,%rax
    876d:	0f 84 2d 01 00 00    	je     88a0 <_Z10get_parseriPKcP8Hunspell+0xd60>
    8773:	48 8b 4c 24 60       	mov    0x60(%rsp),%rcx
    8778:	48 83 f8 04          	cmp    $0x4,%rax
    877c:	0f b6 11             	movzbl (%rcx),%edx
    877f:	74 7f                	je     8800 <_Z10get_parseriPKcP8Hunspell+0xcc0>
    8781:	83 ea 31             	sub    $0x31,%edx
    8784:	80 fa 08             	cmp    $0x8,%dl
    8787:	0f 87 c0 00 00 00    	ja     884d <_Z10get_parseriPKcP8Hunspell+0xd0d>
    878d:	85 db                	test   %ebx,%ebx
    878f:	74 4b                	je     87dc <_Z10get_parseriPKcP8Hunspell+0xc9c>
    8791:	bf f8 00 00 00       	mov    $0xf8,%edi
    8796:	e8 95 c0 ff ff       	callq  4830 <_Znwm@plt>
    879b:	8b 15 37 cb 20 00    	mov    0x20cb37(%rip),%edx        # 2152d8 <wordchars_utf16_len>
    87a1:	48 8b 35 50 cb 20 00 	mov    0x20cb50(%rip),%rsi        # 2152f8 <wordchars_utf16>
    87a8:	48 89 c7             	mov    %rax,%rdi
    87ab:	48 89 c3             	mov    %rax,%rbx
    87ae:	e8 cd 5b 00 00       	callq  e380 <_ZN9ManParserC1EPK6w_chari>
    87b3:	e9 58 fa ff ff       	jmpq   8210 <_Z10get_parseriPKcP8Hunspell+0x6d0>
    87b8:	48 8b 2d 61 cb 20 00 	mov    0x20cb61(%rip),%rbp        # 215320 <_Z9wordcharsB5cxx11>
    87bf:	bf 10 01 00 00       	mov    $0x110,%edi
    87c4:	e8 67 c0 ff ff       	callq  4830 <_Znwm@plt>
    87c9:	48 89 c7             	mov    %rax,%rdi
    87cc:	48 89 c3             	mov    %rax,%rbx
    87cf:	48 89 ee             	mov    %rbp,%rsi
    87d2:	e8 d9 43 00 00       	callq  cbb0 <_ZN9XMLParserC1EPKc>
    87d7:	e9 34 fa ff ff       	jmpq   8210 <_Z10get_parseriPKcP8Hunspell+0x6d0>
    87dc:	48 8b 2d 3d cb 20 00 	mov    0x20cb3d(%rip),%rbp        # 215320 <_Z9wordcharsB5cxx11>
    87e3:	bf f8 00 00 00       	mov    $0xf8,%edi
    87e8:	e8 43 c0 ff ff       	callq  4830 <_Znwm@plt>
    87ed:	48 89 c7             	mov    %rax,%rdi
    87f0:	48 89 c3             	mov    %rax,%rbx
    87f3:	48 89 ee             	mov    %rbp,%rsi
    87f6:	e8 65 5b 00 00       	callq  e360 <_ZN9ManParserC1EPKc>
    87fb:	e9 10 fa ff ff       	jmpq   8210 <_Z10get_parseriPKcP8Hunspell+0x6d0>
    8800:	80 fa 66             	cmp    $0x66,%dl
    8803:	0f 85 78 ff ff ff    	jne    8781 <_Z10get_parseriPKcP8Hunspell+0xc41>
    8809:	48 8d 71 01          	lea    0x1(%rcx),%rsi
    880d:	48 8d 3d 84 7c 00 00 	lea    0x7c84(%rip),%rdi        # 10498 <_IO_stdin_used+0x98>
    8814:	e8 07 be ff ff       	callq  4620 <strstr@plt>
    8819:	48 85 c0             	test   %rax,%rax
    881c:	74 2f                	je     884d <_Z10get_parseriPKcP8Hunspell+0xd0d>
    881e:	85 db                	test   %ebx,%ebx
    8820:	0f 84 aa 00 00 00    	je     88d0 <_Z10get_parseriPKcP8Hunspell+0xd90>
    8826:	bf 10 01 00 00       	mov    $0x110,%edi
    882b:	e8 00 c0 ff ff       	callq  4830 <_Znwm@plt>
    8830:	8b 15 a2 ca 20 00    	mov    0x20caa2(%rip),%edx        # 2152d8 <wordchars_utf16_len>
    8836:	48 8b 35 bb ca 20 00 	mov    0x20cabb(%rip),%rsi        # 2152f8 <wordchars_utf16>
    883d:	48 89 c7             	mov    %rax,%rdi
    8840:	48 89 c3             	mov    %rax,%rbx
    8843:	e8 18 7b 00 00       	callq  10360 <_ZN9ODFParserC1EPK6w_chari>
    8848:	e9 c3 f9 ff ff       	jmpq   8210 <_Z10get_parseriPKcP8Hunspell+0x6d0>
    884d:	48 8b 74 24 60       	mov    0x60(%rsp),%rsi
    8852:	48 8d 3d e9 89 00 00 	lea    0x89e9(%rip),%rdi        # 11242 <_IO_stdin_used+0xe42>
    8859:	b9 04 00 00 00       	mov    $0x4,%ecx
    885e:	f3 a6                	repz cmpsb %es:(%rdi),%ds:(%rsi)
    8860:	0f 97 c0             	seta   %al
    8863:	1c 00                	sbb    $0x0,%al
    8865:	84 c0                	test   %al,%al
    8867:	0f 85 eb fd ff ff    	jne    8658 <_Z10get_parseriPKcP8Hunspell+0xb18>
    886d:	85 db                	test   %ebx,%ebx
    886f:	0f 84 b1 00 00 00    	je     8926 <_Z10get_parseriPKcP8Hunspell+0xde6>
    8875:	bf 08 01 00 00       	mov    $0x108,%edi
    887a:	e8 b1 bf ff ff       	callq  4830 <_Znwm@plt>
    887f:	8b 15 53 ca 20 00    	mov    0x20ca53(%rip),%edx        # 2152d8 <wordchars_utf16_len>
    8885:	48 8b 35 6c ca 20 00 	mov    0x20ca6c(%rip),%rsi        # 2152f8 <wordchars_utf16>
    888c:	48 89 c7             	mov    %rax,%rdi
    888f:	48 89 c3             	mov    %rax,%rbx
    8892:	e8 79 51 00 00       	callq  da10 <_ZN11LaTeXParserC1EPK6w_chari>
    8897:	e9 74 f9 ff ff       	jmpq   8210 <_Z10get_parseriPKcP8Hunspell+0x6d0>
    889c:	0f 1f 40 00          	nopl   0x0(%rax)
    88a0:	48 8b 74 24 60       	mov    0x60(%rsp),%rsi
    88a5:	48 8d 3d ec 7b 00 00 	lea    0x7bec(%rip),%rdi        # 10498 <_IO_stdin_used+0x98>
    88ac:	e8 6f bd ff ff       	callq  4620 <strstr@plt>
    88b1:	48 85 c0             	test   %rax,%rax
    88b4:	0f 85 64 ff ff ff    	jne    881e <_Z10get_parseriPKcP8Hunspell+0xcde>
    88ba:	48 8b 44 24 60       	mov    0x60(%rsp),%rax
    88bf:	0f b6 10             	movzbl (%rax),%edx
    88c2:	e9 ba fe ff ff       	jmpq   8781 <_Z10get_parseriPKcP8Hunspell+0xc41>
    88c7:	66 0f 1f 84 00 00 00 	nopw   0x0(%rax,%rax,1)
    88ce:	00 00 
    88d0:	48 8b 2d 49 ca 20 00 	mov    0x20ca49(%rip),%rbp        # 215320 <_Z9wordcharsB5cxx11>
    88d7:	bf 10 01 00 00       	mov    $0x110,%edi
    88dc:	e8 4f bf ff ff       	callq  4830 <_Znwm@plt>
    88e1:	48 89 c7             	mov    %rax,%rdi
    88e4:	48 89 c3             	mov    %rax,%rbx
    88e7:	48 89 ee             	mov    %rbp,%rsi
    88ea:	e8 51 7a 00 00       	callq  10340 <_ZN9ODFParserC1EPKc>
    88ef:	e9 1c f9 ff ff       	jmpq   8210 <_Z10get_parseriPKcP8Hunspell+0x6d0>
    88f4:	48 89 c5             	mov    %rax,%rbp
    88f7:	48 89 df             	mov    %rbx,%rdi
    88fa:	be 10 01 00 00       	mov    $0x110,%esi
    88ff:	e8 5c bf ff ff       	callq  4860 <_ZdlPvm@plt>
    8904:	48 89 ef             	mov    %rbp,%rdi
    8907:	e8 04 c2 ff ff       	callq  4b10 <_Unwind_Resume@plt>
    890c:	eb e6                	jmp    88f4 <_Z10get_parseriPKcP8Hunspell+0xdb4>
    890e:	48 89 c5             	mov    %rax,%rbp
    8911:	48 89 df             	mov    %rbx,%rdi
    8914:	be 08 01 00 00       	mov    $0x108,%esi
    8919:	e8 42 bf ff ff       	callq  4860 <_ZdlPvm@plt>
    891e:	48 89 ef             	mov    %rbp,%rdi
    8921:	e8 ea c1 ff ff       	callq  4b10 <_Unwind_Resume@plt>
    8926:	48 8b 2d f3 c9 20 00 	mov    0x20c9f3(%rip),%rbp        # 215320 <_Z9wordcharsB5cxx11>
    892d:	bf 08 01 00 00       	mov    $0x108,%edi
    8932:	e8 f9 be ff ff       	callq  4830 <_Znwm@plt>
    8937:	48 89 c7             	mov    %rax,%rdi
    893a:	48 89 c3             	mov    %rax,%rbx
    893d:	48 89 ee             	mov    %rbp,%rsi
    8940:	e8 9b 50 00 00       	callq  d9e0 <_ZN11LaTeXParserC1EPKc>
    8945:	e9 c6 f8 ff ff       	jmpq   8210 <_Z10get_parseriPKcP8Hunspell+0x6d0>
    894a:	eb a8                	jmp    88f4 <_Z10get_parseriPKcP8Hunspell+0xdb4>
    894c:	48 89 c5             	mov    %rax,%rbp
    894f:	48 89 df             	mov    %rbx,%rdi
    8952:	be f8 00 00 00       	mov    $0xf8,%esi
    8957:	e8 04 bf ff ff       	callq  4860 <_ZdlPvm@plt>
    895c:	48 89 ef             	mov    %rbp,%rdi
    895f:	e8 ac c1 ff ff       	callq  4b10 <_Unwind_Resume@plt>
    8964:	eb 8e                	jmp    88f4 <_Z10get_parseriPKcP8Hunspell+0xdb4>
    8966:	eb 8c                	jmp    88f4 <_Z10get_parseriPKcP8Hunspell+0xdb4>
    8968:	eb 8a                	jmp    88f4 <_Z10get_parseriPKcP8Hunspell+0xdb4>
    896a:	eb 88                	jmp    88f4 <_Z10get_parseriPKcP8Hunspell+0xdb4>
    896c:	eb de                	jmp    894c <_Z10get_parseriPKcP8Hunspell+0xe0c>
    896e:	eb 9e                	jmp    890e <_Z10get_parseriPKcP8Hunspell+0xdce>
    8970:	eb 9c                	jmp    890e <_Z10get_parseriPKcP8Hunspell+0xdce>
    8972:	48 89 c3             	mov    %rax,%rbx
    8975:	48 8b bc 24 90 00 00 	mov    0x90(%rsp),%rdi
    897c:	00 
    897d:	48 85 ff             	test   %rdi,%rdi
    8980:	74 05                	je     8987 <_Z10get_parseriPKcP8Hunspell+0xe47>
    8982:	e8 79 be ff ff       	callq  4800 <_ZdlPv@plt>
    8987:	48 89 df             	mov    %rbx,%rdi
    898a:	e8 81 c1 ff ff       	callq  4b10 <_Unwind_Resume@plt>
    898f:	e9 60 ff ff ff       	jmpq   88f4 <_Z10get_parseriPKcP8Hunspell+0xdb4>
    8994:	e9 5b ff ff ff       	jmpq   88f4 <_Z10get_parseriPKcP8Hunspell+0xdb4>
    8999:	eb b1                	jmp    894c <_Z10get_parseriPKcP8Hunspell+0xe0c>
    899b:	eb af                	jmp    894c <_Z10get_parseriPKcP8Hunspell+0xe0c>
    899d:	eb ad                	jmp    894c <_Z10get_parseriPKcP8Hunspell+0xe0c>
    899f:	48 8b 54 24 28       	mov    0x28(%rsp),%rdx
    89a4:	48 8b bc 24 b0 00 00 	mov    0xb0(%rsp),%rdi
    89ab:	00 
    89ac:	48 89 c3             	mov    %rax,%rbx
    89af:	48 83 c2 10          	add    $0x10,%rdx
    89b3:	48 39 d7             	cmp    %rdx,%rdi
    89b6:	74 bd                	je     8975 <_Z10get_parseriPKcP8Hunspell+0xe35>
    89b8:	e8 43 be ff ff       	callq  4800 <_ZdlPv@plt>
    89bd:	eb b6                	jmp    8975 <_Z10get_parseriPKcP8Hunspell+0xe35>
    89bf:	eb 8b                	jmp    894c <_Z10get_parseriPKcP8Hunspell+0xe0c>
    89c1:	48 8b bc 24 b0 00 00 	mov    0xb0(%rsp),%rdi
    89c8:	00 
    89c9:	48 83 c5 10          	add    $0x10,%rbp
    89cd:	48 89 c3             	mov    %rax,%rbx
    89d0:	48 39 ef             	cmp    %rbp,%rdi
    89d3:	75 ad                	jne    8982 <_Z10get_parseriPKcP8Hunspell+0xe42>
    89d5:	eb b0                	jmp    8987 <_Z10get_parseriPKcP8Hunspell+0xe47>
    89d7:	e9 18 ff ff ff       	jmpq   88f4 <_Z10get_parseriPKcP8Hunspell+0xdb4>
    89dc:	e9 13 ff ff ff       	jmpq   88f4 <_Z10get_parseriPKcP8Hunspell+0xdb4>
    89e1:	e8 aa be ff ff       	callq  4890 <__stack_chk_fail@plt>
    89e6:	e9 23 ff ff ff       	jmpq   890e <_Z10get_parseriPKcP8Hunspell+0xdce>
    89eb:	e9 04 ff ff ff       	jmpq   88f4 <_Z10get_parseriPKcP8Hunspell+0xdb4>
    89f0:	e9 57 ff ff ff       	jmpq   894c <_Z10get_parseriPKcP8Hunspell+0xe0c>
    89f5:	e9 52 ff ff ff       	jmpq   894c <_Z10get_parseriPKcP8Hunspell+0xe0c>
    89fa:	66 0f 1f 44 00 00    	nopw   0x0(%rax,%rax,1)

0000000000008a00 <_Z14pipe_interfacePP8HunspelliP8_IO_FILEPc>:
    8a00:	55                   	push   %rbp
    8a01:	48 89 e5             	mov    %rsp,%rbp
    8a04:	41 57                	push   %r15
    8a06:	41 56                	push   %r14
    8a08:	41 55                	push   %r13
    8a0a:	41 54                	push   %r12
    8a0c:	49 89 cc             	mov    %rcx,%r12
    8a0f:	53                   	push   %rbx
    8a10:	48 81 ec 98 23 00 00 	sub    $0x2398,%rsp
    8a17:	48 89 bd 98 dc ff ff 	mov    %rdi,-0x2368(%rbp)
    8a1e:	89 b5 5c dc ff ff    	mov    %esi,-0x23a4(%rbp)
    8a24:	64 48 8b 04 25 28 00 	mov    %fs:0x28,%rax
    8a2b:	00 00 
    8a2d:	48 89 45 c8          	mov    %rax,-0x38(%rbp)
    8a31:	31 c0                	xor    %eax,%eax
    8a33:	0f b6 05 7e c8 20 00 	movzbl 0x20c87e(%rip),%eax        # 2152b8 <multiple_files>
    8a3a:	48 89 95 88 dc ff ff 	mov    %rdx,-0x2378(%rbp)
    8a41:	48 c7 85 c0 dc ff ff 	movq   $0x0,-0x2340(%rbp)
    8a48:	00 00 00 00 
    8a4c:	48 c7 85 c8 dc ff ff 	movq   $0x0,-0x2338(%rbp)
    8a53:	00 00 00 00 
    8a57:	48 c7 85 d0 dc ff ff 	movq   $0x0,-0x2330(%rbp)
    8a5e:	00 00 00 00 
    8a62:	c7 85 bc dc ff ff 00 	movl   $0x0,-0x2344(%rbp)
    8a69:	00 00 00 
    8a6c:	84 c0                	test   %al,%al
    8a6e:	41 89 c6             	mov    %eax,%r14d
    8a71:	0f 84 69 03 00 00    	je     8de0 <_Z14pipe_interfacePP8HunspelliP8_IO_FILEPc+0x3e0>
    8a77:	48 8d 9d 20 de ff ff 	lea    -0x21e0(%rbp),%rbx
    8a7e:	48 8d 15 d7 88 00 00 	lea    0x88d7(%rip),%rdx        # 1135c <_IO_stdin_used+0xf5c>
    8a85:	48 8d 43 10          	lea    0x10(%rbx),%rax
    8a89:	48 8d 72 fe          	lea    -0x2(%rdx),%rsi
    8a8d:	48 89 df             	mov    %rbx,%rdi
    8a90:	48 89 85 20 de ff ff 	mov    %rax,-0x21e0(%rbp)
    8a97:	e8 34 d7 ff ff       	callq  61d0 <_ZNSt7__cxx1112basic_stringIcSt11char_traitsIcESaIcEE12_M_constructIPKcEEvT_S8_St20forward_iterator_tag.isra.52>
    8a9c:	4c 89 e7             	mov    %r12,%rdi
    8a9f:	e8 4c bc ff ff       	callq  46f0 <strlen@plt>
    8aa4:	4c 89 e1             	mov    %r12,%rcx
    8aa7:	49 89 c0             	mov    %rax,%r8
    8aaa:	31 d2                	xor    %edx,%edx
    8aac:	31 f6                	xor    %esi,%esi
    8aae:	48 89 df             	mov    %rbx,%rdi
    8ab1:	e8 aa bf ff ff       	callq  4a60 <_ZNSt7__cxx1112basic_stringIcSt11char_traitsIcESaIcEE10_M_replaceEmmPKcm@plt>
    8ab6:	48 8d 8d 20 dd ff ff 	lea    -0x22e0(%rbp),%rcx
    8abd:	48 8d 51 10          	lea    0x10(%rcx),%rdx
    8ac1:	48 89 8d 40 dc ff ff 	mov    %rcx,-0x23c0(%rbp)
    8ac8:	48 89 95 20 dd ff ff 	mov    %rdx,-0x22e0(%rbp)
    8acf:	48 8b 08             	mov    (%rax),%rcx
    8ad2:	48 8d 50 10          	lea    0x10(%rax),%rdx
    8ad6:	48 39 d1             	cmp    %rdx,%rcx
    8ad9:	0f 84 51 23 00 00    	je     ae30 <_Z14pipe_interfacePP8HunspelliP8_IO_FILEPc+0x2430>
    8adf:	48 89 8d 20 dd ff ff 	mov    %rcx,-0x22e0(%rbp)
    8ae6:	48 8b 48 10          	mov    0x10(%rax),%rcx
    8aea:	48 89 8d 30 dd ff ff 	mov    %rcx,-0x22d0(%rbp)
    8af1:	48 8b 48 08          	mov    0x8(%rax),%rcx
    8af5:	c6 40 10 00          	movb   $0x0,0x10(%rax)
    8af9:	48 83 c3 10          	add    $0x10,%rbx
    8afd:	48 89 8d 28 dd ff ff 	mov    %rcx,-0x22d8(%rbp)
    8b04:	48 89 10             	mov    %rdx,(%rax)
    8b07:	48 c7 40 08 00 00 00 	movq   $0x0,0x8(%rax)
    8b0e:	00 
    8b0f:	48 8b bd 20 de ff ff 	mov    -0x21e0(%rbp),%rdi
    8b16:	48 39 df             	cmp    %rbx,%rdi
    8b19:	74 05                	je     8b20 <_Z14pipe_interfacePP8HunspelliP8_IO_FILEPc+0x120>
    8b1b:	e8 e0 bc ff ff       	callq  4800 <_ZdlPv@plt>
    8b20:	be 2e 00 00 00       	mov    $0x2e,%esi
    8b25:	4c 89 e7             	mov    %r12,%rdi
    8b28:	e8 b3 e4 ff ff       	callq  6fe0 <_Z8basenamePKcc>
    8b2d:	48 89 c3             	mov    %rax,%rbx
    8b30:	48 8b 85 98 dc ff ff 	mov    -0x2368(%rbp),%rax
    8b37:	8b bd 5c dc ff ff    	mov    -0x23a4(%rbp),%edi
    8b3d:	48 89 de             	mov    %rbx,%rsi
    8b40:	48 8b 10             	mov    (%rax),%rdx
    8b43:	e8 f8 ef ff ff       	callq  7b40 <_Z10get_parseriPKcP8Hunspell>
    8b48:	66 0f 6f 05 30 8b 00 	movdqa 0x8b30(%rip),%xmm0        # 11680 <_IO_stdin_used+0x1280>
    8b4f:	00 
    8b50:	48 85 c0             	test   %rax,%rax
    8b53:	48 89 85 a8 dc ff ff 	mov    %rax,-0x2358(%rbp)
    8b5a:	c7 85 b0 df ff ff 58 	movl   $0x585858,-0x2050(%rbp)
    8b61:	58 58 00 
    8b64:	0f 29 85 a0 df ff ff 	movaps %xmm0,-0x2060(%rbp)
    8b6b:	0f 84 4f 1b 00 00    	je     a6c0 <_Z14pipe_interfacePP8HunspelliP8_IO_FILEPc+0x1cc0>
    8b71:	48 8d 15 b0 be 20 00 	lea    0x20beb0(%rip),%rdx        # 214a28 <_ZTVN10__cxxabiv120__si_class_type_infoE@CXXABI_1.3>
    8b78:	48 8d 35 49 be 20 00 	lea    0x20be49(%rip),%rsi        # 2149c8 <_ZTVN10__cxxabiv117__class_type_infoE@CXXABI_1.3>
    8b7f:	31 c9                	xor    %ecx,%ecx
    8b81:	48 89 c7             	mov    %rax,%rdi
    8b84:	e8 47 bd ff ff       	callq  48d0 <__dynamic_cast@plt>
    8b89:	48 85 db             	test   %rbx,%rbx
    8b8c:	48 c7 85 60 dc ff ff 	movq   $0x0,-0x23a0(%rbp)
    8b93:	00 00 00 00 
    8b97:	0f 95 c2             	setne  %dl
    8b9a:	48 85 c0             	test   %rax,%rax
    8b9d:	0f 95 c0             	setne  %al
    8ba0:	20 c2                	and    %al,%dl
    8ba2:	88 95 5b dc ff ff    	mov    %dl,-0x23a5(%rbp)
    8ba8:	0f 85 02 0e 00 00    	jne    99b0 <_Z14pipe_interfacePP8HunspelliP8_IO_FILEPc+0xfb0>
    8bae:	44 8b 1d ff c6 20 00 	mov    0x20c6ff(%rip),%r11d        # 2152b4 <filter_mode>
    8bb5:	45 85 db             	test   %r11d,%r11d
    8bb8:	0f 84 24 1b 00 00    	je     a6e2 <_Z14pipe_interfacePP8HunspelliP8_IO_FILEPc+0x1ce2>
    8bbe:	48 8d 85 c0 df ff ff 	lea    -0x2040(%rbp),%rax
    8bc5:	48 8d 9d 20 de ff ff 	lea    -0x21e0(%rbp),%rbx
    8bcc:	c7 85 48 dc ff ff 00 	movl   $0x0,-0x23b8(%rbp)
    8bd3:	00 00 00 
    8bd6:	c7 85 4c dc ff ff 00 	movl   $0x0,-0x23b4(%rbp)
    8bdd:	00 00 00 
    8be0:	c7 85 80 dc ff ff 00 	movl   $0x0,-0x2380(%rbp)
    8be7:	00 00 00 
    8bea:	48 89 85 90 dc ff ff 	mov    %rax,-0x2370(%rbp)
    8bf1:	48 8d 43 10          	lea    0x10(%rbx),%rax
    8bf5:	48 89 85 a0 dc ff ff 	mov    %rax,-0x2360(%rbp)
    8bfc:	4c 8b bd 90 dc ff ff 	mov    -0x2370(%rbp),%r15
    8c03:	48 8b 95 88 dc ff ff 	mov    -0x2378(%rbp),%rdx
    8c0a:	be 00 20 00 00       	mov    $0x2000,%esi
    8c0f:	4c 89 ff             	mov    %r15,%rdi
    8c12:	e8 69 be ff ff       	callq  4a80 <fgets@plt>
    8c17:	48 85 c0             	test   %rax,%rax
    8c1a:	0f 84 70 0c 00 00    	je     9890 <_Z14pipe_interfacePP8HunspelliP8_IO_FILEPc+0xe90>
    8c20:	48 8d 35 ec 87 00 00 	lea    0x87ec(%rip),%rsi        # 11413 <_IO_stdin_used+0x1013>
    8c27:	4c 89 ff             	mov    %r15,%rdi
    8c2a:	e8 b1 b9 ff ff       	callq  45e0 <strcspn@plt>
    8c2f:	83 85 80 dc ff ff 01 	addl   $0x1,-0x2380(%rbp)
    8c36:	83 3d 77 c6 20 00 06 	cmpl   $0x6,0x20c677(%rip)        # 2152b4 <filter_mode>
    8c3d:	4c 89 fe             	mov    %r15,%rsi
    8c40:	c6 84 05 c0 df ff ff 	movb   $0x0,-0x2040(%rbp,%rax,1)
    8c47:	00 
    8c48:	c7 85 78 dc ff ff 00 	movl   $0x0,-0x2388(%rbp)
    8c4f:	00 00 00 
    8c52:	0f 84 f0 0b 00 00    	je     9848 <_Z14pipe_interfacePP8HunspelliP8_IO_FILEPc+0xe48>
    8c58:	48 8b bd a8 dc ff ff 	mov    -0x2358(%rbp),%rdi
    8c5f:	e8 7c 6b 00 00       	callq  f7e0 <_ZN10TextParser8put_lineEPKc>
    8c64:	4c 8d bd e0 dd ff ff 	lea    -0x2220(%rbp),%r15
    8c6b:	48 c7 85 e8 dd ff ff 	movq   $0x0,-0x2218(%rbp)
    8c72:	00 00 00 00 
    8c76:	c6 85 f0 dd ff ff 00 	movb   $0x0,-0x2210(%rbp)
    8c7d:	c7 85 68 dc ff ff 00 	movl   $0x0,-0x2398(%rbp)
    8c84:	00 00 00 
    8c87:	49 8d 47 10          	lea    0x10(%r15),%rax
    8c8b:	48 89 85 e0 dd ff ff 	mov    %rax,-0x2220(%rbp)
    8c92:	66 0f 1f 44 00 00    	nopw   0x0(%rax,%rax,1)
    8c98:	4c 8d a5 00 de ff ff 	lea    -0x2200(%rbp),%r12
    8c9f:	4c 8d 6b 10          	lea    0x10(%rbx),%r13
    8ca3:	4d 8d 74 24 10       	lea    0x10(%r12),%r14
    8ca8:	48 8b 8d a8 dc ff ff 	mov    -0x2358(%rbp),%rcx
    8caf:	4c 89 fe             	mov    %r15,%rsi
    8cb2:	48 8b 01             	mov    (%rcx),%rax
    8cb5:	48 89 cf             	mov    %rcx,%rdi
    8cb8:	ff 50 10             	callq  *0x10(%rax)
    8cbb:	84 c0                	test   %al,%al
    8cbd:	0f 84 8d 1d 00 00    	je     aa50 <_Z14pipe_interfacePP8HunspelliP8_IO_FILEPc+0x2050>
    8cc3:	48 8b b5 a8 dc ff ff 	mov    -0x2358(%rbp),%rsi
    8cca:	4c 89 fa             	mov    %r15,%rdx
    8ccd:	48 89 df             	mov    %rbx,%rdi
    8cd0:	48 8b 06             	mov    (%rsi),%rax
    8cd3:	ff 50 18             	callq  *0x18(%rax)
    8cd6:	48 8b 85 20 de ff ff 	mov    -0x21e0(%rbp),%rax
    8cdd:	48 8b bd e0 dd ff ff 	mov    -0x2220(%rbp),%rdi
    8ce4:	48 8b 95 28 de ff ff 	mov    -0x21d8(%rbp),%rdx
    8ceb:	4c 39 e8             	cmp    %r13,%rax
    8cee:	0f 84 ec 0a 00 00    	je     97e0 <_Z14pipe_interfacePP8HunspelliP8_IO_FILEPc+0xde0>
    8cf4:	49 8d 4f 10          	lea    0x10(%r15),%rcx
    8cf8:	48 8b b5 30 de ff ff 	mov    -0x21d0(%rbp),%rsi
    8cff:	48 39 cf             	cmp    %rcx,%rdi
    8d02:	0f 84 18 0b 00 00    	je     9820 <_Z14pipe_interfacePP8HunspelliP8_IO_FILEPc+0xe20>
    8d08:	48 85 ff             	test   %rdi,%rdi
    8d0b:	48 8b 8d f0 dd ff ff 	mov    -0x2210(%rbp),%rcx
    8d12:	48 89 85 e0 dd ff ff 	mov    %rax,-0x2220(%rbp)
    8d19:	48 89 95 e8 dd ff ff 	mov    %rdx,-0x2218(%rbp)
    8d20:	48 89 b5 f0 dd ff ff 	mov    %rsi,-0x2210(%rbp)
    8d27:	0f 84 08 0b 00 00    	je     9835 <_Z14pipe_interfacePP8HunspelliP8_IO_FILEPc+0xe35>
    8d2d:	48 89 bd 20 de ff ff 	mov    %rdi,-0x21e0(%rbp)
    8d34:	48 89 8d 30 de ff ff 	mov    %rcx,-0x21d0(%rbp)
    8d3b:	48 c7 85 28 de ff ff 	movq   $0x0,-0x21d8(%rbp)
    8d42:	00 00 00 00 
    8d46:	c6 07 00             	movb   $0x0,(%rdi)
    8d49:	48 8b bd 20 de ff ff 	mov    -0x21e0(%rbp),%rdi
    8d50:	4c 39 ef             	cmp    %r13,%rdi
    8d53:	74 05                	je     8d5a <_Z14pipe_interfacePP8HunspelliP8_IO_FILEPc+0x35a>
    8d55:	e8 a6 ba ff ff       	callq  4800 <_ZdlPv@plt>
    8d5a:	48 8d 15 f4 8c 00 00 	lea    0x8cf4(%rip),%rdx        # 11a55 <_ZTS9XMLParser+0x35d>
    8d61:	48 89 df             	mov    %rbx,%rdi
    8d64:	4c 89 ad 20 de ff ff 	mov    %r13,-0x21e0(%rbp)
    8d6b:	48 8d 72 ff          	lea    -0x1(%rdx),%rsi
    8d6f:	e8 5c d4 ff ff       	callq  61d0 <_ZNSt7__cxx1112basic_stringIcSt11char_traitsIcESaIcEE12_M_constructIPKcEEvT_S8_St20forward_iterator_tag.isra.52>
    8d74:	48 8d 15 66 84 00 00 	lea    0x8466(%rip),%rdx        # 111e1 <_IO_stdin_used+0xde1>
    8d7b:	4c 89 e7             	mov    %r12,%rdi
    8d7e:	4c 89 b5 00 de ff ff 	mov    %r14,-0x2200(%rbp)
    8d85:	48 8d 72 fa          	lea    -0x6(%rdx),%rsi
    8d89:	e8 42 d4 ff ff       	callq  61d0 <_ZNSt7__cxx1112basic_stringIcSt11char_traitsIcESaIcEE12_M_constructIPKcEEvT_S8_St20forward_iterator_tag.isra.52>
    8d8e:	48 89 da             	mov    %rbx,%rdx
    8d91:	4c 89 e6             	mov    %r12,%rsi
    8d94:	4c 89 ff             	mov    %r15,%rdi
    8d97:	e8 24 bb ff ff       	callq  48c0 <_Z8mystrrepRNSt7__cxx1112basic_stringIcSt11char_traitsIcESaIcEEERKS4_S7_@plt>
    8d9c:	48 8b bd 00 de ff ff 	mov    -0x2200(%rbp),%rdi
    8da3:	4c 39 f7             	cmp    %r14,%rdi
    8da6:	74 05                	je     8dad <_Z14pipe_interfacePP8HunspelliP8_IO_FILEPc+0x3ad>
    8da8:	e8 53 ba ff ff       	callq  4800 <_ZdlPv@plt>
    8dad:	48 8b bd 20 de ff ff 	mov    -0x21e0(%rbp),%rdi
    8db4:	4c 39 ef             	cmp    %r13,%rdi
    8db7:	74 05                	je     8dbe <_Z14pipe_interfacePP8HunspelliP8_IO_FILEPc+0x3be>
    8db9:	e8 42 ba ff ff       	callq  4800 <_ZdlPv@plt>
    8dbe:	8b 0d f0 c4 20 00    	mov    0x20c4f0(%rip),%ecx        # 2152b4 <filter_mode>
    8dc4:	83 f9 0b             	cmp    $0xb,%ecx
    8dc7:	0f 87 db fe ff ff    	ja     8ca8 <_Z14pipe_interfacePP8HunspelliP8_IO_FILEPc+0x2a8>
    8dcd:	48 8d 35 78 87 00 00 	lea    0x8778(%rip),%rsi        # 1154c <_IO_stdin_used+0x114c>
    8dd4:	89 ca                	mov    %ecx,%edx
    8dd6:	48 63 04 96          	movslq (%rsi,%rdx,4),%rax
    8dda:	48 01 f0             	add    %rsi,%rax
    8ddd:	ff e0                	jmpq   *%rax
    8ddf:	90                   	nop
    8de0:	48 8d bd 20 dd ff ff 	lea    -0x22e0(%rbp),%rdi
    8de7:	48 8d 15 26 86 00 00 	lea    0x8626(%rip),%rdx        # 11414 <_IO_stdin_used+0x1014>
    8dee:	48 8d 47 10          	lea    0x10(%rdi),%rax
    8df2:	48 89 d6             	mov    %rdx,%rsi
    8df5:	48 89 bd 40 dc ff ff 	mov    %rdi,-0x23c0(%rbp)
    8dfc:	48 89 85 20 dd ff ff 	mov    %rax,-0x22e0(%rbp)
    8e03:	e8 c8 d3 ff ff       	callq  61d0 <_ZNSt7__cxx1112basic_stringIcSt11char_traitsIcESaIcEE12_M_constructIPKcEEvT_S8_St20forward_iterator_tag.isra.52>
    8e08:	31 db                	xor    %ebx,%ebx
    8e0a:	4d 85 e4             	test   %r12,%r12
    8e0d:	0f 84 1d fd ff ff    	je     8b30 <_Z14pipe_interfacePP8HunspelliP8_IO_FILEPc+0x130>
    8e13:	be 2e 00 00 00       	mov    $0x2e,%esi
    8e18:	4c 89 e7             	mov    %r12,%rdi
    8e1b:	e8 c0 e1 ff ff       	callq  6fe0 <_Z8basenamePKcc>
    8e20:	48 89 c3             	mov    %rax,%rbx
    8e23:	e9 08 fd ff ff       	jmpq   8b30 <_Z14pipe_interfacePP8HunspelliP8_IO_FILEPc+0x130>
    8e28:	0f 1f 84 00 00 00 00 	nopl   0x0(%rax,%rax,1)
    8e2f:	00 
    8e30:	83 f9 08             	cmp    $0x8,%ecx
    8e33:	48 8b 05 c6 c3 20 00 	mov    0x20c3c6(%rip),%rax        # 215200 <stderr@@GLIBC_2.2.5>
    8e3a:	48 0f 45 05 9e c3 20 	cmovne 0x20c39e(%rip),%rax        # 2151e0 <stdout@@GLIBC_2.2.5>
    8e41:	00 
    8e42:	48 8b b5 a8 dc ff ff 	mov    -0x2358(%rbp),%rsi
    8e49:	4c 89 fa             	mov    %r15,%rdx
    8e4c:	48 89 df             	mov    %rbx,%rdi
    8e4f:	48 89 85 50 dc ff ff 	mov    %rax,-0x23b0(%rbp)
    8e56:	48 8b 06             	mov    (%rsi),%rax
    8e59:	ff 50 18             	callq  *0x18(%rax)
    8e5c:	48 8b bd 98 dc ff ff 	mov    -0x2368(%rbp),%rdi
    8e63:	48 8d b5 bc dc ff ff 	lea    -0x2344(%rbp),%rsi
    8e6a:	45 31 c0             	xor    %r8d,%r8d
    8e6d:	31 c9                	xor    %ecx,%ecx
    8e6f:	48 89 da             	mov    %rbx,%rdx
    8e72:	e8 b9 e1 ff ff       	callq  7030 <_Z5checkPP8HunspellPiRKNSt7__cxx1112basic_stringIcSt11char_traitsIcESaIcEEES2_PS8_>
    8e77:	48 8b bd 20 de ff ff 	mov    -0x21e0(%rbp),%rdi
    8e7e:	48 3b bd a0 dc ff ff 	cmp    -0x2360(%rbp),%rdi
    8e85:	41 89 c5             	mov    %eax,%r13d
    8e88:	74 05                	je     8e8f <_Z14pipe_interfacePP8HunspelliP8_IO_FILEPc+0x48f>
    8e8a:	e8 71 b9 ff ff       	callq  4800 <_ZdlPv@plt>
    8e8f:	45 84 ed             	test   %r13b,%r13b
    8e92:	0f 85 00 fe ff ff    	jne    8c98 <_Z14pipe_interfacePP8HunspelliP8_IO_FILEPc+0x298>
    8e98:	48 63 85 bc dc ff ff 	movslq -0x2344(%rbp),%rax
    8e9f:	48 8b 8d 98 dc ff ff 	mov    -0x2368(%rbp),%rcx
    8ea6:	4c 8d 35 93 c3 20 00 	lea    0x20c393(%rip),%r14        # 215240 <dic_enc>
    8ead:	48 8b b5 a8 dc ff ff 	mov    -0x2358(%rbp),%rsi
    8eb4:	48 8b 15 d5 c3 20 00 	mov    0x20c3d5(%rip),%rdx        # 215290 <io_enc>
    8ebb:	4c 89 e7             	mov    %r12,%rdi
    8ebe:	4c 8b 2c c1          	mov    (%rcx,%rax,8),%r13
    8ec2:	49 8b 04 c6          	mov    (%r14,%rax,8),%rax
    8ec6:	48 89 95 68 dc ff ff 	mov    %rdx,-0x2398(%rbp)
    8ecd:	4c 89 fa             	mov    %r15,%rdx
    8ed0:	48 89 85 70 dc ff ff 	mov    %rax,-0x2390(%rbp)
    8ed7:	48 8b 06             	mov    (%rsi),%rax
    8eda:	ff 50 18             	callq  *0x18(%rax)
    8edd:	48 8b 8d 70 dc ff ff 	mov    -0x2390(%rbp),%rcx
    8ee4:	48 8b 95 68 dc ff ff 	mov    -0x2398(%rbp),%rdx
    8eeb:	4c 89 e6             	mov    %r12,%rsi
    8eee:	48 89 df             	mov    %rbx,%rdi
    8ef1:	e8 aa d3 ff ff       	callq  62a0 <_Z5chencRKNSt7__cxx1112basic_stringIcSt11char_traitsIcESaIcEEEPKcS8_>
    8ef6:	48 8d 85 00 dd ff ff 	lea    -0x2300(%rbp),%rax
    8efd:	48 89 da             	mov    %rbx,%rdx
    8f00:	4c 89 ee             	mov    %r13,%rsi
    8f03:	48 89 c7             	mov    %rax,%rdi
    8f06:	48 89 85 70 dc ff ff 	mov    %rax,-0x2390(%rbp)
    8f0d:	e8 7e bc ff ff       	callq  4b90 <_ZN8Hunspell7suggestERKNSt7__cxx1112basic_stringIcSt11char_traitsIcESaIcEEE@plt>
    8f12:	48 8b bd 20 de ff ff 	mov    -0x21e0(%rbp),%rdi
    8f19:	48 3b bd a0 dc ff ff 	cmp    -0x2360(%rbp),%rdi
    8f20:	74 05                	je     8f27 <_Z14pipe_interfacePP8HunspelliP8_IO_FILEPc+0x527>
    8f22:	e8 d9 b8 ff ff       	callq  4800 <_ZdlPv@plt>
    8f27:	48 8b bd 00 de ff ff 	mov    -0x2200(%rbp),%rdi
    8f2e:	49 83 c4 10          	add    $0x10,%r12
    8f32:	4c 39 e7             	cmp    %r12,%rdi
    8f35:	74 05                	je     8f3c <_Z14pipe_interfacePP8HunspelliP8_IO_FILEPc+0x53c>
    8f37:	e8 c4 b8 ff ff       	callq  4800 <_ZdlPv@plt>
    8f3c:	4c 8b ad 08 dd ff ff 	mov    -0x22f8(%rbp),%r13
    8f43:	48 8b b5 00 dd ff ff 	mov    -0x2300(%rbp),%rsi
    8f4a:	4c 39 ee             	cmp    %r13,%rsi
    8f4d:	0f 84 66 01 00 00    	je     90b9 <_Z14pipe_interfacePP8HunspelliP8_IO_FILEPc+0x6b9>
    8f53:	4c 8b ad a8 dc ff ff 	mov    -0x2358(%rbp),%r13
    8f5a:	48 8b 0d 2f c3 20 00 	mov    0x20c32f(%rip),%rcx        # 215290 <io_enc>
    8f61:	48 89 df             	mov    %rbx,%rdi
    8f64:	49 8b 45 00          	mov    0x0(%r13),%rax
    8f68:	4c 8b 60 20          	mov    0x20(%rax),%r12
    8f6c:	48 63 85 bc dc ff ff 	movslq -0x2344(%rbp),%rax
    8f73:	49 8b 14 c6          	mov    (%r14,%rax,8),%rdx
    8f77:	e8 24 d3 ff ff       	callq  62a0 <_Z5chencRKNSt7__cxx1112basic_stringIcSt11char_traitsIcESaIcEEEPKcS8_>
    8f7c:	48 8b b5 20 de ff ff 	mov    -0x21e0(%rbp),%rsi
    8f83:	4c 89 ef             	mov    %r13,%rdi
    8f86:	41 ff d4             	callq  *%r12
    8f89:	48 8b bd 20 de ff ff 	mov    -0x21e0(%rbp),%rdi
    8f90:	48 3b bd a0 dc ff ff 	cmp    -0x2360(%rbp),%rdi
    8f97:	74 05                	je     8f9e <_Z14pipe_interfacePP8HunspelliP8_IO_FILEPc+0x59e>
    8f99:	e8 62 b8 ff ff       	callq  4800 <_ZdlPv@plt>
    8f9e:	8b 05 10 c3 20 00    	mov    0x20c310(%rip),%eax        # 2152b4 <filter_mode>
    8fa4:	48 8b 35 e5 c2 20 00 	mov    0x20c2e5(%rip),%rsi        # 215290 <io_enc>
    8fab:	83 f8 0a             	cmp    $0xa,%eax
    8fae:	0f 84 e1 1e 00 00    	je     ae95 <_Z14pipe_interfacePP8HunspelliP8_IO_FILEPc+0x2495>
    8fb4:	83 f8 09             	cmp    $0x9,%eax
    8fb7:	0f 84 73 1f 00 00    	je     af30 <_Z14pipe_interfacePP8HunspelliP8_IO_FILEPc+0x2530>
    8fbd:	48 8b 0d d4 c2 20 00 	mov    0x20c2d4(%rip),%rcx        # 215298 <ui_enc>
    8fc4:	48 89 f2             	mov    %rsi,%rdx
    8fc7:	48 89 df             	mov    %rbx,%rdi
    8fca:	4c 89 fe             	mov    %r15,%rsi
    8fcd:	e8 ce d2 ff ff       	callq  62a0 <_Z5chencRKNSt7__cxx1112basic_stringIcSt11char_traitsIcESaIcEEEPKcS8_>
    8fd2:	48 8d 3d 33 83 00 00 	lea    0x8333(%rip),%rdi        # 1130c <_IO_stdin_used+0xf0c>
    8fd9:	4c 8b a5 20 de ff ff 	mov    -0x21e0(%rbp),%r12
    8fe0:	e8 2b b6 ff ff       	callq  4610 <gettext@plt>
    8fe5:	8b 8d 80 dc ff ff    	mov    -0x2380(%rbp),%ecx
    8feb:	48 8b bd 50 dc ff ff 	mov    -0x23b0(%rbp),%rdi
    8ff2:	48 89 c2             	mov    %rax,%rdx
    8ff5:	4d 89 e0             	mov    %r12,%r8
    8ff8:	be 01 00 00 00       	mov    $0x1,%esi
    8ffd:	31 c0                	xor    %eax,%eax
    8fff:	e8 dc ba ff ff       	callq  4ae0 <__fprintf_chk@plt>
    9004:	48 8b bd 20 de ff ff 	mov    -0x21e0(%rbp),%rdi
    900b:	48 3b bd a0 dc ff ff 	cmp    -0x2360(%rbp),%rdi
    9012:	74 05                	je     9019 <_Z14pipe_interfacePP8HunspelliP8_IO_FILEPc+0x619>
    9014:	e8 e7 b7 ff ff       	callq  4800 <_ZdlPv@plt>
    9019:	48 63 85 bc dc ff ff 	movslq -0x2344(%rbp),%rax
    9020:	48 8b 0d 71 c2 20 00 	mov    0x20c271(%rip),%rcx        # 215298 <ui_enc>
    9027:	48 89 df             	mov    %rbx,%rdi
    902a:	48 8b b5 00 dd ff ff 	mov    -0x2300(%rbp),%rsi
    9031:	49 8b 14 c6          	mov    (%r14,%rax,8),%rdx
    9035:	e8 66 d2 ff ff       	callq  62a0 <_Z5chencRKNSt7__cxx1112basic_stringIcSt11char_traitsIcESaIcEEEPKcS8_>
    903a:	48 8b 8d 20 de ff ff 	mov    -0x21e0(%rbp),%rcx
    9041:	48 8b bd 50 dc ff ff 	mov    -0x23b0(%rbp),%rdi
    9048:	48 8d 15 97 84 00 00 	lea    0x8497(%rip),%rdx        # 114e6 <_IO_stdin_used+0x10e6>
    904f:	be 01 00 00 00       	mov    $0x1,%esi
    9054:	31 c0                	xor    %eax,%eax
    9056:	e8 85 ba ff ff       	callq  4ae0 <__fprintf_chk@plt>
    905b:	48 8b bd 20 de ff ff 	mov    -0x21e0(%rbp),%rdi
    9062:	48 3b bd a0 dc ff ff 	cmp    -0x2360(%rbp),%rdi
    9069:	74 05                	je     9070 <_Z14pipe_interfacePP8HunspelliP8_IO_FILEPc+0x670>
    906b:	e8 90 b7 ff ff       	callq  4800 <_ZdlPv@plt>
    9070:	4c 8b a5 08 dd ff ff 	mov    -0x22f8(%rbp),%r12
    9077:	4c 8b ad 00 dd ff ff 	mov    -0x2300(%rbp),%r13
    907e:	4d 39 ec             	cmp    %r13,%r12
    9081:	74 36                	je     90b9 <_Z14pipe_interfacePP8HunspelliP8_IO_FILEPc+0x6b9>
    9083:	48 8b 85 a8 dc ff ff 	mov    -0x2358(%rbp),%rax
    908a:	49 89 c6             	mov    %rax,%r14
    908d:	0f 1f 00             	nopl   (%rax)
    9090:	49 8b 7d 00          	mov    0x0(%r13),%rdi
    9094:	49 8d 45 10          	lea    0x10(%r13),%rax
    9098:	48 39 c7             	cmp    %rax,%rdi
    909b:	74 05                	je     90a2 <_Z14pipe_interfacePP8HunspelliP8_IO_FILEPc+0x6a2>
    909d:	e8 5e b7 ff ff       	callq  4800 <_ZdlPv@plt>
    90a2:	49 83 c5 20          	add    $0x20,%r13
    90a6:	4d 39 ec             	cmp    %r13,%r12
    90a9:	75 e5                	jne    9090 <_Z14pipe_interfacePP8HunspelliP8_IO_FILEPc+0x690>
    90ab:	4c 8b ad 00 dd ff ff 	mov    -0x2300(%rbp),%r13
    90b2:	4c 89 b5 a8 dc ff ff 	mov    %r14,-0x2358(%rbp)
    90b9:	4d 85 ed             	test   %r13,%r13
    90bc:	0f 84 25 05 00 00    	je     95e7 <_Z14pipe_interfacePP8HunspelliP8_IO_FILEPc+0xbe7>
    90c2:	4c 89 ef             	mov    %r13,%rdi
    90c5:	e8 36 b7 ff ff       	callq  4800 <_ZdlPv@plt>
    90ca:	e9 18 05 00 00       	jmpq   95e7 <_Z14pipe_interfacePP8HunspelliP8_IO_FILEPc+0xbe7>
    90cf:	90                   	nop
    90d0:	48 8b b5 a8 dc ff ff 	mov    -0x2358(%rbp),%rsi
    90d7:	49 8d 44 24 10       	lea    0x10(%r12),%rax
    90dc:	48 c7 85 08 de ff ff 	movq   $0x0,-0x21f8(%rbp)
    90e3:	00 00 00 00 
    90e7:	c6 85 10 de ff ff 00 	movb   $0x0,-0x21f0(%rbp)
    90ee:	4c 89 fa             	mov    %r15,%rdx
    90f1:	48 89 df             	mov    %rbx,%rdi
    90f4:	48 89 85 00 de ff ff 	mov    %rax,-0x2200(%rbp)
    90fb:	48 8b 06             	mov    (%rsi),%rax
    90fe:	ff 50 18             	callq  *0x18(%rax)
    9101:	48 8b bd 98 dc ff ff 	mov    -0x2368(%rbp),%rdi
    9108:	48 8d 8d e0 dc ff ff 	lea    -0x2320(%rbp),%rcx
    910f:	48 8d b5 bc dc ff ff 	lea    -0x2344(%rbp),%rsi
    9116:	4d 89 e0             	mov    %r12,%r8
    9119:	48 89 da             	mov    %rbx,%rdx
    911c:	e8 0f df ff ff       	callq  7030 <_Z5checkPP8HunspellPiRKNSt7__cxx1112basic_stringIcSt11char_traitsIcESaIcEEES2_PS8_>
    9121:	48 8b bd 20 de ff ff 	mov    -0x21e0(%rbp),%rdi
    9128:	48 3b bd a0 dc ff ff 	cmp    -0x2360(%rbp),%rdi
    912f:	41 89 c5             	mov    %eax,%r13d
    9132:	74 05                	je     9139 <_Z14pipe_interfacePP8HunspelliP8_IO_FILEPc+0x739>
    9134:	e8 c7 b6 ff ff       	callq  4800 <_ZdlPv@plt>
    9139:	45 84 ed             	test   %r13b,%r13b
    913c:	0f 84 7e 0e 00 00    	je     9fc0 <_Z14pipe_interfacePP8HunspelliP8_IO_FILEPc+0x15c0>
    9142:	44 8b 85 4c dc ff ff 	mov    -0x23b4(%rbp),%r8d
    9149:	48 8b 3d 90 c0 20 00 	mov    0x20c090(%rip),%rdi        # 2151e0 <stdout@@GLIBC_2.2.5>
    9150:	45 85 c0             	test   %r8d,%r8d
    9153:	75 2f                	jne    9184 <_Z14pipe_interfacePP8HunspelliP8_IO_FILEPc+0x784>
    9155:	8b b5 48 dc ff ff    	mov    -0x23b8(%rbp),%esi
    915b:	85 f6                	test   %esi,%esi
    915d:	0f 84 a5 0b 00 00    	je     9d08 <_Z14pipe_interfacePP8HunspelliP8_IO_FILEPc+0x1308>
    9163:	48 8b 8d e0 dd ff ff 	mov    -0x2220(%rbp),%rcx
    916a:	48 8d 15 ce 81 00 00 	lea    0x81ce(%rip),%rdx        # 1133f <_IO_stdin_used+0xf3f>
    9171:	be 01 00 00 00       	mov    $0x1,%esi
    9176:	31 c0                	xor    %eax,%eax
    9178:	e8 63 b9 ff ff       	callq  4ae0 <__fprintf_chk@plt>
    917d:	48 8b 3d 5c c0 20 00 	mov    0x20c05c(%rip),%rdi        # 2151e0 <stdout@@GLIBC_2.2.5>
    9184:	e8 97 b7 ff ff       	callq  4920 <fflush@plt>
    9189:	48 8b bd 00 de ff ff 	mov    -0x2200(%rbp),%rdi
    9190:	49 83 c4 10          	add    $0x10,%r12
    9194:	4c 39 e7             	cmp    %r12,%rdi
    9197:	0f 84 fb fa ff ff    	je     8c98 <_Z14pipe_interfacePP8HunspelliP8_IO_FILEPc+0x298>
    919d:	e8 5e b6 ff ff       	callq  4800 <_ZdlPv@plt>
    91a2:	e9 f1 fa ff ff       	jmpq   8c98 <_Z14pipe_interfacePP8HunspelliP8_IO_FILEPc+0x298>
    91a7:	66 0f 1f 84 00 00 00 	nopw   0x0(%rax,%rax,1)
    91ae:	00 00 
    91b0:	48 63 85 bc dc ff ff 	movslq -0x2344(%rbp),%rax
    91b7:	48 8b 8d 98 dc ff ff 	mov    -0x2368(%rbp),%rcx
    91be:	4c 8d 35 7b c0 20 00 	lea    0x20c07b(%rip),%r14        # 215240 <dic_enc>
    91c5:	48 8b 15 c4 c0 20 00 	mov    0x20c0c4(%rip),%rdx        # 215290 <io_enc>
    91cc:	4c 89 fe             	mov    %r15,%rsi
    91cf:	48 89 df             	mov    %rbx,%rdi
    91d2:	4c 8b 24 c1          	mov    (%rcx,%rax,8),%r12
    91d6:	49 8b 0c c6          	mov    (%r14,%rax,8),%rcx
    91da:	e8 c1 d0 ff ff       	callq  62a0 <_Z5chencRKNSt7__cxx1112basic_stringIcSt11char_traitsIcESaIcEEEPKcS8_>
    91df:	4c 8d ad e0 dc ff ff 	lea    -0x2320(%rbp),%r13
    91e6:	48 89 da             	mov    %rbx,%rdx
    91e9:	4c 89 e6             	mov    %r12,%rsi
    91ec:	4c 89 ef             	mov    %r13,%rdi
    91ef:	e8 cc b5 ff ff       	callq  47c0 <_ZN8Hunspell7analyzeERKNSt7__cxx1112basic_stringIcSt11char_traitsIcESaIcEEE@plt>
    91f4:	48 8b bd 20 de ff ff 	mov    -0x21e0(%rbp),%rdi
    91fb:	48 3b bd a0 dc ff ff 	cmp    -0x2360(%rbp),%rdi
    9202:	74 05                	je     9209 <_Z14pipe_interfacePP8HunspelliP8_IO_FILEPc+0x809>
    9204:	e8 f7 b5 ff ff       	callq  4800 <_ZdlPv@plt>
    9209:	48 8b b5 e0 dc ff ff 	mov    -0x2320(%rbp),%rsi
    9210:	48 8b 95 e8 dc ff ff 	mov    -0x2318(%rbp),%rdx
    9217:	48 39 f2             	cmp    %rsi,%rdx
    921a:	0f 84 c0 0f 00 00    	je     a1e0 <_Z14pipe_interfacePP8HunspelliP8_IO_FILEPc+0x17e0>
    9220:	45 31 e4             	xor    %r12d,%r12d
    9223:	0f 1f 44 00 00       	nopl   0x0(%rax,%rax,1)
    9228:	48 63 85 bc dc ff ff 	movslq -0x2344(%rbp),%rax
    922f:	48 8b 0d 62 c0 20 00 	mov    0x20c062(%rip),%rcx        # 215298 <ui_enc>
    9236:	48 89 df             	mov    %rbx,%rdi
    9239:	49 8b 14 c6          	mov    (%r14,%rax,8),%rdx
    923d:	4c 89 e0             	mov    %r12,%rax
    9240:	48 c1 e0 05          	shl    $0x5,%rax
    9244:	48 01 c6             	add    %rax,%rsi
    9247:	e8 54 d0 ff ff       	callq  62a0 <_Z5chencRKNSt7__cxx1112basic_stringIcSt11char_traitsIcESaIcEEEPKcS8_>
    924c:	4c 8b 85 20 de ff ff 	mov    -0x21e0(%rbp),%r8
    9253:	48 8b 8d e0 dd ff ff 	mov    -0x2220(%rbp),%rcx
    925a:	48 8d 15 bb 80 00 00 	lea    0x80bb(%rip),%rdx        # 1131c <_IO_stdin_used+0xf1c>
    9261:	48 8b 3d 78 bf 20 00 	mov    0x20bf78(%rip),%rdi        # 2151e0 <stdout@@GLIBC_2.2.5>
    9268:	be 01 00 00 00       	mov    $0x1,%esi
    926d:	31 c0                	xor    %eax,%eax
    926f:	e8 6c b8 ff ff       	callq  4ae0 <__fprintf_chk@plt>
    9274:	48 8b bd 20 de ff ff 	mov    -0x21e0(%rbp),%rdi
    927b:	48 3b bd a0 dc ff ff 	cmp    -0x2360(%rbp),%rdi
    9282:	74 05                	je     9289 <_Z14pipe_interfacePP8HunspelliP8_IO_FILEPc+0x889>
    9284:	e8 77 b5 ff ff       	callq  4800 <_ZdlPv@plt>
    9289:	48 8b 95 e8 dc ff ff 	mov    -0x2318(%rbp),%rdx
    9290:	48 8b b5 e0 dc ff ff 	mov    -0x2320(%rbp),%rsi
    9297:	49 83 c4 01          	add    $0x1,%r12
    929b:	48 89 d0             	mov    %rdx,%rax
    929e:	48 29 f0             	sub    %rsi,%rax
    92a1:	48 c1 f8 05          	sar    $0x5,%rax
    92a5:	49 39 c4             	cmp    %rax,%r12
    92a8:	0f 82 7a ff ff ff    	jb     9228 <_Z14pipe_interfacePP8HunspelliP8_IO_FILEPc+0x828>
    92ae:	48 39 f2             	cmp    %rsi,%rdx
    92b1:	0f 84 29 0f 00 00    	je     a1e0 <_Z14pipe_interfacePP8HunspelliP8_IO_FILEPc+0x17e0>
    92b7:	48 39 f2             	cmp    %rsi,%rdx
    92ba:	0f 84 70 11 00 00    	je     a430 <_Z14pipe_interfacePP8HunspelliP8_IO_FILEPc+0x1a30>
    92c0:	48 8b 35 19 bf 20 00 	mov    0x20bf19(%rip),%rsi        # 2151e0 <stdout@@GLIBC_2.2.5>
    92c7:	bf 0a 00 00 00       	mov    $0xa,%edi
    92cc:	e8 af b6 ff ff       	callq  4980 <fputc@plt>
    92d1:	4c 8b a5 e8 dc ff ff 	mov    -0x2318(%rbp),%r12
    92d8:	4c 8b ad e0 dc ff ff 	mov    -0x2320(%rbp),%r13
    92df:	4d 39 ec             	cmp    %r13,%r12
    92e2:	0f 84 c1 01 00 00    	je     94a9 <_Z14pipe_interfacePP8HunspelliP8_IO_FILEPc+0xaa9>
    92e8:	48 8b 85 a8 dc ff ff 	mov    -0x2358(%rbp),%rax
    92ef:	49 89 c6             	mov    %rax,%r14
    92f2:	66 0f 1f 44 00 00    	nopw   0x0(%rax,%rax,1)
    92f8:	49 8b 7d 00          	mov    0x0(%r13),%rdi
    92fc:	49 8d 45 10          	lea    0x10(%r13),%rax
    9300:	48 39 c7             	cmp    %rax,%rdi
    9303:	74 05                	je     930a <_Z14pipe_interfacePP8HunspelliP8_IO_FILEPc+0x90a>
    9305:	e8 f6 b4 ff ff       	callq  4800 <_ZdlPv@plt>
    930a:	49 83 c5 20          	add    $0x20,%r13
    930e:	4d 39 ec             	cmp    %r13,%r12
    9311:	75 e5                	jne    92f8 <_Z14pipe_interfacePP8HunspelliP8_IO_FILEPc+0x8f8>
    9313:	4c 89 b5 a8 dc ff ff 	mov    %r14,-0x2358(%rbp)
    931a:	4c 8b ad e0 dc ff ff 	mov    -0x2320(%rbp),%r13
    9321:	e9 83 01 00 00       	jmpq   94a9 <_Z14pipe_interfacePP8HunspelliP8_IO_FILEPc+0xaa9>
    9326:	66 2e 0f 1f 84 00 00 	nopw   %cs:0x0(%rax,%rax,1)
    932d:	00 00 00 
    9330:	48 63 85 bc dc ff ff 	movslq -0x2344(%rbp),%rax
    9337:	48 8b 8d 98 dc ff ff 	mov    -0x2368(%rbp),%rcx
    933e:	4c 8d 35 fb be 20 00 	lea    0x20befb(%rip),%r14        # 215240 <dic_enc>
    9345:	48 8b 15 44 bf 20 00 	mov    0x20bf44(%rip),%rdx        # 215290 <io_enc>
    934c:	4c 89 fe             	mov    %r15,%rsi
    934f:	48 89 df             	mov    %rbx,%rdi
    9352:	4c 8b 24 c1          	mov    (%rcx,%rax,8),%r12
    9356:	49 8b 0c c6          	mov    (%r14,%rax,8),%rcx
    935a:	e8 41 cf ff ff       	callq  62a0 <_Z5chencRKNSt7__cxx1112basic_stringIcSt11char_traitsIcESaIcEEEPKcS8_>
    935f:	48 8d 85 00 dd ff ff 	lea    -0x2300(%rbp),%rax
    9366:	48 89 da             	mov    %rbx,%rdx
    9369:	4c 89 e6             	mov    %r12,%rsi
    936c:	48 89 c7             	mov    %rax,%rdi
    936f:	48 89 85 70 dc ff ff 	mov    %rax,-0x2390(%rbp)
    9376:	e8 75 b2 ff ff       	callq  45f0 <_ZN8Hunspell4stemERKNSt7__cxx1112basic_stringIcSt11char_traitsIcESaIcEEE@plt>
    937b:	48 8b bd 20 de ff ff 	mov    -0x21e0(%rbp),%rdi
    9382:	48 3b bd a0 dc ff ff 	cmp    -0x2360(%rbp),%rdi
    9389:	74 05                	je     9390 <_Z14pipe_interfacePP8HunspelliP8_IO_FILEPc+0x990>
    938b:	e8 70 b4 ff ff       	callq  4800 <_ZdlPv@plt>
    9390:	48 8b b5 00 dd ff ff 	mov    -0x2300(%rbp),%rsi
    9397:	48 8b 95 08 dd ff ff 	mov    -0x22f8(%rbp),%rdx
    939e:	48 39 d6             	cmp    %rdx,%rsi
    93a1:	0f 84 8f 00 00 00    	je     9436 <_Z14pipe_interfacePP8HunspelliP8_IO_FILEPc+0xa36>
    93a7:	45 31 e4             	xor    %r12d,%r12d
    93aa:	66 0f 1f 44 00 00    	nopw   0x0(%rax,%rax,1)
    93b0:	48 63 85 bc dc ff ff 	movslq -0x2344(%rbp),%rax
    93b7:	48 8b 0d da be 20 00 	mov    0x20beda(%rip),%rcx        # 215298 <ui_enc>
    93be:	48 89 df             	mov    %rbx,%rdi
    93c1:	49 8b 14 c6          	mov    (%r14,%rax,8),%rdx
    93c5:	4c 89 e0             	mov    %r12,%rax
    93c8:	48 c1 e0 05          	shl    $0x5,%rax
    93cc:	48 01 c6             	add    %rax,%rsi
    93cf:	e8 cc ce ff ff       	callq  62a0 <_Z5chencRKNSt7__cxx1112basic_stringIcSt11char_traitsIcESaIcEEEPKcS8_>
    93d4:	4c 8b 85 20 de ff ff 	mov    -0x21e0(%rbp),%r8
    93db:	48 8b 8d e0 dd ff ff 	mov    -0x2220(%rbp),%rcx
    93e2:	48 8d 15 33 7f 00 00 	lea    0x7f33(%rip),%rdx        # 1131c <_IO_stdin_used+0xf1c>
    93e9:	48 8b 3d f0 bd 20 00 	mov    0x20bdf0(%rip),%rdi        # 2151e0 <stdout@@GLIBC_2.2.5>
    93f0:	be 01 00 00 00       	mov    $0x1,%esi
    93f5:	31 c0                	xor    %eax,%eax
    93f7:	e8 e4 b6 ff ff       	callq  4ae0 <__fprintf_chk@plt>
    93fc:	48 8b bd 20 de ff ff 	mov    -0x21e0(%rbp),%rdi
    9403:	48 3b bd a0 dc ff ff 	cmp    -0x2360(%rbp),%rdi
    940a:	74 05                	je     9411 <_Z14pipe_interfacePP8HunspelliP8_IO_FILEPc+0xa11>
    940c:	e8 ef b3 ff ff       	callq  4800 <_ZdlPv@plt>
    9411:	48 8b 95 08 dd ff ff 	mov    -0x22f8(%rbp),%rdx
    9418:	48 8b b5 00 dd ff ff 	mov    -0x2300(%rbp),%rsi
    941f:	49 83 c4 01          	add    $0x1,%r12
    9423:	48 89 d0             	mov    %rdx,%rax
    9426:	48 29 f0             	sub    %rsi,%rax
    9429:	48 c1 f8 05          	sar    $0x5,%rax
    942d:	49 39 c4             	cmp    %rax,%r12
    9430:	0f 82 7a ff ff ff    	jb     93b0 <_Z14pipe_interfacePP8HunspelliP8_IO_FILEPc+0x9b0>
    9436:	48 39 f2             	cmp    %rsi,%rdx
    9439:	0f 84 b1 10 00 00    	je     a4f0 <_Z14pipe_interfacePP8HunspelliP8_IO_FILEPc+0x1af0>
    943f:	48 39 d6             	cmp    %rdx,%rsi
    9442:	0f 84 48 10 00 00    	je     a490 <_Z14pipe_interfacePP8HunspelliP8_IO_FILEPc+0x1a90>
    9448:	48 8b 35 91 bd 20 00 	mov    0x20bd91(%rip),%rsi        # 2151e0 <stdout@@GLIBC_2.2.5>
    944f:	bf 0a 00 00 00       	mov    $0xa,%edi
    9454:	e8 27 b5 ff ff       	callq  4980 <fputc@plt>
    9459:	4c 8b a5 08 dd ff ff 	mov    -0x22f8(%rbp),%r12
    9460:	4c 8b ad 00 dd ff ff 	mov    -0x2300(%rbp),%r13
    9467:	4d 39 ec             	cmp    %r13,%r12
    946a:	74 3d                	je     94a9 <_Z14pipe_interfacePP8HunspelliP8_IO_FILEPc+0xaa9>
    946c:	48 8b 85 a8 dc ff ff 	mov    -0x2358(%rbp),%rax
    9473:	49 89 c6             	mov    %rax,%r14
    9476:	66 2e 0f 1f 84 00 00 	nopw   %cs:0x0(%rax,%rax,1)
    947d:	00 00 00 
    9480:	49 8b 7d 00          	mov    0x0(%r13),%rdi
    9484:	49 8d 45 10          	lea    0x10(%r13),%rax
    9488:	48 39 c7             	cmp    %rax,%rdi
    948b:	74 05                	je     9492 <_Z14pipe_interfacePP8HunspelliP8_IO_FILEPc+0xa92>
    948d:	e8 6e b3 ff ff       	callq  4800 <_ZdlPv@plt>
    9492:	49 83 c5 20          	add    $0x20,%r13
    9496:	4d 39 ec             	cmp    %r13,%r12
    9499:	75 e5                	jne    9480 <_Z14pipe_interfacePP8HunspelliP8_IO_FILEPc+0xa80>
    949b:	4c 8b ad 00 dd ff ff 	mov    -0x2300(%rbp),%r13
    94a2:	4c 89 b5 a8 dc ff ff 	mov    %r14,-0x2358(%rbp)
    94a9:	4d 85 ed             	test   %r13,%r13
    94ac:	0f 84 e6 f7 ff ff    	je     8c98 <_Z14pipe_interfacePP8HunspelliP8_IO_FILEPc+0x298>
    94b2:	4c 89 ef             	mov    %r13,%rdi
    94b5:	e8 46 b3 ff ff       	callq  4800 <_ZdlPv@plt>
    94ba:	e9 d9 f7 ff ff       	jmpq   8c98 <_Z14pipe_interfacePP8HunspelliP8_IO_FILEPc+0x298>
    94bf:	90                   	nop
    94c0:	48 8b b5 a8 dc ff ff 	mov    -0x2358(%rbp),%rsi
    94c7:	4c 89 fa             	mov    %r15,%rdx
    94ca:	48 89 df             	mov    %rbx,%rdi
    94cd:	48 8b 06             	mov    (%rsi),%rax
    94d0:	ff 50 18             	callq  *0x18(%rax)
    94d3:	48 8b bd 98 dc ff ff 	mov    -0x2368(%rbp),%rdi
    94da:	48 8d b5 bc dc ff ff 	lea    -0x2344(%rbp),%rsi
    94e1:	45 31 c0             	xor    %r8d,%r8d
    94e4:	31 c9                	xor    %ecx,%ecx
    94e6:	48 89 da             	mov    %rbx,%rdx
    94e9:	e8 42 db ff ff       	callq  7030 <_Z5checkPP8HunspellPiRKNSt7__cxx1112basic_stringIcSt11char_traitsIcESaIcEEES2_PS8_>
    94ee:	48 8b bd 20 de ff ff 	mov    -0x21e0(%rbp),%rdi
    94f5:	41 89 c4             	mov    %eax,%r12d
    94f8:	48 8d 43 10          	lea    0x10(%rbx),%rax
    94fc:	48 39 c7             	cmp    %rax,%rdi
    94ff:	74 05                	je     9506 <_Z14pipe_interfacePP8HunspelliP8_IO_FILEPc+0xb06>
    9501:	e8 fa b2 ff ff       	callq  4800 <_ZdlPv@plt>
    9506:	45 84 e4             	test   %r12b,%r12b
    9509:	8b 15 a1 bd 20 00    	mov    0x20bda1(%rip),%edx        # 2152b0 <printgood>
    950f:	0f 85 63 04 00 00    	jne    9978 <_Z14pipe_interfacePP8HunspelliP8_IO_FILEPc+0xf78>
    9515:	85 d2                	test   %edx,%edx
    9517:	0f 84 63 04 00 00    	je     9980 <_Z14pipe_interfacePP8HunspelliP8_IO_FILEPc+0xf80>
    951d:	48 8b bd e0 dd ff ff 	mov    -0x2220(%rbp),%rdi
    9524:	49 8d 47 10          	lea    0x10(%r15),%rax
    9528:	48 39 c7             	cmp    %rax,%rdi
    952b:	0f 84 cb f6 ff ff    	je     8bfc <_Z14pipe_interfacePP8HunspelliP8_IO_FILEPc+0x1fc>
    9531:	e8 ca b2 ff ff       	callq  4800 <_ZdlPv@plt>
    9536:	e9 c1 f6 ff ff       	jmpq   8bfc <_Z14pipe_interfacePP8HunspelliP8_IO_FILEPc+0x1fc>
    953b:	0f 1f 44 00 00       	nopl   0x0(%rax,%rax,1)
    9540:	48 8b bd 98 dc ff ff 	mov    -0x2368(%rbp),%rdi
    9547:	48 8d b5 bc dc ff ff 	lea    -0x2344(%rbp),%rsi
    954e:	45 31 c0             	xor    %r8d,%r8d
    9551:	31 c9                	xor    %ecx,%ecx
    9553:	4c 89 fa             	mov    %r15,%rdx
    9556:	e8 d5 da ff ff       	callq  7030 <_Z5checkPP8HunspellPiRKNSt7__cxx1112basic_stringIcSt11char_traitsIcESaIcEEES2_PS8_>
    955b:	84 c0                	test   %al,%al
    955d:	8b 15 4d bd 20 00    	mov    0x20bd4d(%rip),%edx        # 2152b0 <printgood>
    9563:	0f 85 d7 03 00 00    	jne    9940 <_Z14pipe_interfacePP8HunspelliP8_IO_FILEPc+0xf40>
    9569:	85 d2                	test   %edx,%edx
    956b:	75 7a                	jne    95e7 <_Z14pipe_interfacePP8HunspelliP8_IO_FILEPc+0xbe7>
    956d:	4c 8b 85 e0 dd ff ff 	mov    -0x2220(%rbp),%r8
    9574:	48 8b 8d 20 dd ff ff 	mov    -0x22e0(%rbp),%rcx
    957b:	48 8d 15 a0 7c 00 00 	lea    0x7ca0(%rip),%rdx        # 11222 <_IO_stdin_used+0xe22>
    9582:	48 8b 3d 57 bc 20 00 	mov    0x20bc57(%rip),%rdi        # 2151e0 <stdout@@GLIBC_2.2.5>
    9589:	be 01 00 00 00       	mov    $0x1,%esi
    958e:	e8 4d b5 ff ff       	callq  4ae0 <__fprintf_chk@plt>
    9593:	eb 52                	jmp    95e7 <_Z14pipe_interfacePP8HunspelliP8_IO_FILEPc+0xbe7>
    9595:	0f 1f 00             	nopl   (%rax)
    9598:	48 8b b5 a8 dc ff ff 	mov    -0x2358(%rbp),%rsi
    959f:	4c 89 fa             	mov    %r15,%rdx
    95a2:	48 89 df             	mov    %rbx,%rdi
    95a5:	48 8b 06             	mov    (%rsi),%rax
    95a8:	ff 50 18             	callq  *0x18(%rax)
    95ab:	48 8b bd 98 dc ff ff 	mov    -0x2368(%rbp),%rdi
    95b2:	48 8d b5 bc dc ff ff 	lea    -0x2344(%rbp),%rsi
    95b9:	45 31 c0             	xor    %r8d,%r8d
    95bc:	31 c9                	xor    %ecx,%ecx
    95be:	48 89 da             	mov    %rbx,%rdx
    95c1:	e8 6a da ff ff       	callq  7030 <_Z5checkPP8HunspellPiRKNSt7__cxx1112basic_stringIcSt11char_traitsIcESaIcEEES2_PS8_>
    95c6:	48 8b bd 20 de ff ff 	mov    -0x21e0(%rbp),%rdi
    95cd:	48 3b bd a0 dc ff ff 	cmp    -0x2360(%rbp),%rdi
    95d4:	41 89 c4             	mov    %eax,%r12d
    95d7:	74 05                	je     95de <_Z14pipe_interfacePP8HunspelliP8_IO_FILEPc+0xbde>
    95d9:	e8 22 b2 ff ff       	callq  4800 <_ZdlPv@plt>
    95de:	45 84 e4             	test   %r12b,%r12b
    95e1:	0f 85 b1 f6 ff ff    	jne    8c98 <_Z14pipe_interfacePP8HunspelliP8_IO_FILEPc+0x298>
    95e7:	c7 85 68 dc ff ff 01 	movl   $0x1,-0x2398(%rbp)
    95ee:	00 00 00 
    95f1:	e9 a2 f6 ff ff       	jmpq   8c98 <_Z14pipe_interfacePP8HunspelliP8_IO_FILEPc+0x298>
    95f6:	66 2e 0f 1f 84 00 00 	nopw   %cs:0x0(%rax,%rax,1)
    95fd:	00 00 00 
    9600:	48 8b bd 98 dc ff ff 	mov    -0x2368(%rbp),%rdi
    9607:	49 8d 44 24 10       	lea    0x10(%r12),%rax
    960c:	48 8d 8d e0 dc ff ff 	lea    -0x2320(%rbp),%rcx
    9613:	48 8d b5 bc dc ff ff 	lea    -0x2344(%rbp),%rsi
    961a:	4d 89 e0             	mov    %r12,%r8
    961d:	4c 89 fa             	mov    %r15,%rdx
    9620:	48 89 85 00 de ff ff 	mov    %rax,-0x2200(%rbp)
    9627:	48 c7 85 08 de ff ff 	movq   $0x0,-0x21f8(%rbp)
    962e:	00 00 00 00 
    9632:	c6 85 10 de ff ff 00 	movb   $0x0,-0x21f0(%rbp)
    9639:	e8 f2 d9 ff ff       	callq  7030 <_Z5checkPP8HunspellPiRKNSt7__cxx1112basic_stringIcSt11char_traitsIcESaIcEEES2_PS8_>
    963e:	84 c0                	test   %al,%al
    9640:	0f 84 1a 07 00 00    	je     9d60 <_Z14pipe_interfacePP8HunspelliP8_IO_FILEPc+0x1360>
    9646:	f6 85 e0 dc ff ff 01 	testb  $0x1,-0x2320(%rbp)
    964d:	0f 85 dd 06 00 00    	jne    9d30 <_Z14pipe_interfacePP8HunspelliP8_IO_FILEPc+0x1330>
    9653:	48 83 bd 08 de ff ff 	cmpq   $0x0,-0x21f8(%rbp)
    965a:	00 
    965b:	0f 84 c7 13 00 00    	je     aa28 <_Z14pipe_interfacePP8HunspelliP8_IO_FILEPc+0x2028>
    9661:	48 63 85 bc dc ff ff 	movslq -0x2344(%rbp),%rax
    9668:	4c 8d 35 d1 bb 20 00 	lea    0x20bbd1(%rip),%r14        # 215240 <dic_enc>
    966f:	48 8b 0d 22 bc 20 00 	mov    0x20bc22(%rip),%rcx        # 215298 <ui_enc>
    9676:	4c 89 e6             	mov    %r12,%rsi
    9679:	48 89 df             	mov    %rbx,%rdi
    967c:	49 8b 14 c6          	mov    (%r14,%rax,8),%rdx
    9680:	e8 1b cc ff ff       	callq  62a0 <_Z5chencRKNSt7__cxx1112basic_stringIcSt11char_traitsIcESaIcEEEPKcS8_>
    9685:	48 8b 8d 20 de ff ff 	mov    -0x21e0(%rbp),%rcx
    968c:	48 8b 3d 4d bb 20 00 	mov    0x20bb4d(%rip),%rdi        # 2151e0 <stdout@@GLIBC_2.2.5>
    9693:	48 8d 15 cb 7c 00 00 	lea    0x7ccb(%rip),%rdx        # 11365 <_IO_stdin_used+0xf65>
    969a:	be 01 00 00 00       	mov    $0x1,%esi
    969f:	31 c0                	xor    %eax,%eax
    96a1:	e8 3a b4 ff ff       	callq  4ae0 <__fprintf_chk@plt>
    96a6:	48 8b bd 20 de ff ff 	mov    -0x21e0(%rbp),%rdi
    96ad:	48 3b bd a0 dc ff ff 	cmp    -0x2360(%rbp),%rdi
    96b4:	0f 84 93 06 00 00    	je     9d4d <_Z14pipe_interfacePP8HunspelliP8_IO_FILEPc+0x134d>
    96ba:	e8 41 b1 ff ff       	callq  4800 <_ZdlPv@plt>
    96bf:	e9 89 06 00 00       	jmpq   9d4d <_Z14pipe_interfacePP8HunspelliP8_IO_FILEPc+0x134d>
    96c4:	0f 1f 40 00          	nopl   0x0(%rax)
    96c8:	48 63 85 bc dc ff ff 	movslq -0x2344(%rbp),%rax
    96cf:	48 8b 8d 98 dc ff ff 	mov    -0x2368(%rbp),%rcx
    96d6:	48 8d bd 00 dd ff ff 	lea    -0x2300(%rbp),%rdi
    96dd:	4c 89 fa             	mov    %r15,%rdx
    96e0:	48 89 bd 70 dc ff ff 	mov    %rdi,-0x2390(%rbp)
    96e7:	48 8b 34 c1          	mov    (%rcx,%rax,8),%rsi
    96eb:	e8 f0 af ff ff       	callq  46e0 <_ZN8Hunspell14suffix_suggestERKNSt7__cxx1112basic_stringIcSt11char_traitsIcESaIcEEE@plt>
    96f0:	48 8b b5 00 dd ff ff 	mov    -0x2300(%rbp),%rsi
    96f7:	48 3b b5 08 dd ff ff 	cmp    -0x22f8(%rbp),%rsi
    96fe:	0f 84 82 00 00 00    	je     9786 <_Z14pipe_interfacePP8HunspelliP8_IO_FILEPc+0xd86>
    9704:	4c 8d 35 35 bb 20 00 	lea    0x20bb35(%rip),%r14        # 215240 <dic_enc>
    970b:	45 31 e4             	xor    %r12d,%r12d
    970e:	48 63 85 bc dc ff ff 	movslq -0x2344(%rbp),%rax
    9715:	48 8b 0d 74 bb 20 00 	mov    0x20bb74(%rip),%rcx        # 215290 <io_enc>
    971c:	48 89 df             	mov    %rbx,%rdi
    971f:	49 8b 14 c6          	mov    (%r14,%rax,8),%rdx
    9723:	4c 89 e0             	mov    %r12,%rax
    9726:	48 c1 e0 05          	shl    $0x5,%rax
    972a:	48 01 c6             	add    %rax,%rsi
    972d:	e8 6e cb ff ff       	callq  62a0 <_Z5chencRKNSt7__cxx1112basic_stringIcSt11char_traitsIcESaIcEEEPKcS8_>
    9732:	48 8b 8d 20 de ff ff 	mov    -0x21e0(%rbp),%rcx
    9739:	48 8b 3d a0 ba 20 00 	mov    0x20baa0(%rip),%rdi        # 2151e0 <stdout@@GLIBC_2.2.5>
    9740:	48 8d 15 dc 7b 00 00 	lea    0x7bdc(%rip),%rdx        # 11323 <_IO_stdin_used+0xf23>
    9747:	be 01 00 00 00       	mov    $0x1,%esi
    974c:	31 c0                	xor    %eax,%eax
    974e:	e8 8d b3 ff ff       	callq  4ae0 <__fprintf_chk@plt>
    9753:	48 8b bd 20 de ff ff 	mov    -0x21e0(%rbp),%rdi
    975a:	48 3b bd a0 dc ff ff 	cmp    -0x2360(%rbp),%rdi
    9761:	74 05                	je     9768 <_Z14pipe_interfacePP8HunspelliP8_IO_FILEPc+0xd68>
    9763:	e8 98 b0 ff ff       	callq  4800 <_ZdlPv@plt>
    9768:	48 8b b5 00 dd ff ff 	mov    -0x2300(%rbp),%rsi
    976f:	48 8b 85 08 dd ff ff 	mov    -0x22f8(%rbp),%rax
    9776:	49 83 c4 01          	add    $0x1,%r12
    977a:	48 29 f0             	sub    %rsi,%rax
    977d:	48 c1 f8 05          	sar    $0x5,%rax
    9781:	49 39 c4             	cmp    %rax,%r12
    9784:	72 88                	jb     970e <_Z14pipe_interfacePP8HunspelliP8_IO_FILEPc+0xd0e>
    9786:	48 8b 3d 53 ba 20 00 	mov    0x20ba53(%rip),%rdi        # 2151e0 <stdout@@GLIBC_2.2.5>
    978d:	e8 8e b1 ff ff       	callq  4920 <fflush@plt>
    9792:	4c 8b a5 08 dd ff ff 	mov    -0x22f8(%rbp),%r12
    9799:	4c 8b ad 00 dd ff ff 	mov    -0x2300(%rbp),%r13
    97a0:	4d 39 ec             	cmp    %r13,%r12
    97a3:	0f 84 00 fd ff ff    	je     94a9 <_Z14pipe_interfacePP8HunspelliP8_IO_FILEPc+0xaa9>
    97a9:	48 8b 85 a8 dc ff ff 	mov    -0x2358(%rbp),%rax
    97b0:	49 89 c6             	mov    %rax,%r14
    97b3:	0f 1f 44 00 00       	nopl   0x0(%rax,%rax,1)
    97b8:	49 8b 7d 00          	mov    0x0(%r13),%rdi
    97bc:	49 8d 45 10          	lea    0x10(%r13),%rax
    97c0:	48 39 c7             	cmp    %rax,%rdi
    97c3:	74 05                	je     97ca <_Z14pipe_interfacePP8HunspelliP8_IO_FILEPc+0xdca>
    97c5:	e8 36 b0 ff ff       	callq  4800 <_ZdlPv@plt>
    97ca:	49 83 c5 20          	add    $0x20,%r13
    97ce:	4d 39 ec             	cmp    %r13,%r12
    97d1:	75 e5                	jne    97b8 <_Z14pipe_interfacePP8HunspelliP8_IO_FILEPc+0xdb8>
    97d3:	e9 c3 fc ff ff       	jmpq   949b <_Z14pipe_interfacePP8HunspelliP8_IO_FILEPc+0xa9b>
    97d8:	0f 1f 84 00 00 00 00 	nopl   0x0(%rax,%rax,1)
    97df:	00 
    97e0:	48 85 d2             	test   %rdx,%rdx
    97e3:	74 23                	je     9808 <_Z14pipe_interfacePP8HunspelliP8_IO_FILEPc+0xe08>
    97e5:	48 83 fa 01          	cmp    $0x1,%rdx
    97e9:	0f 84 81 00 00 00    	je     9870 <_Z14pipe_interfacePP8HunspelliP8_IO_FILEPc+0xe70>
    97ef:	4c 89 ee             	mov    %r13,%rsi
    97f2:	e8 99 af ff ff       	callq  4790 <memcpy@plt>
    97f7:	48 8b 95 28 de ff ff 	mov    -0x21d8(%rbp),%rdx
    97fe:	48 8b bd e0 dd ff ff 	mov    -0x2220(%rbp),%rdi
    9805:	0f 1f 00             	nopl   (%rax)
    9808:	48 89 95 e8 dd ff ff 	mov    %rdx,-0x2218(%rbp)
    980f:	c6 04 17 00          	movb   $0x0,(%rdi,%rdx,1)
    9813:	48 8b bd 20 de ff ff 	mov    -0x21e0(%rbp),%rdi
    981a:	e9 1c f5 ff ff       	jmpq   8d3b <_Z14pipe_interfacePP8HunspelliP8_IO_FILEPc+0x33b>
    981f:	90                   	nop
    9820:	48 89 85 e0 dd ff ff 	mov    %rax,-0x2220(%rbp)
    9827:	48 89 95 e8 dd ff ff 	mov    %rdx,-0x2218(%rbp)
    982e:	48 89 b5 f0 dd ff ff 	mov    %rsi,-0x2210(%rbp)
    9835:	4c 89 ad 20 de ff ff 	mov    %r13,-0x21e0(%rbp)
    983c:	4c 89 ef             	mov    %r13,%rdi
    983f:	e9 f7 f4 ff ff       	jmpq   8d3b <_Z14pipe_interfacePP8HunspelliP8_IO_FILEPc+0x33b>
    9844:	0f 1f 40 00          	nopl   0x0(%rax)
    9848:	0f b6 85 c0 df ff ff 	movzbl -0x2040(%rbp),%eax
    984f:	83 e8 21             	sub    $0x21,%eax
    9852:	3c 3f                	cmp    $0x3f,%al
    9854:	0f 87 ee 15 00 00    	ja     ae48 <_Z14pipe_interfacePP8HunspelliP8_IO_FILEPc+0x2448>
    985a:	48 8d 15 1b 7d 00 00 	lea    0x7d1b(%rip),%rdx        # 1157c <_IO_stdin_used+0x117c>
    9861:	0f b6 c0             	movzbl %al,%eax
    9864:	48 63 04 82          	movslq (%rdx,%rax,4),%rax
    9868:	48 01 d0             	add    %rdx,%rax
    986b:	ff e0                	jmpq   *%rax
    986d:	0f 1f 00             	nopl   (%rax)
    9870:	0f b6 85 30 de ff ff 	movzbl -0x21d0(%rbp),%eax
    9877:	88 07                	mov    %al,(%rdi)
    9879:	48 8b 95 28 de ff ff 	mov    -0x21d8(%rbp),%rdx
    9880:	48 8b bd e0 dd ff ff 	mov    -0x2220(%rbp),%rdi
    9887:	e9 7c ff ff ff       	jmpq   9808 <_Z14pipe_interfacePP8HunspelliP8_IO_FILEPc+0xe08>
    988c:	0f 1f 40 00          	nopl   0x0(%rax)
    9890:	80 bd 5b dc ff ff 00 	cmpb   $0x0,-0x23a5(%rbp)
    9897:	0f 85 db 0e 00 00    	jne    a778 <_Z14pipe_interfacePP8HunspelliP8_IO_FILEPc+0x1d78>
    989d:	48 8b bd a8 dc ff ff 	mov    -0x2358(%rbp),%rdi
    98a4:	48 85 ff             	test   %rdi,%rdi
    98a7:	74 06                	je     98af <_Z14pipe_interfacePP8HunspelliP8_IO_FILEPc+0xeaf>
    98a9:	48 8b 07             	mov    (%rdi),%rax
    98ac:	ff 50 08             	callq  *0x8(%rax)
    98af:	48 8b 85 40 dc ff ff 	mov    -0x23c0(%rbp),%rax
    98b6:	48 8b bd 20 dd ff ff 	mov    -0x22e0(%rbp),%rdi
    98bd:	48 83 c0 10          	add    $0x10,%rax
    98c1:	48 39 c7             	cmp    %rax,%rdi
    98c4:	74 05                	je     98cb <_Z14pipe_interfacePP8HunspelliP8_IO_FILEPc+0xecb>
    98c6:	e8 35 af ff ff       	callq  4800 <_ZdlPv@plt>
    98cb:	48 8b 85 c8 dc ff ff 	mov    -0x2338(%rbp),%rax
    98d2:	48 8b 9d c0 dc ff ff 	mov    -0x2340(%rbp),%rbx
    98d9:	48 39 d8             	cmp    %rbx,%rax
    98dc:	74 2b                	je     9909 <_Z14pipe_interfacePP8HunspelliP8_IO_FILEPc+0xf09>
    98de:	49 89 c6             	mov    %rax,%r14
    98e1:	0f 1f 80 00 00 00 00 	nopl   0x0(%rax)
    98e8:	48 8b 3b             	mov    (%rbx),%rdi
    98eb:	48 8d 43 10          	lea    0x10(%rbx),%rax
    98ef:	48 39 c7             	cmp    %rax,%rdi
    98f2:	74 05                	je     98f9 <_Z14pipe_interfacePP8HunspelliP8_IO_FILEPc+0xef9>
    98f4:	e8 07 af ff ff       	callq  4800 <_ZdlPv@plt>
    98f9:	48 83 c3 20          	add    $0x20,%rbx
    98fd:	49 39 de             	cmp    %rbx,%r14
    9900:	75 e6                	jne    98e8 <_Z14pipe_interfacePP8HunspelliP8_IO_FILEPc+0xee8>
    9902:	48 8b 9d c0 dc ff ff 	mov    -0x2340(%rbp),%rbx
    9909:	48 85 db             	test   %rbx,%rbx
    990c:	74 08                	je     9916 <_Z14pipe_interfacePP8HunspelliP8_IO_FILEPc+0xf16>
    990e:	48 89 df             	mov    %rbx,%rdi
    9911:	e8 ea ae ff ff       	callq  4800 <_ZdlPv@plt>
    9916:	48 8b 45 c8          	mov    -0x38(%rbp),%rax
    991a:	64 48 33 04 25 28 00 	xor    %fs:0x28,%rax
    9921:	00 00 
    9923:	0f 85 25 27 00 00    	jne    c04e <_Z14pipe_interfacePP8HunspelliP8_IO_FILEPc+0x364e>
    9929:	48 8d 65 d8          	lea    -0x28(%rbp),%rsp
    992d:	5b                   	pop    %rbx
    992e:	41 5c                	pop    %r12
    9930:	41 5d                	pop    %r13
    9932:	41 5e                	pop    %r14
    9934:	41 5f                	pop    %r15
    9936:	5d                   	pop    %rbp
    9937:	c3                   	retq   
    9938:	0f 1f 84 00 00 00 00 	nopl   0x0(%rax,%rax,1)
    993f:	00 
    9940:	85 d2                	test   %edx,%edx
    9942:	0f 84 50 f3 ff ff    	je     8c98 <_Z14pipe_interfacePP8HunspelliP8_IO_FILEPc+0x298>
    9948:	4c 8b 85 e0 dd ff ff 	mov    -0x2220(%rbp),%r8
    994f:	48 8b 8d 20 dd ff ff 	mov    -0x22e0(%rbp),%rcx
    9956:	48 8d 15 c5 78 00 00 	lea    0x78c5(%rip),%rdx        # 11222 <_IO_stdin_used+0xe22>
    995d:	48 8b 3d 7c b8 20 00 	mov    0x20b87c(%rip),%rdi        # 2151e0 <stdout@@GLIBC_2.2.5>
    9964:	be 01 00 00 00       	mov    $0x1,%esi
    9969:	31 c0                	xor    %eax,%eax
    996b:	e8 70 b1 ff ff       	callq  4ae0 <__fprintf_chk@plt>
    9970:	e9 23 f3 ff ff       	jmpq   8c98 <_Z14pipe_interfacePP8HunspelliP8_IO_FILEPc+0x298>
    9975:	0f 1f 00             	nopl   (%rax)
    9978:	85 d2                	test   %edx,%edx
    997a:	0f 84 9d fb ff ff    	je     951d <_Z14pipe_interfacePP8HunspelliP8_IO_FILEPc+0xb1d>
    9980:	48 8b 8d 90 dc ff ff 	mov    -0x2370(%rbp),%rcx
    9987:	48 8b 3d 52 b8 20 00 	mov    0x20b852(%rip),%rdi        # 2151e0 <stdout@@GLIBC_2.2.5>
    998e:	48 8d 15 51 7b 00 00 	lea    0x7b51(%rip),%rdx        # 114e6 <_IO_stdin_used+0x10e6>
    9995:	be 01 00 00 00       	mov    $0x1,%esi
    999a:	31 c0                	xor    %eax,%eax
    999c:	e8 3f b1 ff ff       	callq  4ae0 <__fprintf_chk@plt>
    99a1:	e9 77 fb ff ff       	jmpq   951d <_Z14pipe_interfacePP8HunspelliP8_IO_FILEPc+0xb1d>
    99a6:	66 2e 0f 1f 84 00 00 	nopw   %cs:0x0(%rax,%rax,1)
    99ad:	00 00 00 
    99b0:	80 3b 66             	cmpb   $0x66,(%rbx)
    99b3:	0f 84 d7 15 00 00    	je     af90 <_Z14pipe_interfacePP8HunspelliP8_IO_FILEPc+0x2590>
    99b9:	48 8d bd a0 df ff ff 	lea    -0x2060(%rbp),%rdi
    99c0:	e8 ab b1 ff ff       	callq  4b70 <mkdtemp@plt>
    99c5:	48 85 c0             	test   %rax,%rax
    99c8:	48 89 85 60 dc ff ff 	mov    %rax,-0x23a0(%rbp)
    99cf:	0f 84 c1 27 00 00    	je     c196 <_Z14pipe_interfacePP8HunspelliP8_IO_FILEPc+0x3796>
    99d5:	48 8d 9d 20 de ff ff 	lea    -0x21e0(%rbp),%rbx
    99dc:	48 8d 7b 70          	lea    0x70(%rbx),%rdi
    99e0:	e8 9b ac ff ff       	callq  4680 <_ZNSt8ios_baseC2Ev@plt>
    99e5:	4c 8b 35 64 ad 20 00 	mov    0x20ad64(%rip),%r14        # 214750 <_ZTTNSt7__cxx1119basic_ostringstreamIcSt11char_traitsIcESaIcEEE@@GLIBCXX_3.4.21+0x8>
    99ec:	48 8d 05 25 ac 20 00 	lea    0x20ac25(%rip),%rax        # 214618 <_ZTVSt9basic_iosIcSt11char_traitsIcEE@@GLIBCXX_3.4+0x10>
    99f3:	c6 85 70 df ff ff 00 	movb   $0x0,-0x2090(%rbp)
    99fa:	48 c7 85 68 df ff ff 	movq   $0x0,-0x2098(%rbp)
    9a01:	00 00 00 00 
    9a05:	c6 85 71 df ff ff 00 	movb   $0x0,-0x208f(%rbp)
    9a0c:	31 f6                	xor    %esi,%esi
    9a0e:	48 89 85 90 de ff ff 	mov    %rax,-0x2170(%rbp)
    9a15:	48 89 85 a0 dc ff ff 	mov    %rax,-0x2360(%rbp)
    9a1c:	49 8b 7e e8          	mov    -0x18(%r14),%rdi
    9a20:	48 8b 05 31 ad 20 00 	mov    0x20ad31(%rip),%rax        # 214758 <_ZTTNSt7__cxx1119basic_ostringstreamIcSt11char_traitsIcESaIcEEE@@GLIBCXX_3.4.21+0x10>
    9a27:	48 c7 85 78 df ff ff 	movq   $0x0,-0x2088(%rbp)
    9a2e:	00 00 00 00 
    9a32:	48 c7 85 80 df ff ff 	movq   $0x0,-0x2080(%rbp)
    9a39:	00 00 00 00 
    9a3d:	48 c7 85 88 df ff ff 	movq   $0x0,-0x2078(%rbp)
    9a44:	00 00 00 00 
    9a48:	48 c7 85 90 df ff ff 	movq   $0x0,-0x2070(%rbp)
    9a4f:	00 00 00 00 
    9a53:	48 01 df             	add    %rbx,%rdi
    9a56:	4c 89 b5 20 de ff ff 	mov    %r14,-0x21e0(%rbp)
    9a5d:	48 89 85 90 dc ff ff 	mov    %rax,-0x2370(%rbp)
    9a64:	48 89 07             	mov    %rax,(%rdi)
    9a67:	e8 54 af ff ff       	callq  49c0 <_ZNSt9basic_iosIcSt11char_traitsIcEE4initEPSt15basic_streambufIcS1_E@plt>
    9a6c:	48 8d 05 4d ac 20 00 	lea    0x20ac4d(%rip),%rax        # 2146c0 <_ZTVNSt7__cxx1119basic_ostringstreamIcSt11char_traitsIcESaIcEEE@@GLIBCXX_3.4.21+0x18>
    9a73:	48 8d 7b 40          	lea    0x40(%rbx),%rdi
    9a77:	48 c7 85 30 de ff ff 	movq   $0x0,-0x21d0(%rbp)
    9a7e:	00 00 00 00 
    9a82:	48 c7 85 38 de ff ff 	movq   $0x0,-0x21c8(%rbp)
    9a89:	00 00 00 00 
    9a8d:	48 c7 85 40 de ff ff 	movq   $0x0,-0x21c0(%rbp)
    9a94:	00 00 00 00 
    9a98:	48 89 85 70 dc ff ff 	mov    %rax,-0x2390(%rbp)
    9a9f:	48 89 85 20 de ff ff 	mov    %rax,-0x21e0(%rbp)
    9aa6:	48 83 c0 28          	add    $0x28,%rax
    9aaa:	48 89 85 68 dc ff ff 	mov    %rax,-0x2398(%rbp)
    9ab1:	48 89 85 90 de ff ff 	mov    %rax,-0x2170(%rbp)
    9ab8:	48 8d 05 79 ab 20 00 	lea    0x20ab79(%rip),%rax        # 214638 <_ZTVSt15basic_streambufIcSt11char_traitsIcEE@@GLIBCXX_3.4+0x10>
    9abf:	48 c7 85 48 de ff ff 	movq   $0x0,-0x21b8(%rbp)
    9ac6:	00 00 00 00 
    9aca:	48 c7 85 50 de ff ff 	movq   $0x0,-0x21b0(%rbp)
    9ad1:	00 00 00 00 
    9ad5:	48 89 85 78 dc ff ff 	mov    %rax,-0x2388(%rbp)
    9adc:	48 89 85 28 de ff ff 	mov    %rax,-0x21d8(%rbp)
    9ae3:	48 c7 85 58 de ff ff 	movq   $0x0,-0x21a8(%rbp)
    9aea:	00 00 00 00 
    9aee:	e8 fd b0 ff ff       	callq  4bf0 <_ZNSt6localeC1Ev@plt>
    9af3:	48 8d 05 1e ad 20 00 	lea    0x20ad1e(%rip),%rax        # 214818 <_ZTVNSt7__cxx1115basic_stringbufIcSt11char_traitsIcESaIcEEE@@GLIBCXX_3.4.21+0x10>
    9afa:	48 8d 73 08          	lea    0x8(%rbx),%rsi
    9afe:	48 8d 7b 70          	lea    0x70(%rbx),%rdi
    9b02:	c7 85 68 de ff ff 10 	movl   $0x10,-0x2198(%rbp)
    9b09:	00 00 00 
    9b0c:	48 c7 85 78 de ff ff 	movq   $0x0,-0x2188(%rbp)
    9b13:	00 00 00 00 
    9b17:	48 89 85 80 dc ff ff 	mov    %rax,-0x2380(%rbp)
    9b1e:	48 89 85 28 de ff ff 	mov    %rax,-0x21d8(%rbp)
    9b25:	48 8d 43 60          	lea    0x60(%rbx),%rax
    9b29:	c6 85 80 de ff ff 00 	movb   $0x0,-0x2180(%rbp)
    9b30:	48 89 85 70 de ff ff 	mov    %rax,-0x2190(%rbp)
    9b37:	e8 84 ae ff ff       	callq  49c0 <_ZNSt9basic_iosIcSt11char_traitsIcEE4initEPSt15basic_streambufIcS1_E@plt>
    9b3c:	48 8d 35 18 77 00 00 	lea    0x7718(%rip),%rsi        # 1125b <_IO_stdin_used+0xe5b>
    9b43:	ba 0a 00 00 00       	mov    $0xa,%edx
    9b48:	48 89 df             	mov    %rbx,%rdi
    9b4b:	e8 a0 ad ff ff       	callq  48f0 <_ZSt16__ostream_insertIcSt11char_traitsIcEERSt13basic_ostreamIT_T0_ES6_PKS3_l@plt>
    9b50:	4d 85 e4             	test   %r12,%r12
    9b53:	0f 84 a5 18 00 00    	je     b3fe <_Z14pipe_interfacePP8HunspelliP8_IO_FILEPc+0x29fe>
    9b59:	4c 89 e7             	mov    %r12,%rdi
    9b5c:	e8 8f ab ff ff       	callq  46f0 <strlen@plt>
    9b61:	4c 89 e6             	mov    %r12,%rsi
    9b64:	48 89 c2             	mov    %rax,%rdx
    9b67:	48 89 df             	mov    %rbx,%rdi
    9b6a:	e8 81 ad ff ff       	callq  48f0 <_ZSt16__ostream_insertIcSt11char_traitsIcEERSt13basic_ostreamIT_T0_ES6_PKS3_l@plt>
    9b6f:	48 8d 35 42 69 00 00 	lea    0x6942(%rip),%rsi        # 104b8 <_IO_stdin_used+0xb8>
    9b76:	ba 61 00 00 00       	mov    $0x61,%edx
    9b7b:	48 89 df             	mov    %rbx,%rdi
    9b7e:	e8 6d ad ff ff       	callq  48f0 <_ZSt16__ostream_insertIcSt11char_traitsIcEERSt13basic_ostreamIT_T0_ES6_PKS3_l@plt>
    9b83:	4c 8b bd 60 dc ff ff 	mov    -0x23a0(%rbp),%r15
    9b8a:	4c 89 ff             	mov    %r15,%rdi
    9b8d:	e8 5e ab ff ff       	callq  46f0 <strlen@plt>
    9b92:	4c 89 fe             	mov    %r15,%rsi
    9b95:	48 89 c2             	mov    %rax,%rdx
    9b98:	48 89 df             	mov    %rbx,%rdi
    9b9b:	e8 50 ad ff ff       	callq  48f0 <_ZSt16__ostream_insertIcSt11char_traitsIcEERSt13basic_ostreamIT_T0_ES6_PKS3_l@plt>
    9ba0:	48 8d 35 bf 76 00 00 	lea    0x76bf(%rip),%rsi        # 11266 <_IO_stdin_used+0xe66>
    9ba7:	ba 0c 00 00 00       	mov    $0xc,%edx
    9bac:	48 89 df             	mov    %rbx,%rdi
    9baf:	e8 3c ad ff ff       	callq  48f0 <_ZSt16__ostream_insertIcSt11char_traitsIcEERSt13basic_ostreamIT_T0_ES6_PKS3_l@plt>
    9bb4:	be 27 00 00 00       	mov    $0x27,%esi
    9bb9:	4c 89 e7             	mov    %r12,%rdi
    9bbc:	e8 ff aa ff ff       	callq  46c0 <strchr@plt>
    9bc1:	48 85 c0             	test   %rax,%rax
    9bc4:	0f 84 63 18 00 00    	je     b42d <_Z14pipe_interfacePP8HunspelliP8_IO_FILEPc+0x2a2d>
    9bca:	be 27 00 00 00       	mov    $0x27,%esi
    9bcf:	4c 89 e7             	mov    %r12,%rdi
    9bd2:	e8 e9 aa ff ff       	callq  46c0 <strchr@plt>
    9bd7:	48 85 c0             	test   %rax,%rax
    9bda:	0f 84 9c 12 00 00    	je     ae7c <_Z14pipe_interfacePP8HunspelliP8_IO_FILEPc+0x247c>
    9be0:	48 8d 3d a8 76 00 00 	lea    0x76a8(%rip),%rdi        # 1128f <_IO_stdin_used+0xe8f>
    9be7:	e8 24 aa ff ff       	callq  4610 <gettext@plt>
    9bec:	48 8b 3d 0d b6 20 00 	mov    0x20b60d(%rip),%rdi        # 215200 <stderr@@GLIBC_2.2.5>
    9bf3:	48 89 c2             	mov    %rax,%rdx
    9bf6:	4c 89 e1             	mov    %r12,%rcx
    9bf9:	be 01 00 00 00       	mov    $0x1,%esi
    9bfe:	31 c0                	xor    %eax,%eax
    9c00:	e8 db ae ff ff       	callq  4ae0 <__fprintf_chk@plt>
    9c05:	4c 8d bd e0 dd ff ff 	lea    -0x2220(%rbp),%r15
    9c0c:	48 8d 15 7b 76 00 00 	lea    0x767b(%rip),%rdx        # 1128e <_IO_stdin_used+0xe8e>
    9c13:	49 8d 47 10          	lea    0x10(%r15),%rax
    9c17:	48 8d 72 fa          	lea    -0x6(%rdx),%rsi
    9c1b:	4c 89 ff             	mov    %r15,%rdi
    9c1e:	48 89 85 e0 dd ff ff 	mov    %rax,-0x2220(%rbp)
    9c25:	e8 a6 c5 ff ff       	callq  61d0 <_ZNSt7__cxx1112basic_stringIcSt11char_traitsIcESaIcEE12_M_constructIPKcEEvT_S8_St20forward_iterator_tag.isra.52>
    9c2a:	48 8b bd 60 dc ff ff 	mov    -0x23a0(%rbp),%rdi
    9c31:	e8 ba aa ff ff       	callq  46f0 <strlen@plt>
    9c36:	48 b9 ff ff ff ff ff 	movabs $0x7fffffffffffffff,%rcx
    9c3d:	ff ff 7f 
    9c40:	48 2b 8d e8 dd ff ff 	sub    -0x2218(%rbp),%rcx
    9c47:	48 39 c8             	cmp    %rcx,%rax
    9c4a:	0f 87 32 23 00 00    	ja     bf82 <_Z14pipe_interfacePP8HunspelliP8_IO_FILEPc+0x3582>
    9c50:	48 8b b5 60 dc ff ff 	mov    -0x23a0(%rbp),%rsi
    9c57:	48 89 c2             	mov    %rax,%rdx
    9c5a:	4c 89 ff             	mov    %r15,%rdi
    9c5d:	e8 3e aa ff ff       	callq  46a0 <_ZNSt7__cxx1112basic_stringIcSt11char_traitsIcESaIcEE9_M_appendEPKcm@plt>
    9c62:	4c 8d ad 00 de ff ff 	lea    -0x2200(%rbp),%r13
    9c69:	49 8d 55 10          	lea    0x10(%r13),%rdx
    9c6d:	48 89 95 00 de ff ff 	mov    %rdx,-0x2200(%rbp)
    9c74:	48 8b 08             	mov    (%rax),%rcx
    9c77:	48 8d 50 10          	lea    0x10(%rax),%rdx
    9c7b:	48 39 d1             	cmp    %rdx,%rcx
    9c7e:	0f 84 98 17 00 00    	je     b41c <_Z14pipe_interfacePP8HunspelliP8_IO_FILEPc+0x2a1c>
    9c84:	48 89 8d 00 de ff ff 	mov    %rcx,-0x2200(%rbp)
    9c8b:	48 8b 48 10          	mov    0x10(%rax),%rcx
    9c8f:	48 89 8d 10 de ff ff 	mov    %rcx,-0x21f0(%rbp)
    9c96:	48 8b 48 08          	mov    0x8(%rax),%rcx
    9c9a:	48 89 8d 08 de ff ff 	mov    %rcx,-0x21f8(%rbp)
    9ca1:	48 89 10             	mov    %rdx,(%rax)
    9ca4:	48 c7 40 08 00 00 00 	movq   $0x0,0x8(%rax)
    9cab:	00 
    9cac:	c6 40 10 00          	movb   $0x0,0x10(%rax)
    9cb0:	48 8b bd 00 de ff ff 	mov    -0x2200(%rbp),%rdi
    9cb7:	e8 f4 aa ff ff       	callq  47b0 <system@plt>
    9cbc:	48 8b bd 00 de ff ff 	mov    -0x2200(%rbp),%rdi
    9cc3:	49 83 c5 10          	add    $0x10,%r13
    9cc7:	41 89 c6             	mov    %eax,%r14d
    9cca:	4c 39 ef             	cmp    %r13,%rdi
    9ccd:	74 05                	je     9cd4 <_Z14pipe_interfacePP8HunspelliP8_IO_FILEPc+0x12d4>
    9ccf:	e8 2c ab ff ff       	callq  4800 <_ZdlPv@plt>
    9cd4:	48 8b bd e0 dd ff ff 	mov    -0x2220(%rbp),%rdi
    9cdb:	49 8d 47 10          	lea    0x10(%r15),%rax
    9cdf:	48 39 c7             	cmp    %rax,%rdi
    9ce2:	74 05                	je     9ce9 <_Z14pipe_interfacePP8HunspelliP8_IO_FILEPc+0x12e9>
    9ce4:	e8 17 ab ff ff       	callq  4800 <_ZdlPv@plt>
    9ce9:	45 85 f6             	test   %r14d,%r14d
    9cec:	74 0c                	je     9cfa <_Z14pipe_interfacePP8HunspelliP8_IO_FILEPc+0x12fa>
    9cee:	48 8d 3d aa 75 00 00 	lea    0x75aa(%rip),%rdi        # 1129f <_IO_stdin_used+0xe9f>
    9cf5:	e8 a6 aa ff ff       	callq  47a0 <perror@plt>
    9cfa:	bf 01 00 00 00       	mov    $0x1,%edi
    9cff:	e8 5c ac ff ff       	callq  4960 <exit@plt>
    9d04:	0f 1f 40 00          	nopl   0x0(%rax)
    9d08:	48 89 f9             	mov    %rdi,%rcx
    9d0b:	48 8d 3d 33 76 00 00 	lea    0x7633(%rip),%rdi        # 11345 <_IO_stdin_used+0xf45>
    9d12:	ba 02 00 00 00       	mov    $0x2,%edx
    9d17:	be 01 00 00 00       	mov    $0x1,%esi
    9d1c:	e8 bf ae ff ff       	callq  4be0 <fwrite@plt>
    9d21:	e9 57 f4 ff ff       	jmpq   917d <_Z14pipe_interfacePP8HunspelliP8_IO_FILEPc+0x77d>
    9d26:	66 2e 0f 1f 84 00 00 	nopw   %cs:0x0(%rax,%rax,1)
    9d2d:	00 00 00 
    9d30:	48 8b 0d a9 b4 20 00 	mov    0x20b4a9(%rip),%rcx        # 2151e0 <stdout@@GLIBC_2.2.5>
    9d37:	48 8d 3d 24 76 00 00 	lea    0x7624(%rip),%rdi        # 11362 <_IO_stdin_used+0xf62>
    9d3e:	ba 02 00 00 00       	mov    $0x2,%edx
    9d43:	be 01 00 00 00       	mov    $0x1,%esi
    9d48:	e8 93 ae ff ff       	callq  4be0 <fwrite@plt>
    9d4d:	48 8b 3d 8c b4 20 00 	mov    0x20b48c(%rip),%rdi        # 2151e0 <stdout@@GLIBC_2.2.5>
    9d54:	e8 c7 ab ff ff       	callq  4920 <fflush@plt>
    9d59:	e9 2b f4 ff ff       	jmpq   9189 <_Z14pipe_interfacePP8HunspelliP8_IO_FILEPc+0x789>
    9d5e:	66 90                	xchg   %ax,%ax
    9d60:	48 8b bd a8 dc ff ff 	mov    -0x2358(%rbp),%rdi
    9d67:	e8 24 4e 00 00       	callq  eb90 <_ZN10TextParser12get_tokenposEv>
    9d6c:	48 8b 15 1d b5 20 00 	mov    0x20b51d(%rip),%rdx        # 215290 <io_enc>
    9d73:	03 85 78 dc ff ff    	add    -0x2388(%rbp),%eax
    9d79:	48 8d 3d 62 74 00 00 	lea    0x7462(%rip),%rdi        # 111e2 <_IO_stdin_used+0xde2>
    9d80:	b9 06 00 00 00       	mov    $0x6,%ecx
    9d85:	48 89 d6             	mov    %rdx,%rsi
    9d88:	f3 a6                	repz cmpsb %es:(%rdi),%ds:(%rsi)
    9d8a:	89 85 50 dc ff ff    	mov    %eax,-0x23b0(%rbp)
    9d90:	0f 97 c0             	seta   %al
    9d93:	1c 00                	sbb    $0x0,%al
    9d95:	84 c0                	test   %al,%al
    9d97:	0f 84 63 12 00 00    	je     b000 <_Z14pipe_interfacePP8HunspelliP8_IO_FILEPc+0x2600>
    9d9d:	48 63 85 bc dc ff ff 	movslq -0x2344(%rbp),%rax
    9da4:	48 8b 8d 98 dc ff ff 	mov    -0x2368(%rbp),%rcx
    9dab:	4c 8d 35 8e b4 20 00 	lea    0x20b48e(%rip),%r14        # 215240 <dic_enc>
    9db2:	4c 89 fe             	mov    %r15,%rsi
    9db5:	48 89 df             	mov    %rbx,%rdi
    9db8:	4c 8b 2c c1          	mov    (%rcx,%rax,8),%r13
    9dbc:	49 8b 0c c6          	mov    (%r14,%rax,8),%rcx
    9dc0:	e8 db c4 ff ff       	callq  62a0 <_Z5chencRKNSt7__cxx1112basic_stringIcSt11char_traitsIcESaIcEEEPKcS8_>
    9dc5:	48 8d 85 00 dd ff ff 	lea    -0x2300(%rbp),%rax
    9dcc:	48 89 da             	mov    %rbx,%rdx
    9dcf:	4c 89 ee             	mov    %r13,%rsi
    9dd2:	48 89 c7             	mov    %rax,%rdi
    9dd5:	48 89 85 70 dc ff ff 	mov    %rax,-0x2390(%rbp)
    9ddc:	e8 af ad ff ff       	callq  4b90 <_ZN8Hunspell7suggestERKNSt7__cxx1112basic_stringIcSt11char_traitsIcESaIcEEE@plt>
    9de1:	48 8b bd 20 de ff ff 	mov    -0x21e0(%rbp),%rdi
    9de8:	48 3b bd a0 dc ff ff 	cmp    -0x2360(%rbp),%rdi
    9def:	74 05                	je     9df6 <_Z14pipe_interfacePP8HunspelliP8_IO_FILEPc+0x13f6>
    9df1:	e8 0a aa ff ff       	callq  4800 <_ZdlPv@plt>
    9df6:	4c 8b ad 08 dd ff ff 	mov    -0x22f8(%rbp),%r13
    9dfd:	48 8b 85 00 dd ff ff 	mov    -0x2300(%rbp),%rax
    9e04:	48 8b 0d 8d b4 20 00 	mov    0x20b48d(%rip),%rcx        # 215298 <ui_enc>
    9e0b:	48 8b 15 7e b4 20 00 	mov    0x20b47e(%rip),%rdx        # 215290 <io_enc>
    9e12:	49 39 c5             	cmp    %rax,%r13
    9e15:	0f 84 47 12 00 00    	je     b062 <_Z14pipe_interfacePP8HunspelliP8_IO_FILEPc+0x2662>
    9e1b:	49 29 c5             	sub    %rax,%r13
    9e1e:	4c 89 fe             	mov    %r15,%rsi
    9e21:	48 89 df             	mov    %rbx,%rdi
    9e24:	49 c1 fd 05          	sar    $0x5,%r13
    9e28:	e8 73 c4 ff ff       	callq  62a0 <_Z5chencRKNSt7__cxx1112basic_stringIcSt11char_traitsIcESaIcEEEPKcS8_>
    9e2d:	44 8b 8d 50 dc ff ff 	mov    -0x23b0(%rbp),%r9d
    9e34:	48 8b 8d 20 de ff ff 	mov    -0x21e0(%rbp),%rcx
    9e3b:	48 8d 15 0e 75 00 00 	lea    0x750e(%rip),%rdx        # 11350 <_IO_stdin_used+0xf50>
    9e42:	48 8b 3d 97 b3 20 00 	mov    0x20b397(%rip),%rdi        # 2151e0 <stdout@@GLIBC_2.2.5>
    9e49:	45 89 e8             	mov    %r13d,%r8d
    9e4c:	be 01 00 00 00       	mov    $0x1,%esi
    9e51:	31 c0                	xor    %eax,%eax
    9e53:	e8 88 ac ff ff       	callq  4ae0 <__fprintf_chk@plt>
    9e58:	48 8b bd 20 de ff ff 	mov    -0x21e0(%rbp),%rdi
    9e5f:	48 3b bd a0 dc ff ff 	cmp    -0x2360(%rbp),%rdi
    9e66:	74 05                	je     9e6d <_Z14pipe_interfacePP8HunspelliP8_IO_FILEPc+0x146d>
    9e68:	e8 93 a9 ff ff       	callq  4800 <_ZdlPv@plt>
    9e6d:	48 63 85 bc dc ff ff 	movslq -0x2344(%rbp),%rax
    9e74:	48 8b 0d 1d b4 20 00 	mov    0x20b41d(%rip),%rcx        # 215298 <ui_enc>
    9e7b:	48 89 df             	mov    %rbx,%rdi
    9e7e:	48 8b b5 00 dd ff ff 	mov    -0x2300(%rbp),%rsi
    9e85:	49 8b 14 c6          	mov    (%r14,%rax,8),%rdx
    9e89:	e8 12 c4 ff ff       	callq  62a0 <_Z5chencRKNSt7__cxx1112basic_stringIcSt11char_traitsIcESaIcEEEPKcS8_>
    9e8e:	48 8b 35 4b b3 20 00 	mov    0x20b34b(%rip),%rsi        # 2151e0 <stdout@@GLIBC_2.2.5>
    9e95:	48 8b bd 20 de ff ff 	mov    -0x21e0(%rbp),%rdi
    9e9c:	e8 0f aa ff ff       	callq  48b0 <fputs@plt>
    9ea1:	48 8b bd 20 de ff ff 	mov    -0x21e0(%rbp),%rdi
    9ea8:	48 3b bd a0 dc ff ff 	cmp    -0x2360(%rbp),%rdi
    9eaf:	74 05                	je     9eb6 <_Z14pipe_interfacePP8HunspelliP8_IO_FILEPc+0x14b6>
    9eb1:	e8 4a a9 ff ff       	callq  4800 <_ZdlPv@plt>
    9eb6:	48 8b b5 00 dd ff ff 	mov    -0x2300(%rbp),%rsi
    9ebd:	48 8b 85 08 dd ff ff 	mov    -0x22f8(%rbp),%rax
    9ec4:	41 bd 01 00 00 00    	mov    $0x1,%r13d
    9eca:	48 29 f0             	sub    %rsi,%rax
    9ecd:	48 83 f8 3f          	cmp    $0x3f,%rax
    9ed1:	76 7d                	jbe    9f50 <_Z14pipe_interfacePP8HunspelliP8_IO_FILEPc+0x1550>
    9ed3:	0f 1f 44 00 00       	nopl   0x0(%rax,%rax,1)
    9ed8:	48 63 85 bc dc ff ff 	movslq -0x2344(%rbp),%rax
    9edf:	48 8b 0d b2 b3 20 00 	mov    0x20b3b2(%rip),%rcx        # 215298 <ui_enc>
    9ee6:	48 89 df             	mov    %rbx,%rdi
    9ee9:	49 8b 14 c6          	mov    (%r14,%rax,8),%rdx
    9eed:	4c 89 e8             	mov    %r13,%rax
    9ef0:	48 c1 e0 05          	shl    $0x5,%rax
    9ef4:	48 01 c6             	add    %rax,%rsi
    9ef7:	e8 a4 c3 ff ff       	callq  62a0 <_Z5chencRKNSt7__cxx1112basic_stringIcSt11char_traitsIcESaIcEEEPKcS8_>
    9efc:	48 8b 8d 20 de ff ff 	mov    -0x21e0(%rbp),%rcx
    9f03:	48 8b 3d d6 b2 20 00 	mov    0x20b2d6(%rip),%rdi        # 2151e0 <stdout@@GLIBC_2.2.5>
    9f0a:	48 8d 15 4c 74 00 00 	lea    0x744c(%rip),%rdx        # 1135d <_IO_stdin_used+0xf5d>
    9f11:	be 01 00 00 00       	mov    $0x1,%esi
    9f16:	31 c0                	xor    %eax,%eax
    9f18:	e8 c3 ab ff ff       	callq  4ae0 <__fprintf_chk@plt>
    9f1d:	48 8b bd 20 de ff ff 	mov    -0x21e0(%rbp),%rdi
    9f24:	48 3b bd a0 dc ff ff 	cmp    -0x2360(%rbp),%rdi
    9f2b:	74 05                	je     9f32 <_Z14pipe_interfacePP8HunspelliP8_IO_FILEPc+0x1532>
    9f2d:	e8 ce a8 ff ff       	callq  4800 <_ZdlPv@plt>
    9f32:	48 8b b5 00 dd ff ff 	mov    -0x2300(%rbp),%rsi
    9f39:	48 8b 85 08 dd ff ff 	mov    -0x22f8(%rbp),%rax
    9f40:	49 83 c5 01          	add    $0x1,%r13
    9f44:	48 29 f0             	sub    %rsi,%rax
    9f47:	48 c1 f8 05          	sar    $0x5,%rax
    9f4b:	49 39 c5             	cmp    %rax,%r13
    9f4e:	72 88                	jb     9ed8 <_Z14pipe_interfacePP8HunspelliP8_IO_FILEPc+0x14d8>
    9f50:	48 8b 35 89 b2 20 00 	mov    0x20b289(%rip),%rsi        # 2151e0 <stdout@@GLIBC_2.2.5>
    9f57:	bf 0a 00 00 00       	mov    $0xa,%edi
    9f5c:	e8 1f aa ff ff       	callq  4980 <fputc@plt>
    9f61:	48 8b 3d 78 b2 20 00 	mov    0x20b278(%rip),%rdi        # 2151e0 <stdout@@GLIBC_2.2.5>
    9f68:	e8 b3 a9 ff ff       	callq  4920 <fflush@plt>
    9f6d:	4c 8b ad 08 dd ff ff 	mov    -0x22f8(%rbp),%r13
    9f74:	4c 8b b5 00 dd ff ff 	mov    -0x2300(%rbp),%r14
    9f7b:	4d 39 f5             	cmp    %r14,%r13
    9f7e:	74 21                	je     9fa1 <_Z14pipe_interfacePP8HunspelliP8_IO_FILEPc+0x15a1>
    9f80:	49 8b 3e             	mov    (%r14),%rdi
    9f83:	49 8d 46 10          	lea    0x10(%r14),%rax
    9f87:	48 39 c7             	cmp    %rax,%rdi
    9f8a:	74 05                	je     9f91 <_Z14pipe_interfacePP8HunspelliP8_IO_FILEPc+0x1591>
    9f8c:	e8 6f a8 ff ff       	callq  4800 <_ZdlPv@plt>
    9f91:	49 83 c6 20          	add    $0x20,%r14
    9f95:	4d 39 f5             	cmp    %r14,%r13
    9f98:	75 e6                	jne    9f80 <_Z14pipe_interfacePP8HunspelliP8_IO_FILEPc+0x1580>
    9f9a:	4c 8b b5 00 dd ff ff 	mov    -0x2300(%rbp),%r14
    9fa1:	4d 85 f6             	test   %r14,%r14
    9fa4:	0f 84 df f1 ff ff    	je     9189 <_Z14pipe_interfacePP8HunspelliP8_IO_FILEPc+0x789>
    9faa:	4c 89 f7             	mov    %r14,%rdi
    9fad:	e8 4e a8 ff ff       	callq  4800 <_ZdlPv@plt>
    9fb2:	e9 d2 f1 ff ff       	jmpq   9189 <_Z14pipe_interfacePP8HunspelliP8_IO_FILEPc+0x789>
    9fb7:	66 0f 1f 84 00 00 00 	nopw   0x0(%rax,%rax,1)
    9fbe:	00 00 
    9fc0:	48 8b bd a8 dc ff ff 	mov    -0x2358(%rbp),%rdi
    9fc7:	e8 c4 4b 00 00       	callq  eb90 <_ZN10TextParser12get_tokenposEv>
    9fcc:	8b 8d 78 dc ff ff    	mov    -0x2388(%rbp),%ecx
    9fd2:	48 8b 15 b7 b2 20 00 	mov    0x20b2b7(%rip),%rdx        # 215290 <io_enc>
    9fd9:	48 8d 3d 02 72 00 00 	lea    0x7202(%rip),%rdi        # 111e2 <_IO_stdin_used+0xde2>
    9fe0:	44 8d 2c 01          	lea    (%rcx,%rax,1),%r13d
    9fe4:	48 89 d6             	mov    %rdx,%rsi
    9fe7:	b9 06 00 00 00       	mov    $0x6,%ecx
    9fec:	f3 a6                	repz cmpsb %es:(%rdi),%ds:(%rsi)
    9fee:	0f 97 c0             	seta   %al
    9ff1:	1c 00                	sbb    $0x0,%al
    9ff3:	84 c0                	test   %al,%al
    9ff5:	0f 84 a5 0f 00 00    	je     afa0 <_Z14pipe_interfacePP8HunspelliP8_IO_FILEPc+0x25a0>
    9ffb:	48 63 85 bc dc ff ff 	movslq -0x2344(%rbp),%rax
    a002:	48 8b 8d 98 dc ff ff 	mov    -0x2368(%rbp),%rcx
    a009:	4c 8d 35 30 b2 20 00 	lea    0x20b230(%rip),%r14        # 215240 <dic_enc>
    a010:	4c 89 fe             	mov    %r15,%rsi
    a013:	48 89 df             	mov    %rbx,%rdi
    a016:	48 8b 0c c1          	mov    (%rcx,%rax,8),%rcx
    a01a:	48 89 8d 50 dc ff ff 	mov    %rcx,-0x23b0(%rbp)
    a021:	49 8b 0c c6          	mov    (%r14,%rax,8),%rcx
    a025:	e8 76 c2 ff ff       	callq  62a0 <_Z5chencRKNSt7__cxx1112basic_stringIcSt11char_traitsIcESaIcEEEPKcS8_>
    a02a:	48 8d 85 00 dd ff ff 	lea    -0x2300(%rbp),%rax
    a031:	48 8b b5 50 dc ff ff 	mov    -0x23b0(%rbp),%rsi
    a038:	48 89 da             	mov    %rbx,%rdx
    a03b:	48 89 c7             	mov    %rax,%rdi
    a03e:	48 89 85 70 dc ff ff 	mov    %rax,-0x2390(%rbp)
    a045:	e8 46 ab ff ff       	callq  4b90 <_ZN8Hunspell7suggestERKNSt7__cxx1112basic_stringIcSt11char_traitsIcESaIcEEE@plt>
    a04a:	48 8b bd 20 de ff ff 	mov    -0x21e0(%rbp),%rdi
    a051:	48 3b bd a0 dc ff ff 	cmp    -0x2360(%rbp),%rdi
    a058:	74 05                	je     a05f <_Z14pipe_interfacePP8HunspelliP8_IO_FILEPc+0x165f>
    a05a:	e8 a1 a7 ff ff       	callq  4800 <_ZdlPv@plt>
    a05f:	4c 8b 85 08 dd ff ff 	mov    -0x22f8(%rbp),%r8
    a066:	48 8b 85 00 dd ff ff 	mov    -0x2300(%rbp),%rax
    a06d:	48 8b 3d 6c b1 20 00 	mov    0x20b16c(%rip),%rdi        # 2151e0 <stdout@@GLIBC_2.2.5>
    a074:	48 8b 8d e0 dd ff ff 	mov    -0x2220(%rbp),%rcx
    a07b:	49 39 c0             	cmp    %rax,%r8
    a07e:	0f 84 16 10 00 00    	je     b09a <_Z14pipe_interfacePP8HunspelliP8_IO_FILEPc+0x269a>
    a084:	49 29 c0             	sub    %rax,%r8
    a087:	48 8d 15 c2 72 00 00 	lea    0x72c2(%rip),%rdx        # 11350 <_IO_stdin_used+0xf50>
    a08e:	45 89 e9             	mov    %r13d,%r9d
    a091:	49 c1 f8 05          	sar    $0x5,%r8
    a095:	be 01 00 00 00       	mov    $0x1,%esi
    a09a:	31 c0                	xor    %eax,%eax
    a09c:	e8 3f aa ff ff       	callq  4ae0 <__fprintf_chk@plt>
    a0a1:	48 63 85 bc dc ff ff 	movslq -0x2344(%rbp),%rax
    a0a8:	48 8b 0d e1 b1 20 00 	mov    0x20b1e1(%rip),%rcx        # 215290 <io_enc>
    a0af:	48 89 df             	mov    %rbx,%rdi
    a0b2:	48 8b b5 00 dd ff ff 	mov    -0x2300(%rbp),%rsi
    a0b9:	49 8b 14 c6          	mov    (%r14,%rax,8),%rdx
    a0bd:	e8 de c1 ff ff       	callq  62a0 <_Z5chencRKNSt7__cxx1112basic_stringIcSt11char_traitsIcESaIcEEEPKcS8_>
    a0c2:	48 8b 35 17 b1 20 00 	mov    0x20b117(%rip),%rsi        # 2151e0 <stdout@@GLIBC_2.2.5>
    a0c9:	48 8b bd 20 de ff ff 	mov    -0x21e0(%rbp),%rdi
    a0d0:	e8 db a7 ff ff       	callq  48b0 <fputs@plt>
    a0d5:	48 8b bd 20 de ff ff 	mov    -0x21e0(%rbp),%rdi
    a0dc:	48 3b bd a0 dc ff ff 	cmp    -0x2360(%rbp),%rdi
    a0e3:	74 05                	je     a0ea <_Z14pipe_interfacePP8HunspelliP8_IO_FILEPc+0x16ea>
    a0e5:	e8 16 a7 ff ff       	callq  4800 <_ZdlPv@plt>
    a0ea:	48 8b b5 00 dd ff ff 	mov    -0x2300(%rbp),%rsi
    a0f1:	48 8b 85 08 dd ff ff 	mov    -0x22f8(%rbp),%rax
    a0f8:	48 29 f0             	sub    %rsi,%rax
    a0fb:	48 83 f8 3f          	cmp    $0x3f,%rax
    a0ff:	76 7e                	jbe    a17f <_Z14pipe_interfacePP8HunspelliP8_IO_FILEPc+0x177f>
    a101:	41 bd 01 00 00 00    	mov    $0x1,%r13d
    a107:	48 63 85 bc dc ff ff 	movslq -0x2344(%rbp),%rax
    a10e:	48 8b 0d 7b b1 20 00 	mov    0x20b17b(%rip),%rcx        # 215290 <io_enc>
    a115:	48 89 df             	mov    %rbx,%rdi
    a118:	49 8b 14 c6          	mov    (%r14,%rax,8),%rdx
    a11c:	4c 89 e8             	mov    %r13,%rax
    a11f:	48 c1 e0 05          	shl    $0x5,%rax
    a123:	48 01 c6             	add    %rax,%rsi
    a126:	e8 75 c1 ff ff       	callq  62a0 <_Z5chencRKNSt7__cxx1112basic_stringIcSt11char_traitsIcESaIcEEEPKcS8_>
    a12b:	48 8b 8d 20 de ff ff 	mov    -0x21e0(%rbp),%rcx
    a132:	48 8b 3d a7 b0 20 00 	mov    0x20b0a7(%rip),%rdi        # 2151e0 <stdout@@GLIBC_2.2.5>
    a139:	48 8d 15 1d 72 00 00 	lea    0x721d(%rip),%rdx        # 1135d <_IO_stdin_used+0xf5d>
    a140:	be 01 00 00 00       	mov    $0x1,%esi
    a145:	31 c0                	xor    %eax,%eax
    a147:	e8 94 a9 ff ff       	callq  4ae0 <__fprintf_chk@plt>
    a14c:	48 8b bd 20 de ff ff 	mov    -0x21e0(%rbp),%rdi
    a153:	48 3b bd a0 dc ff ff 	cmp    -0x2360(%rbp),%rdi
    a15a:	74 05                	je     a161 <_Z14pipe_interfacePP8HunspelliP8_IO_FILEPc+0x1761>
    a15c:	e8 9f a6 ff ff       	callq  4800 <_ZdlPv@plt>
    a161:	48 8b b5 00 dd ff ff 	mov    -0x2300(%rbp),%rsi
    a168:	48 8b 85 08 dd ff ff 	mov    -0x22f8(%rbp),%rax
    a16f:	49 83 c5 01          	add    $0x1,%r13
    a173:	48 29 f0             	sub    %rsi,%rax
    a176:	48 c1 f8 05          	sar    $0x5,%rax
    a17a:	49 39 c5             	cmp    %rax,%r13
    a17d:	72 88                	jb     a107 <_Z14pipe_interfacePP8HunspelliP8_IO_FILEPc+0x1707>
    a17f:	48 8b 35 5a b0 20 00 	mov    0x20b05a(%rip),%rsi        # 2151e0 <stdout@@GLIBC_2.2.5>
    a186:	bf 0a 00 00 00       	mov    $0xa,%edi
    a18b:	e8 f0 a7 ff ff       	callq  4980 <fputc@plt>
    a190:	48 8b 3d 49 b0 20 00 	mov    0x20b049(%rip),%rdi        # 2151e0 <stdout@@GLIBC_2.2.5>
    a197:	e8 84 a7 ff ff       	callq  4920 <fflush@plt>
    a19c:	4c 8b ad 08 dd ff ff 	mov    -0x22f8(%rbp),%r13
    a1a3:	4c 8b b5 00 dd ff ff 	mov    -0x2300(%rbp),%r14
    a1aa:	4d 39 f5             	cmp    %r14,%r13
    a1ad:	0f 84 ee fd ff ff    	je     9fa1 <_Z14pipe_interfacePP8HunspelliP8_IO_FILEPc+0x15a1>
    a1b3:	0f 1f 44 00 00       	nopl   0x0(%rax,%rax,1)
    a1b8:	49 8b 3e             	mov    (%r14),%rdi
    a1bb:	49 8d 46 10          	lea    0x10(%r14),%rax
    a1bf:	48 39 c7             	cmp    %rax,%rdi
    a1c2:	74 05                	je     a1c9 <_Z14pipe_interfacePP8HunspelliP8_IO_FILEPc+0x17c9>
    a1c4:	e8 37 a6 ff ff       	callq  4800 <_ZdlPv@plt>
    a1c9:	49 83 c6 20          	add    $0x20,%r14
    a1cd:	4d 39 f5             	cmp    %r14,%r13
    a1d0:	75 e6                	jne    a1b8 <_Z14pipe_interfacePP8HunspelliP8_IO_FILEPc+0x17b8>
    a1d2:	e9 c3 fd ff ff       	jmpq   9f9a <_Z14pipe_interfacePP8HunspelliP8_IO_FILEPc+0x159a>
    a1d7:	66 0f 1f 84 00 00 00 	nopw   0x0(%rax,%rax,1)
    a1de:	00 00 
    a1e0:	48 8b 85 e8 dd ff ff 	mov    -0x2218(%rbp),%rax
    a1e7:	48 85 c0             	test   %rax,%rax
    a1ea:	0f 84 c7 f0 ff ff    	je     92b7 <_Z14pipe_interfacePP8HunspelliP8_IO_FILEPc+0x8b7>
    a1f0:	48 8b 8d e0 dd ff ff 	mov    -0x2220(%rbp),%rcx
    a1f7:	48 8d 78 ff          	lea    -0x1(%rax),%rdi
    a1fb:	80 7c 01 ff 2e       	cmpb   $0x2e,-0x1(%rcx,%rax,1)
    a200:	0f 85 b1 f0 ff ff    	jne    92b7 <_Z14pipe_interfacePP8HunspelliP8_IO_FILEPc+0x8b7>
    a206:	48 89 fe             	mov    %rdi,%rsi
    a209:	31 d2                	xor    %edx,%edx
    a20b:	4c 89 ff             	mov    %r15,%rdi
    a20e:	e8 7d a4 ff ff       	callq  4690 <_ZNSt7__cxx1112basic_stringIcSt11char_traitsIcESaIcEE6resizeEmc@plt>
    a213:	48 63 85 bc dc ff ff 	movslq -0x2344(%rbp),%rax
    a21a:	48 8b 8d 98 dc ff ff 	mov    -0x2368(%rbp),%rcx
    a221:	48 8d bd 00 dd ff ff 	lea    -0x2300(%rbp),%rdi
    a228:	4c 89 fa             	mov    %r15,%rdx
    a22b:	48 8b 34 c1          	mov    (%rcx,%rax,8),%rsi
    a22f:	e8 8c a5 ff ff       	callq  47c0 <_ZN8Hunspell7analyzeERKNSt7__cxx1112basic_stringIcSt11char_traitsIcESaIcEEE@plt>
    a234:	48 8b 85 e8 dc ff ff 	mov    -0x2318(%rbp),%rax
    a23b:	48 8b 8d e0 dc ff ff 	mov    -0x2320(%rbp),%rcx
    a242:	48 89 c2             	mov    %rax,%rdx
    a245:	48 8b 85 00 dd ff ff 	mov    -0x2300(%rbp),%rax
    a24c:	48 89 8d 70 dc ff ff 	mov    %rcx,-0x2390(%rbp)
    a253:	48 39 d1             	cmp    %rdx,%rcx
    a256:	48 c7 85 00 dd ff ff 	movq   $0x0,-0x2300(%rbp)
    a25d:	00 00 00 00 
    a261:	48 89 85 e0 dc ff ff 	mov    %rax,-0x2320(%rbp)
    a268:	48 8b 85 08 dd ff ff 	mov    -0x22f8(%rbp),%rax
    a26f:	48 c7 85 08 dd ff ff 	movq   $0x0,-0x22f8(%rbp)
    a276:	00 00 00 00 
    a27a:	48 89 85 e8 dc ff ff 	mov    %rax,-0x2318(%rbp)
    a281:	48 8b 85 10 dd ff ff 	mov    -0x22f0(%rbp),%rax
    a288:	48 c7 85 10 dd ff ff 	movq   $0x0,-0x22f0(%rbp)
    a28f:	00 00 00 00 
    a293:	48 89 85 f0 dc ff ff 	mov    %rax,-0x2310(%rbp)
    a29a:	74 5b                	je     a2f7 <_Z14pipe_interfacePP8HunspelliP8_IO_FILEPc+0x18f7>
    a29c:	49 89 cc             	mov    %rcx,%r12
    a29f:	48 8b 8d a8 dc ff ff 	mov    -0x2358(%rbp),%rcx
    a2a6:	4c 89 a5 a8 dc ff ff 	mov    %r12,-0x2358(%rbp)
    a2ad:	49 89 dc             	mov    %rbx,%r12
    a2b0:	48 89 d3             	mov    %rdx,%rbx
    a2b3:	48 89 8d 50 dc ff ff 	mov    %rcx,-0x23b0(%rbp)
    a2ba:	48 8b 85 a8 dc ff ff 	mov    -0x2358(%rbp),%rax
    a2c1:	48 8b 38             	mov    (%rax),%rdi
    a2c4:	48 8d 50 10          	lea    0x10(%rax),%rdx
    a2c8:	48 39 d7             	cmp    %rdx,%rdi
    a2cb:	74 05                	je     a2d2 <_Z14pipe_interfacePP8HunspelliP8_IO_FILEPc+0x18d2>
    a2cd:	e8 2e a5 ff ff       	callq  4800 <_ZdlPv@plt>
    a2d2:	48 83 85 a8 dc ff ff 	addq   $0x20,-0x2358(%rbp)
    a2d9:	20 
    a2da:	48 8b 85 a8 dc ff ff 	mov    -0x2358(%rbp),%rax
    a2e1:	48 39 c3             	cmp    %rax,%rbx
    a2e4:	75 d4                	jne    a2ba <_Z14pipe_interfacePP8HunspelliP8_IO_FILEPc+0x18ba>
    a2e6:	48 8b 85 50 dc ff ff 	mov    -0x23b0(%rbp),%rax
    a2ed:	4c 89 e3             	mov    %r12,%rbx
    a2f0:	48 89 85 a8 dc ff ff 	mov    %rax,-0x2358(%rbp)
    a2f7:	48 8b 85 70 dc ff ff 	mov    -0x2390(%rbp),%rax
    a2fe:	48 85 c0             	test   %rax,%rax
    a301:	74 08                	je     a30b <_Z14pipe_interfacePP8HunspelliP8_IO_FILEPc+0x190b>
    a303:	48 89 c7             	mov    %rax,%rdi
    a306:	e8 f5 a4 ff ff       	callq  4800 <_ZdlPv@plt>
    a30b:	48 8b 85 08 dd ff ff 	mov    -0x22f8(%rbp),%rax
    a312:	4c 8b a5 00 dd ff ff 	mov    -0x2300(%rbp),%r12
    a319:	4c 39 e0             	cmp    %r12,%rax
    a31c:	74 5f                	je     a37d <_Z14pipe_interfacePP8HunspelliP8_IO_FILEPc+0x197d>
    a31e:	48 8b 8d a8 dc ff ff 	mov    -0x2358(%rbp),%rcx
    a325:	4c 89 a5 a8 dc ff ff 	mov    %r12,-0x2358(%rbp)
    a32c:	49 89 dc             	mov    %rbx,%r12
    a32f:	48 89 c3             	mov    %rax,%rbx
    a332:	48 89 8d 70 dc ff ff 	mov    %rcx,-0x2390(%rbp)
    a339:	48 8b 85 a8 dc ff ff 	mov    -0x2358(%rbp),%rax
    a340:	48 8b 38             	mov    (%rax),%rdi
    a343:	48 8d 50 10          	lea    0x10(%rax),%rdx
    a347:	48 39 d7             	cmp    %rdx,%rdi
    a34a:	74 05                	je     a351 <_Z14pipe_interfacePP8HunspelliP8_IO_FILEPc+0x1951>
    a34c:	e8 af a4 ff ff       	callq  4800 <_ZdlPv@plt>
    a351:	48 83 85 a8 dc ff ff 	addq   $0x20,-0x2358(%rbp)
    a358:	20 
    a359:	48 8b 85 a8 dc ff ff 	mov    -0x2358(%rbp),%rax
    a360:	48 39 c3             	cmp    %rax,%rbx
    a363:	75 d4                	jne    a339 <_Z14pipe_interfacePP8HunspelliP8_IO_FILEPc+0x1939>
    a365:	48 8b 85 70 dc ff ff 	mov    -0x2390(%rbp),%rax
    a36c:	4c 89 e3             	mov    %r12,%rbx
    a36f:	4c 8b a5 00 dd ff ff 	mov    -0x2300(%rbp),%r12
    a376:	48 89 85 a8 dc ff ff 	mov    %rax,-0x2358(%rbp)
    a37d:	4d 85 e4             	test   %r12,%r12
    a380:	74 08                	je     a38a <_Z14pipe_interfacePP8HunspelliP8_IO_FILEPc+0x198a>
    a382:	4c 89 e7             	mov    %r12,%rdi
    a385:	e8 76 a4 ff ff       	callq  4800 <_ZdlPv@plt>
    a38a:	48 8b b5 e0 dc ff ff 	mov    -0x2320(%rbp),%rsi
    a391:	48 39 b5 e8 dc ff ff 	cmp    %rsi,-0x2318(%rbp)
    a398:	0f 84 92 00 00 00    	je     a430 <_Z14pipe_interfacePP8HunspelliP8_IO_FILEPc+0x1a30>
    a39e:	45 31 e4             	xor    %r12d,%r12d
    a3a1:	48 63 85 bc dc ff ff 	movslq -0x2344(%rbp),%rax
    a3a8:	48 8b 0d e9 ae 20 00 	mov    0x20aee9(%rip),%rcx        # 215298 <ui_enc>
    a3af:	48 89 df             	mov    %rbx,%rdi
    a3b2:	49 8b 14 c6          	mov    (%r14,%rax,8),%rdx
    a3b6:	4c 89 e0             	mov    %r12,%rax
    a3b9:	48 c1 e0 05          	shl    $0x5,%rax
    a3bd:	48 01 c6             	add    %rax,%rsi
    a3c0:	e8 db be ff ff       	callq  62a0 <_Z5chencRKNSt7__cxx1112basic_stringIcSt11char_traitsIcESaIcEEEPKcS8_>
    a3c5:	4c 8b 85 20 de ff ff 	mov    -0x21e0(%rbp),%r8
    a3cc:	48 8b 8d e0 dd ff ff 	mov    -0x2220(%rbp),%rcx
    a3d3:	48 8d 15 42 6f 00 00 	lea    0x6f42(%rip),%rdx        # 1131c <_IO_stdin_used+0xf1c>
    a3da:	48 8b 3d ff ad 20 00 	mov    0x20adff(%rip),%rdi        # 2151e0 <stdout@@GLIBC_2.2.5>
    a3e1:	be 01 00 00 00       	mov    $0x1,%esi
    a3e6:	31 c0                	xor    %eax,%eax
    a3e8:	e8 f3 a6 ff ff       	callq  4ae0 <__fprintf_chk@plt>
    a3ed:	48 8b bd 20 de ff ff 	mov    -0x21e0(%rbp),%rdi
    a3f4:	48 3b bd a0 dc ff ff 	cmp    -0x2360(%rbp),%rdi
    a3fb:	74 05                	je     a402 <_Z14pipe_interfacePP8HunspelliP8_IO_FILEPc+0x1a02>
    a3fd:	e8 fe a3 ff ff       	callq  4800 <_ZdlPv@plt>
    a402:	48 8b 95 e8 dc ff ff 	mov    -0x2318(%rbp),%rdx
    a409:	48 8b b5 e0 dc ff ff 	mov    -0x2320(%rbp),%rsi
    a410:	49 83 c4 01          	add    $0x1,%r12
    a414:	48 89 d0             	mov    %rdx,%rax
    a417:	48 29 f0             	sub    %rsi,%rax
    a41a:	48 c1 f8 05          	sar    $0x5,%rax
    a41e:	49 39 c4             	cmp    %rax,%r12
    a421:	0f 82 7a ff ff ff    	jb     a3a1 <_Z14pipe_interfacePP8HunspelliP8_IO_FILEPc+0x19a1>
    a427:	e9 8b ee ff ff       	jmpq   92b7 <_Z14pipe_interfacePP8HunspelliP8_IO_FILEPc+0x8b7>
    a42c:	0f 1f 40 00          	nopl   0x0(%rax)
    a430:	48 63 85 bc dc ff ff 	movslq -0x2344(%rbp),%rax
    a437:	48 8b 0d 5a ae 20 00 	mov    0x20ae5a(%rip),%rcx        # 215298 <ui_enc>
    a43e:	4c 89 fe             	mov    %r15,%rsi
    a441:	48 89 df             	mov    %rbx,%rdi
    a444:	49 8b 14 c6          	mov    (%r14,%rax,8),%rdx
    a448:	e8 53 be ff ff       	callq  62a0 <_Z5chencRKNSt7__cxx1112basic_stringIcSt11char_traitsIcESaIcEEEPKcS8_>
    a44d:	48 8b 8d 20 de ff ff 	mov    -0x21e0(%rbp),%rcx
    a454:	48 8b 3d 85 ad 20 00 	mov    0x20ad85(%rip),%rdi        # 2151e0 <stdout@@GLIBC_2.2.5>
    a45b:	48 8d 15 84 70 00 00 	lea    0x7084(%rip),%rdx        # 114e6 <_IO_stdin_used+0x10e6>
    a462:	be 01 00 00 00       	mov    $0x1,%esi
    a467:	31 c0                	xor    %eax,%eax
    a469:	e8 72 a6 ff ff       	callq  4ae0 <__fprintf_chk@plt>
    a46e:	48 8b bd 20 de ff ff 	mov    -0x21e0(%rbp),%rdi
    a475:	48 3b bd a0 dc ff ff 	cmp    -0x2360(%rbp),%rdi
    a47c:	0f 84 3e ee ff ff    	je     92c0 <_Z14pipe_interfacePP8HunspelliP8_IO_FILEPc+0x8c0>
    a482:	e8 79 a3 ff ff       	callq  4800 <_ZdlPv@plt>
    a487:	e9 34 ee ff ff       	jmpq   92c0 <_Z14pipe_interfacePP8HunspelliP8_IO_FILEPc+0x8c0>
    a48c:	0f 1f 40 00          	nopl   0x0(%rax)
    a490:	48 63 85 bc dc ff ff 	movslq -0x2344(%rbp),%rax
    a497:	48 8b 0d fa ad 20 00 	mov    0x20adfa(%rip),%rcx        # 215298 <ui_enc>
    a49e:	4c 89 fe             	mov    %r15,%rsi
    a4a1:	48 89 df             	mov    %rbx,%rdi
    a4a4:	49 8b 14 c6          	mov    (%r14,%rax,8),%rdx
    a4a8:	e8 f3 bd ff ff       	callq  62a0 <_Z5chencRKNSt7__cxx1112basic_stringIcSt11char_traitsIcESaIcEEEPKcS8_>
    a4ad:	48 8b 8d 20 de ff ff 	mov    -0x21e0(%rbp),%rcx
    a4b4:	48 8b 3d 25 ad 20 00 	mov    0x20ad25(%rip),%rdi        # 2151e0 <stdout@@GLIBC_2.2.5>
    a4bb:	48 8d 15 24 70 00 00 	lea    0x7024(%rip),%rdx        # 114e6 <_IO_stdin_used+0x10e6>
    a4c2:	be 01 00 00 00       	mov    $0x1,%esi
    a4c7:	31 c0                	xor    %eax,%eax
    a4c9:	e8 12 a6 ff ff       	callq  4ae0 <__fprintf_chk@plt>
    a4ce:	48 8b bd 20 de ff ff 	mov    -0x21e0(%rbp),%rdi
    a4d5:	48 3b bd a0 dc ff ff 	cmp    -0x2360(%rbp),%rdi
    a4dc:	0f 84 66 ef ff ff    	je     9448 <_Z14pipe_interfacePP8HunspelliP8_IO_FILEPc+0xa48>
    a4e2:	e8 19 a3 ff ff       	callq  4800 <_ZdlPv@plt>
    a4e7:	e9 5c ef ff ff       	jmpq   9448 <_Z14pipe_interfacePP8HunspelliP8_IO_FILEPc+0xa48>
    a4ec:	0f 1f 40 00          	nopl   0x0(%rax)
    a4f0:	48 8b 85 e8 dd ff ff 	mov    -0x2218(%rbp),%rax
    a4f7:	48 85 c0             	test   %rax,%rax
    a4fa:	0f 84 3f ef ff ff    	je     943f <_Z14pipe_interfacePP8HunspelliP8_IO_FILEPc+0xa3f>
    a500:	48 8b 8d e0 dd ff ff 	mov    -0x2220(%rbp),%rcx
    a507:	48 8d 78 ff          	lea    -0x1(%rax),%rdi
    a50b:	80 7c 01 ff 2e       	cmpb   $0x2e,-0x1(%rcx,%rax,1)
    a510:	0f 85 29 ef ff ff    	jne    943f <_Z14pipe_interfacePP8HunspelliP8_IO_FILEPc+0xa3f>
    a516:	48 89 fe             	mov    %rdi,%rsi
    a519:	31 d2                	xor    %edx,%edx
    a51b:	4c 89 ff             	mov    %r15,%rdi
    a51e:	e8 6d a1 ff ff       	callq  4690 <_ZNSt7__cxx1112basic_stringIcSt11char_traitsIcESaIcEE6resizeEmc@plt>
    a523:	48 63 85 bc dc ff ff 	movslq -0x2344(%rbp),%rax
    a52a:	48 8b 8d 98 dc ff ff 	mov    -0x2368(%rbp),%rcx
    a531:	48 8d bd e0 dc ff ff 	lea    -0x2320(%rbp),%rdi
    a538:	4c 89 fa             	mov    %r15,%rdx
    a53b:	48 8b 34 c1          	mov    (%rcx,%rax,8),%rsi
    a53f:	e8 ac a0 ff ff       	callq  45f0 <_ZN8Hunspell4stemERKNSt7__cxx1112basic_stringIcSt11char_traitsIcESaIcEEE@plt>
    a544:	48 8b 85 e0 dc ff ff 	mov    -0x2320(%rbp),%rax
    a54b:	48 8b 8d 00 dd ff ff 	mov    -0x2300(%rbp),%rcx
    a552:	4c 8b a5 08 dd ff ff 	mov    -0x22f8(%rbp),%r12
    a559:	48 c7 85 e0 dc ff ff 	movq   $0x0,-0x2320(%rbp)
    a560:	00 00 00 00 
    a564:	48 89 85 00 dd ff ff 	mov    %rax,-0x2300(%rbp)
    a56b:	48 8b 85 e8 dc ff ff 	mov    -0x2318(%rbp),%rax
    a572:	4c 39 e1             	cmp    %r12,%rcx
    a575:	48 89 8d 50 dc ff ff 	mov    %rcx,-0x23b0(%rbp)
    a57c:	48 c7 85 e8 dc ff ff 	movq   $0x0,-0x2318(%rbp)
    a583:	00 00 00 00 
    a587:	48 89 85 08 dd ff ff 	mov    %rax,-0x22f8(%rbp)
    a58e:	48 8b 85 f0 dc ff ff 	mov    -0x2310(%rbp),%rax
    a595:	48 c7 85 f0 dc ff ff 	movq   $0x0,-0x2310(%rbp)
    a59c:	00 00 00 00 
    a5a0:	48 89 85 10 dd ff ff 	mov    %rax,-0x22f0(%rbp)
    a5a7:	74 1e                	je     a5c7 <_Z14pipe_interfacePP8HunspelliP8_IO_FILEPc+0x1bc7>
    a5a9:	49 89 cd             	mov    %rcx,%r13
    a5ac:	49 8b 7d 00          	mov    0x0(%r13),%rdi
    a5b0:	49 8d 45 10          	lea    0x10(%r13),%rax
    a5b4:	48 39 c7             	cmp    %rax,%rdi
    a5b7:	74 05                	je     a5be <_Z14pipe_interfacePP8HunspelliP8_IO_FILEPc+0x1bbe>
    a5b9:	e8 42 a2 ff ff       	callq  4800 <_ZdlPv@plt>
    a5be:	49 83 c5 20          	add    $0x20,%r13
    a5c2:	4d 39 ec             	cmp    %r13,%r12
    a5c5:	75 e5                	jne    a5ac <_Z14pipe_interfacePP8HunspelliP8_IO_FILEPc+0x1bac>
    a5c7:	48 8b 85 50 dc ff ff 	mov    -0x23b0(%rbp),%rax
    a5ce:	48 85 c0             	test   %rax,%rax
    a5d1:	74 08                	je     a5db <_Z14pipe_interfacePP8HunspelliP8_IO_FILEPc+0x1bdb>
    a5d3:	48 89 c7             	mov    %rax,%rdi
    a5d6:	e8 25 a2 ff ff       	callq  4800 <_ZdlPv@plt>
    a5db:	4c 8b a5 e8 dc ff ff 	mov    -0x2318(%rbp),%r12
    a5e2:	4c 8b ad e0 dc ff ff 	mov    -0x2320(%rbp),%r13
    a5e9:	4d 39 ec             	cmp    %r13,%r12
    a5ec:	74 22                	je     a610 <_Z14pipe_interfacePP8HunspelliP8_IO_FILEPc+0x1c10>
    a5ee:	49 8b 7d 00          	mov    0x0(%r13),%rdi
    a5f2:	49 8d 45 10          	lea    0x10(%r13),%rax
    a5f6:	48 39 c7             	cmp    %rax,%rdi
    a5f9:	74 05                	je     a600 <_Z14pipe_interfacePP8HunspelliP8_IO_FILEPc+0x1c00>
    a5fb:	e8 00 a2 ff ff       	callq  4800 <_ZdlPv@plt>
    a600:	49 83 c5 20          	add    $0x20,%r13
    a604:	4d 39 ec             	cmp    %r13,%r12
    a607:	75 e5                	jne    a5ee <_Z14pipe_interfacePP8HunspelliP8_IO_FILEPc+0x1bee>
    a609:	4c 8b ad e0 dc ff ff 	mov    -0x2320(%rbp),%r13
    a610:	4d 85 ed             	test   %r13,%r13
    a613:	74 08                	je     a61d <_Z14pipe_interfacePP8HunspelliP8_IO_FILEPc+0x1c1d>
    a615:	4c 89 ef             	mov    %r13,%rdi
    a618:	e8 e3 a1 ff ff       	callq  4800 <_ZdlPv@plt>
    a61d:	48 8b b5 00 dd ff ff 	mov    -0x2300(%rbp),%rsi
    a624:	48 3b b5 08 dd ff ff 	cmp    -0x22f8(%rbp),%rsi
    a62b:	0f 84 5f fe ff ff    	je     a490 <_Z14pipe_interfacePP8HunspelliP8_IO_FILEPc+0x1a90>
    a631:	45 31 e4             	xor    %r12d,%r12d
    a634:	48 63 85 bc dc ff ff 	movslq -0x2344(%rbp),%rax
    a63b:	48 8b 0d 56 ac 20 00 	mov    0x20ac56(%rip),%rcx        # 215298 <ui_enc>
    a642:	48 89 df             	mov    %rbx,%rdi
    a645:	49 8b 14 c6          	mov    (%r14,%rax,8),%rdx
    a649:	4c 89 e0             	mov    %r12,%rax
    a64c:	48 c1 e0 05          	shl    $0x5,%rax
    a650:	48 01 c6             	add    %rax,%rsi
    a653:	e8 48 bc ff ff       	callq  62a0 <_Z5chencRKNSt7__cxx1112basic_stringIcSt11char_traitsIcESaIcEEEPKcS8_>
    a658:	4c 8b 85 20 de ff ff 	mov    -0x21e0(%rbp),%r8
    a65f:	48 8b 8d e0 dd ff ff 	mov    -0x2220(%rbp),%rcx
    a666:	48 8d 15 af 6c 00 00 	lea    0x6caf(%rip),%rdx        # 1131c <_IO_stdin_used+0xf1c>
    a66d:	48 8b 3d 6c ab 20 00 	mov    0x20ab6c(%rip),%rdi        # 2151e0 <stdout@@GLIBC_2.2.5>
    a674:	be 01 00 00 00       	mov    $0x1,%esi
    a679:	31 c0                	xor    %eax,%eax
    a67b:	e8 60 a4 ff ff       	callq  4ae0 <__fprintf_chk@plt>
    a680:	48 8b bd 20 de ff ff 	mov    -0x21e0(%rbp),%rdi
    a687:	48 3b bd a0 dc ff ff 	cmp    -0x2360(%rbp),%rdi
    a68e:	74 05                	je     a695 <_Z14pipe_interfacePP8HunspelliP8_IO_FILEPc+0x1c95>
    a690:	e8 6b a1 ff ff       	callq  4800 <_ZdlPv@plt>
    a695:	48 8b 95 08 dd ff ff 	mov    -0x22f8(%rbp),%rdx
    a69c:	48 8b b5 00 dd ff ff 	mov    -0x2300(%rbp),%rsi
    a6a3:	49 83 c4 01          	add    $0x1,%r12
    a6a7:	48 89 d0             	mov    %rdx,%rax
    a6aa:	48 29 f0             	sub    %rsi,%rax
    a6ad:	48 c1 f8 05          	sar    $0x5,%rax
    a6b1:	49 39 c4             	cmp    %rax,%r12
    a6b4:	0f 82 7a ff ff ff    	jb     a634 <_Z14pipe_interfacePP8HunspelliP8_IO_FILEPc+0x1c34>
    a6ba:	e9 80 ed ff ff       	jmpq   943f <_Z14pipe_interfacePP8HunspelliP8_IO_FILEPc+0xa3f>
    a6bf:	90                   	nop
    a6c0:	44 8b 1d ed ab 20 00 	mov    0x20abed(%rip),%r11d        # 2152b4 <filter_mode>
    a6c7:	c6 85 5b dc ff ff 00 	movb   $0x0,-0x23a5(%rbp)
    a6ce:	48 c7 85 60 dc ff ff 	movq   $0x0,-0x23a0(%rbp)
    a6d5:	00 00 00 00 
    a6d9:	45 85 db             	test   %r11d,%r11d
    a6dc:	0f 85 dc e4 ff ff    	jne    8bbe <_Z14pipe_interfacePP8HunspelliP8_IO_FILEPc+0x1be>
    a6e2:	48 8d 3d cd 6b 00 00 	lea    0x6bcd(%rip),%rdi        # 112b6 <_IO_stdin_used+0xeb6>
    a6e9:	e8 22 9f ff ff       	callq  4610 <gettext@plt>
    a6ee:	48 8b 35 eb aa 20 00 	mov    0x20aaeb(%rip),%rsi        # 2151e0 <stdout@@GLIBC_2.2.5>
    a6f5:	48 89 c7             	mov    %rax,%rdi
    a6f8:	e8 b3 a1 ff ff       	callq  48b0 <fputs@plt>
    a6fd:	48 8b 0d dc aa 20 00 	mov    0x20aadc(%rip),%rcx        # 2151e0 <stdout@@GLIBC_2.2.5>
    a704:	48 8d 3d b5 6b 00 00 	lea    0x6bb5(%rip),%rdi        # 112c0 <_IO_stdin_used+0xec0>
    a70b:	ba 05 00 00 00       	mov    $0x5,%edx
    a710:	be 01 00 00 00       	mov    $0x1,%esi
    a715:	e8 c6 a4 ff ff       	callq  4be0 <fwrite@plt>
    a71a:	48 8b 85 98 dc ff ff 	mov    -0x2368(%rbp),%rax
    a721:	48 8b 38             	mov    (%rax),%rdi
    a724:	e8 a7 9e ff ff       	callq  45d0 <_ZNK8Hunspell15get_version_cppB5cxx11Ev@plt>
    a729:	48 83 78 08 00       	cmpq   $0x0,0x8(%rax)
    a72e:	48 8b 3d ab aa 20 00 	mov    0x20aaab(%rip),%rdi        # 2151e0 <stdout@@GLIBC_2.2.5>
    a735:	74 1d                	je     a754 <_Z14pipe_interfacePP8HunspelliP8_IO_FILEPc+0x1d54>
    a737:	48 8b 08             	mov    (%rax),%rcx
    a73a:	48 8d 15 85 6b 00 00 	lea    0x6b85(%rip),%rdx        # 112c6 <_IO_stdin_used+0xec6>
    a741:	be 01 00 00 00       	mov    $0x1,%esi
    a746:	31 c0                	xor    %eax,%eax
    a748:	e8 93 a3 ff ff       	callq  4ae0 <__fprintf_chk@plt>
    a74d:	48 8b 3d 8c aa 20 00 	mov    0x20aa8c(%rip),%rdi        # 2151e0 <stdout@@GLIBC_2.2.5>
    a754:	48 89 fe             	mov    %rdi,%rsi
    a757:	bf 0a 00 00 00       	mov    $0xa,%edi
    a75c:	e8 1f a2 ff ff       	callq  4980 <fputc@plt>
    a761:	48 8b 3d 78 aa 20 00 	mov    0x20aa78(%rip),%rdi        # 2151e0 <stdout@@GLIBC_2.2.5>
    a768:	e8 b3 a1 ff ff       	callq  4920 <fflush@plt>
    a76d:	e9 4c e4 ff ff       	jmpq   8bbe <_Z14pipe_interfacePP8HunspelliP8_IO_FILEPc+0x1be>
    a772:	66 0f 1f 44 00 00    	nopw   0x0(%rax,%rax,1)
    a778:	48 8b bd 88 dc ff ff 	mov    -0x2378(%rbp),%rdi
    a77f:	e8 9c a0 ff ff       	callq  4820 <fclose@plt>
    a784:	48 8d 9d 20 de ff ff 	lea    -0x21e0(%rbp),%rbx
    a78b:	48 8d 7b 70          	lea    0x70(%rbx),%rdi
    a78f:	e8 ec 9e ff ff       	callq  4680 <_ZNSt8ios_baseC2Ev@plt>
    a794:	4c 8b 35 b5 9f 20 00 	mov    0x209fb5(%rip),%r14        # 214750 <_ZTTNSt7__cxx1119basic_ostringstreamIcSt11char_traitsIcESaIcEEE@@GLIBCXX_3.4.21+0x8>
    a79b:	48 8d 05 76 9e 20 00 	lea    0x209e76(%rip),%rax        # 214618 <_ZTVSt9basic_iosIcSt11char_traitsIcEE@@GLIBCXX_3.4+0x10>
    a7a2:	c6 85 70 df ff ff 00 	movb   $0x0,-0x2090(%rbp)
    a7a9:	48 c7 85 68 df ff ff 	movq   $0x0,-0x2098(%rbp)
    a7b0:	00 00 00 00 
    a7b4:	c6 85 71 df ff ff 00 	movb   $0x0,-0x208f(%rbp)
    a7bb:	31 f6                	xor    %esi,%esi
    a7bd:	48 89 85 90 de ff ff 	mov    %rax,-0x2170(%rbp)
    a7c4:	48 89 85 a0 dc ff ff 	mov    %rax,-0x2360(%rbp)
    a7cb:	49 8b 7e e8          	mov    -0x18(%r14),%rdi
    a7cf:	48 8b 05 82 9f 20 00 	mov    0x209f82(%rip),%rax        # 214758 <_ZTTNSt7__cxx1119basic_ostringstreamIcSt11char_traitsIcESaIcEEE@@GLIBCXX_3.4.21+0x10>
    a7d6:	48 c7 85 78 df ff ff 	movq   $0x0,-0x2088(%rbp)
    a7dd:	00 00 00 00 
    a7e1:	48 c7 85 80 df ff ff 	movq   $0x0,-0x2080(%rbp)
    a7e8:	00 00 00 00 
    a7ec:	48 c7 85 88 df ff ff 	movq   $0x0,-0x2078(%rbp)
    a7f3:	00 00 00 00 
    a7f7:	48 c7 85 90 df ff ff 	movq   $0x0,-0x2070(%rbp)
    a7fe:	00 00 00 00 
    a802:	48 01 df             	add    %rbx,%rdi
    a805:	4c 89 b5 20 de ff ff 	mov    %r14,-0x21e0(%rbp)
    a80c:	48 89 85 90 dc ff ff 	mov    %rax,-0x2370(%rbp)
    a813:	48 89 07             	mov    %rax,(%rdi)
    a816:	e8 a5 a1 ff ff       	callq  49c0 <_ZNSt9basic_iosIcSt11char_traitsIcEE4initEPSt15basic_streambufIcS1_E@plt>
    a81b:	48 8d 05 9e 9e 20 00 	lea    0x209e9e(%rip),%rax        # 2146c0 <_ZTVNSt7__cxx1119basic_ostringstreamIcSt11char_traitsIcESaIcEEE@@GLIBCXX_3.4.21+0x18>
    a822:	48 8d 7b 40          	lea    0x40(%rbx),%rdi
    a826:	48 c7 85 30 de ff ff 	movq   $0x0,-0x21d0(%rbp)
    a82d:	00 00 00 00 
    a831:	48 c7 85 38 de ff ff 	movq   $0x0,-0x21c8(%rbp)
    a838:	00 00 00 00 
    a83c:	48 c7 85 40 de ff ff 	movq   $0x0,-0x21c0(%rbp)
    a843:	00 00 00 00 
    a847:	48 89 85 70 dc ff ff 	mov    %rax,-0x2390(%rbp)
    a84e:	48 89 85 20 de ff ff 	mov    %rax,-0x21e0(%rbp)
    a855:	48 83 c0 28          	add    $0x28,%rax
    a859:	48 89 85 68 dc ff ff 	mov    %rax,-0x2398(%rbp)
    a860:	48 89 85 90 de ff ff 	mov    %rax,-0x2170(%rbp)
    a867:	48 8d 05 ca 9d 20 00 	lea    0x209dca(%rip),%rax        # 214638 <_ZTVSt15basic_streambufIcSt11char_traitsIcEE@@GLIBCXX_3.4+0x10>
    a86e:	48 c7 85 48 de ff ff 	movq   $0x0,-0x21b8(%rbp)
    a875:	00 00 00 00 
    a879:	48 c7 85 50 de ff ff 	movq   $0x0,-0x21b0(%rbp)
    a880:	00 00 00 00 
    a884:	48 89 85 78 dc ff ff 	mov    %rax,-0x2388(%rbp)
    a88b:	48 89 85 28 de ff ff 	mov    %rax,-0x21d8(%rbp)
    a892:	48 c7 85 58 de ff ff 	movq   $0x0,-0x21a8(%rbp)
    a899:	00 00 00 00 
    a89d:	e8 4e a3 ff ff       	callq  4bf0 <_ZNSt6localeC1Ev@plt>
    a8a2:	48 8d 05 6f 9f 20 00 	lea    0x209f6f(%rip),%rax        # 214818 <_ZTVNSt7__cxx1115basic_stringbufIcSt11char_traitsIcESaIcEEE@@GLIBCXX_3.4.21+0x10>
    a8a9:	48 8d 73 08          	lea    0x8(%rbx),%rsi
    a8ad:	48 8d 7b 70          	lea    0x70(%rbx),%rdi
    a8b1:	c7 85 68 de ff ff 10 	movl   $0x10,-0x2198(%rbp)
    a8b8:	00 00 00 
    a8bb:	48 c7 85 78 de ff ff 	movq   $0x0,-0x2188(%rbp)
    a8c2:	00 00 00 00 
    a8c6:	48 89 85 80 dc ff ff 	mov    %rax,-0x2380(%rbp)
    a8cd:	48 89 85 28 de ff ff 	mov    %rax,-0x21d8(%rbp)
    a8d4:	48 8d 43 60          	lea    0x60(%rbx),%rax
    a8d8:	c6 85 80 de ff ff 00 	movb   $0x0,-0x2180(%rbp)
    a8df:	48 89 85 70 de ff ff 	mov    %rax,-0x2190(%rbp)
    a8e6:	e8 d5 a0 ff ff       	callq  49c0 <_ZNSt9basic_iosIcSt11char_traitsIcEE4initEPSt15basic_streambufIcS1_E@plt>
    a8eb:	48 83 bd 60 dc ff ff 	cmpq   $0x0,-0x23a0(%rbp)
    a8f2:	00 
    a8f3:	0f 84 65 05 00 00    	je     ae5e <_Z14pipe_interfacePP8HunspelliP8_IO_FILEPc+0x245e>
    a8f9:	4c 8b bd 60 dc ff ff 	mov    -0x23a0(%rbp),%r15
    a900:	4c 89 ff             	mov    %r15,%rdi
    a903:	e8 e8 9d ff ff       	callq  46f0 <strlen@plt>
    a908:	4c 89 fe             	mov    %r15,%rsi
    a90b:	48 89 c2             	mov    %rax,%rdx
    a90e:	48 89 df             	mov    %rbx,%rdi
    a911:	e8 da 9f ff ff       	callq  48f0 <_ZSt16__ostream_insertIcSt11char_traitsIcEERSt13basic_ostreamIT_T0_ES6_PKS3_l@plt>
    a916:	48 8d 35 49 69 00 00 	lea    0x6949(%rip),%rsi        # 11266 <_IO_stdin_used+0xe66>
    a91d:	ba 0c 00 00 00       	mov    $0xc,%edx
    a922:	48 89 df             	mov    %rbx,%rdi
    a925:	e8 c6 9f ff ff       	callq  48f0 <_ZSt16__ostream_insertIcSt11char_traitsIcEERSt13basic_ostreamIT_T0_ES6_PKS3_l@plt>
    a92a:	4c 8d ad 40 dd ff ff 	lea    -0x22c0(%rbp),%r13
    a931:	48 c7 85 48 dd ff ff 	movq   $0x0,-0x22b8(%rbp)
    a938:	00 00 00 00 
    a93c:	c6 85 50 dd ff ff 00 	movb   $0x0,-0x22b0(%rbp)
    a943:	49 8d 45 10          	lea    0x10(%r13),%rax
    a947:	48 89 85 40 dd ff ff 	mov    %rax,-0x22c0(%rbp)
    a94e:	48 8b 85 50 de ff ff 	mov    -0x21b0(%rbp),%rax
    a955:	48 85 c0             	test   %rax,%rax
    a958:	0f 84 9b 0e 00 00    	je     b7f9 <_Z14pipe_interfacePP8HunspelliP8_IO_FILEPc+0x2df9>
    a95e:	48 8b 95 40 de ff ff 	mov    -0x21c0(%rbp),%rdx
    a965:	48 8b b5 48 de ff ff 	mov    -0x21b8(%rbp),%rsi
    a96c:	48 39 d0             	cmp    %rdx,%rax
    a96f:	0f 86 40 07 00 00    	jbe    b0b5 <_Z14pipe_interfacePP8HunspelliP8_IO_FILEPc+0x26b5>
    a975:	4c 8d a5 c0 dd ff ff 	lea    -0x2240(%rbp),%r12
    a97c:	49 8d 54 24 10       	lea    0x10(%r12),%rdx
    a981:	4c 89 e7             	mov    %r12,%rdi
    a984:	48 89 95 c0 dd ff ff 	mov    %rdx,-0x2240(%rbp)
    a98b:	48 89 c2             	mov    %rax,%rdx
    a98e:	e8 3d b8 ff ff       	callq  61d0 <_ZNSt7__cxx1112basic_stringIcSt11char_traitsIcESaIcEE12_M_constructIPKcEEvT_S8_St20forward_iterator_tag.isra.52>
    a993:	48 8b b5 c0 dd ff ff 	mov    -0x2240(%rbp),%rsi
    a99a:	49 8d 44 24 10       	lea    0x10(%r12),%rax
    a99f:	48 8b bd 40 dd ff ff 	mov    -0x22c0(%rbp),%rdi
    a9a6:	48 8b 95 c8 dd ff ff 	mov    -0x2238(%rbp),%rdx
    a9ad:	48 39 c6             	cmp    %rax,%rsi
    a9b0:	0f 84 a2 0f 00 00    	je     b958 <_Z14pipe_interfacePP8HunspelliP8_IO_FILEPc+0x2f58>
    a9b6:	49 8d 45 10          	lea    0x10(%r13),%rax
    a9ba:	48 8b 8d d0 dd ff ff 	mov    -0x2230(%rbp),%rcx
    a9c1:	48 39 c7             	cmp    %rax,%rdi
    a9c4:	0f 84 f2 0c 00 00    	je     b6bc <_Z14pipe_interfacePP8HunspelliP8_IO_FILEPc+0x2cbc>
    a9ca:	48 85 ff             	test   %rdi,%rdi
    a9cd:	48 8b 85 50 dd ff ff 	mov    -0x22b0(%rbp),%rax
    a9d4:	48 89 b5 40 dd ff ff 	mov    %rsi,-0x22c0(%rbp)
    a9db:	48 89 95 48 dd ff ff 	mov    %rdx,-0x22b8(%rbp)
    a9e2:	48 89 8d 50 dd ff ff 	mov    %rcx,-0x22b0(%rbp)
    a9e9:	0f 84 e2 0c 00 00    	je     b6d1 <_Z14pipe_interfacePP8HunspelliP8_IO_FILEPc+0x2cd1>
    a9ef:	48 89 bd c0 dd ff ff 	mov    %rdi,-0x2240(%rbp)
    a9f6:	48 89 85 d0 dd ff ff 	mov    %rax,-0x2230(%rbp)
    a9fd:	48 c7 85 c8 dd ff ff 	movq   $0x0,-0x2238(%rbp)
    aa04:	00 00 00 00 
    aa08:	c6 07 00             	movb   $0x0,(%rdi)
    aa0b:	49 83 c4 10          	add    $0x10,%r12
    aa0f:	48 8b bd c0 dd ff ff 	mov    -0x2240(%rbp),%rdi
    aa16:	4c 39 e7             	cmp    %r12,%rdi
    aa19:	0f 85 39 07 00 00    	jne    b158 <_Z14pipe_interfacePP8HunspelliP8_IO_FILEPc+0x2758>
    aa1f:	e9 39 07 00 00       	jmpq   b15d <_Z14pipe_interfacePP8HunspelliP8_IO_FILEPc+0x275d>
    aa24:	0f 1f 40 00          	nopl   0x0(%rax)
    aa28:	48 8b 0d b1 a7 20 00 	mov    0x20a7b1(%rip),%rcx        # 2151e0 <stdout@@GLIBC_2.2.5>
    aa2f:	48 8d 3d 0f 69 00 00 	lea    0x690f(%rip),%rdi        # 11345 <_IO_stdin_used+0xf45>
    aa36:	ba 02 00 00 00       	mov    $0x2,%edx
    aa3b:	be 01 00 00 00       	mov    $0x1,%esi
    aa40:	e8 9b a1 ff ff       	callq  4be0 <fwrite@plt>
    aa45:	e9 03 f3 ff ff       	jmpq   9d4d <_Z14pipe_interfacePP8HunspelliP8_IO_FILEPc+0x134d>
    aa4a:	66 0f 1f 44 00 00    	nopw   0x0(%rax,%rax,1)
    aa50:	8b 05 5e a8 20 00    	mov    0x20a85e(%rip),%eax        # 2152b4 <filter_mode>
    aa56:	83 f8 03             	cmp    $0x3,%eax
    aa59:	0f 84 a9 04 00 00    	je     af08 <_Z14pipe_interfacePP8HunspelliP8_IO_FILEPc+0x2508>
    aa5f:	0f 8e 09 0c 00 00    	jle    b66e <_Z14pipe_interfacePP8HunspelliP8_IO_FILEPc+0x2c6e>
    aa65:	83 f8 06             	cmp    $0x6,%eax
    aa68:	0f 84 08 0c 00 00    	je     b676 <_Z14pipe_interfacePP8HunspelliP8_IO_FILEPc+0x2c76>
    aa6e:	83 f8 08             	cmp    $0x8,%eax
    aa71:	0f 85 a6 ea ff ff    	jne    951d <_Z14pipe_interfacePP8HunspelliP8_IO_FILEPc+0xb1d>
    aa77:	48 8b b5 a8 dc ff ff 	mov    -0x2358(%rbp),%rsi
    aa7e:	48 89 df             	mov    %rbx,%rdi
    aa81:	e8 ba 40 00 00       	callq  eb40 <_ZNK10TextParser8get_lineB5cxx11Ev>
    aa86:	48 8b 8d 20 de ff ff 	mov    -0x21e0(%rbp),%rcx
    aa8d:	48 8b 3d 4c a7 20 00 	mov    0x20a74c(%rip),%rdi        # 2151e0 <stdout@@GLIBC_2.2.5>
    aa94:	48 8d 15 4b 6a 00 00 	lea    0x6a4b(%rip),%rdx        # 114e6 <_IO_stdin_used+0x10e6>
    aa9b:	be 01 00 00 00       	mov    $0x1,%esi
    aaa0:	31 c0                	xor    %eax,%eax
    aaa2:	e8 39 a0 ff ff       	callq  4ae0 <__fprintf_chk@plt>
    aaa7:	48 8b bd 20 de ff ff 	mov    -0x21e0(%rbp),%rdi
    aaae:	48 8d 43 10          	lea    0x10(%rbx),%rax
    aab2:	48 39 c7             	cmp    %rax,%rdi
    aab5:	0f 84 62 ea ff ff    	je     951d <_Z14pipe_interfacePP8HunspelliP8_IO_FILEPc+0xb1d>
    aabb:	e8 40 9d ff ff       	callq  4800 <_ZdlPv@plt>
    aac0:	e9 58 ea ff ff       	jmpq   951d <_Z14pipe_interfacePP8HunspelliP8_IO_FILEPc+0xb1d>
    aac5:	0f 1f 00             	nopl   (%rax)
    aac8:	48 8b 85 90 dc ff ff 	mov    -0x2370(%rbp),%rax
    aacf:	c7 85 78 dc ff ff 01 	movl   $0x1,-0x2388(%rbp)
    aad6:	00 00 00 
    aad9:	48 8d 70 01          	lea    0x1(%rax),%rsi
    aadd:	e9 76 e1 ff ff       	jmpq   8c58 <_Z14pipe_interfacePP8HunspelliP8_IO_FILEPc+0x258>
    aae2:	66 0f 1f 44 00 00    	nopw   0x0(%rax,%rax,1)
    aae8:	c7 85 48 dc ff ff 00 	movl   $0x0,-0x23b8(%rbp)
    aaef:	00 00 00 
    aaf2:	c7 85 4c dc ff ff 00 	movl   $0x0,-0x23b4(%rbp)
    aaf9:	00 00 00 
    aafc:	e9 fb e0 ff ff       	jmpq   8bfc <_Z14pipe_interfacePP8HunspelliP8_IO_FILEPc+0x1fc>
    ab01:	0f 1f 80 00 00 00 00 	nopl   0x0(%rax)
    ab08:	c7 85 4c dc ff ff 01 	movl   $0x1,-0x23b4(%rbp)
    ab0f:	00 00 00 
    ab12:	e9 e5 e0 ff ff       	jmpq   8bfc <_Z14pipe_interfacePP8HunspelliP8_IO_FILEPc+0x1fc>
    ab17:	66 0f 1f 84 00 00 00 	nopw   0x0(%rax,%rax,1)
    ab1e:	00 00 
    ab20:	4c 8d ad 00 de ff ff 	lea    -0x2200(%rbp),%r13
    ab27:	48 8d 3d 9e 67 00 00 	lea    0x679e(%rip),%rdi        # 112cc <_IO_stdin_used+0xecc>
    ab2e:	48 c7 85 08 de ff ff 	movq   $0x0,-0x21f8(%rbp)
    ab35:	00 00 00 00 
    ab39:	c6 85 10 de ff ff 00 	movb   $0x0,-0x21f0(%rbp)
    ab40:	49 8d 45 10          	lea    0x10(%r13),%rax
    ab44:	48 89 85 00 de ff ff 	mov    %rax,-0x2200(%rbp)
    ab4b:	e8 20 9e ff ff       	callq  4970 <getenv@plt>
    ab50:	48 85 c0             	test   %rax,%rax
    ab53:	0f 84 38 0e 00 00    	je     b991 <_Z14pipe_interfacePP8HunspelliP8_IO_FILEPc+0x2f91>
    ab59:	48 8d 3d 6c 67 00 00 	lea    0x676c(%rip),%rdi        # 112cc <_IO_stdin_used+0xecc>
    ab60:	e8 0b 9e ff ff       	callq  4970 <getenv@plt>
    ab65:	48 89 c7             	mov    %rax,%rdi
    ab68:	49 89 c4             	mov    %rax,%r12
    ab6b:	e8 80 9b ff ff       	callq  46f0 <strlen@plt>
    ab70:	48 b9 ff ff ff ff ff 	movabs $0x7fffffffffffffff,%rcx
    ab77:	ff ff 7f 
    ab7a:	48 2b 8d 08 de ff ff 	sub    -0x21f8(%rbp),%rcx
    ab81:	48 39 c8             	cmp    %rcx,%rax
    ab84:	0f 87 e9 12 00 00    	ja     be73 <_Z14pipe_interfacePP8HunspelliP8_IO_FILEPc+0x3473>
    ab8a:	48 89 c2             	mov    %rax,%rdx
    ab8d:	4c 89 e6             	mov    %r12,%rsi
    ab90:	4c 89 ef             	mov    %r13,%rdi
    ab93:	e8 08 9b ff ff       	callq  46a0 <_ZNSt7__cxx1112basic_stringIcSt11char_traitsIcESaIcEE9_M_appendEPKcm@plt>
    ab98:	48 b8 ff ff ff ff ff 	movabs $0x7fffffffffffffff,%rax
    ab9f:	ff ff 7f 
    aba2:	48 39 85 08 de ff ff 	cmp    %rax,-0x21f8(%rbp)
    aba9:	0f 84 8f 13 00 00    	je     bf3e <_Z14pipe_interfacePP8HunspelliP8_IO_FILEPc+0x353e>
    abaf:	48 8d 35 e3 6e 00 00 	lea    0x6ee3(%rip),%rsi        # 11a99 <_ZTS9ManParser+0x19>
    abb6:	ba 01 00 00 00       	mov    $0x1,%edx
    abbb:	4c 89 ef             	mov    %r13,%rdi
    abbe:	e8 dd 9a ff ff       	callq  46a0 <_ZNSt7__cxx1112basic_stringIcSt11char_traitsIcESaIcEE9_M_appendEPKcm@plt>
    abc3:	4c 8b a5 08 de ff ff 	mov    -0x21f8(%rbp),%r12
    abca:	4c 8b 3d f7 a6 20 00 	mov    0x20a6f7(%rip),%r15        # 2152c8 <privdicname>
    abd1:	49 be ff ff ff ff ff 	movabs $0x7fffffffffffffff,%r14
    abd8:	ff ff 7f 
    abdb:	4d 29 e6             	sub    %r12,%r14
    abde:	4d 85 ff             	test   %r15,%r15
    abe1:	0f 84 5f 0c 00 00    	je     b846 <_Z14pipe_interfacePP8HunspelliP8_IO_FILEPc+0x2e46>
    abe7:	4c 89 ff             	mov    %r15,%rdi
    abea:	e8 01 9b ff ff       	callq  46f0 <strlen@plt>
    abef:	49 39 c6             	cmp    %rax,%r14
    abf2:	0f 82 c8 12 00 00    	jb     bec0 <_Z14pipe_interfacePP8HunspelliP8_IO_FILEPc+0x34c0>
    abf8:	48 89 c2             	mov    %rax,%rdx
    abfb:	4c 89 fe             	mov    %r15,%rsi
    abfe:	4c 89 ef             	mov    %r13,%rdi
    ac01:	e8 9a 9a ff ff       	callq  46a0 <_ZNSt7__cxx1112basic_stringIcSt11char_traitsIcESaIcEE9_M_appendEPKcm@plt>
    ac06:	48 8b 8d 08 de ff ff 	mov    -0x21f8(%rbp),%rcx
    ac0d:	49 39 cc             	cmp    %rcx,%r12
    ac10:	0f 87 ef 12 00 00    	ja     bf05 <_Z14pipe_interfacePP8HunspelliP8_IO_FILEPc+0x3505>
    ac16:	48 8d 43 10          	lea    0x10(%rbx),%rax
    ac1a:	48 89 df             	mov    %rbx,%rdi
    ac1d:	48 89 85 20 de ff ff 	mov    %rax,-0x21e0(%rbp)
    ac24:	48 8b 85 00 de ff ff 	mov    -0x2200(%rbp),%rax
    ac2b:	48 8d 14 08          	lea    (%rax,%rcx,1),%rdx
    ac2f:	4a 8d 34 20          	lea    (%rax,%r12,1),%rsi
    ac33:	e8 98 b5 ff ff       	callq  61d0 <_ZNSt7__cxx1112basic_stringIcSt11char_traitsIcESaIcEE12_M_constructIPKcEEvT_S8_St20forward_iterator_tag.isra.52>
    ac38:	4c 8d a5 c0 dc ff ff 	lea    -0x2340(%rbp),%r12
    ac3f:	4c 89 ee             	mov    %r13,%rsi
    ac42:	48 89 df             	mov    %rbx,%rdi
    ac45:	4c 89 e2             	mov    %r12,%rdx
    ac48:	e8 63 c1 ff ff       	callq  6db0 <_Z12save_privdicRKNSt7__cxx1112basic_stringIcSt11char_traitsIcESaIcEEES6_RSt6vectorIS4_SaIS4_EE>
    ac4d:	48 8b bd 20 de ff ff 	mov    -0x21e0(%rbp),%rdi
    ac54:	41 89 c4             	mov    %eax,%r12d
    ac57:	48 8d 43 10          	lea    0x10(%rbx),%rax
    ac5b:	48 39 c7             	cmp    %rax,%rdi
    ac5e:	74 05                	je     ac65 <_Z14pipe_interfacePP8HunspelliP8_IO_FILEPc+0x2265>
    ac60:	e8 9b 9b ff ff       	callq  4800 <_ZdlPv@plt>
    ac65:	45 85 e4             	test   %r12d,%r12d
    ac68:	0f 85 9c 0b 00 00    	jne    b80a <_Z14pipe_interfacePP8HunspelliP8_IO_FILEPc+0x2e0a>
    ac6e:	48 8b bd 00 de ff ff 	mov    -0x2200(%rbp),%rdi
    ac75:	49 83 c5 10          	add    $0x10,%r13
    ac79:	4c 39 ef             	cmp    %r13,%rdi
    ac7c:	0f 85 af e8 ff ff    	jne    9531 <_Z14pipe_interfacePP8HunspelliP8_IO_FILEPc+0xb31>
    ac82:	e9 75 df ff ff       	jmpq   8bfc <_Z14pipe_interfacePP8HunspelliP8_IO_FILEPc+0x1fc>
    ac87:	66 0f 1f 84 00 00 00 	nopw   0x0(%rax,%rax,1)
    ac8e:	00 00 
    ac90:	c7 85 48 dc ff ff 01 	movl   $0x1,-0x23b8(%rbp)
    ac97:	00 00 00 
    ac9a:	e9 5d df ff ff       	jmpq   8bfc <_Z14pipe_interfacePP8HunspelliP8_IO_FILEPc+0x1fc>
    ac9f:	90                   	nop
    aca0:	48 8b bd a8 dc ff ff 	mov    -0x2358(%rbp),%rdi
    aca7:	48 85 ff             	test   %rdi,%rdi
    acaa:	74 06                	je     acb2 <_Z14pipe_interfacePP8HunspelliP8_IO_FILEPc+0x22b2>
    acac:	48 8b 07             	mov    (%rdi),%rax
    acaf:	ff 50 08             	callq  *0x8(%rax)
    acb2:	48 8b 85 98 dc ff ff 	mov    -0x2368(%rbp),%rax
    acb9:	31 f6                	xor    %esi,%esi
    acbb:	bf 01 00 00 00       	mov    $0x1,%edi
    acc0:	48 8b 10             	mov    (%rax),%rdx
    acc3:	e8 78 ce ff ff       	callq  7b40 <_Z10get_parseriPKcP8Hunspell>
    acc8:	8b 35 da a5 20 00    	mov    0x20a5da(%rip),%esi        # 2152a8 <checkurl>
    acce:	48 89 c7             	mov    %rax,%rdi
    acd1:	48 89 85 a8 dc ff ff 	mov    %rax,-0x2358(%rbp)
    acd8:	e8 73 3f 00 00       	callq  ec50 <_ZN10TextParser16set_url_checkingEi>
    acdd:	e9 1a df ff ff       	jmpq   8bfc <_Z14pipe_interfacePP8HunspelliP8_IO_FILEPc+0x1fc>
    ace2:	66 0f 1f 44 00 00    	nopw   0x0(%rax,%rax,1)
    ace8:	48 8b bd a8 dc ff ff 	mov    -0x2358(%rbp),%rdi
    acef:	48 85 ff             	test   %rdi,%rdi
    acf2:	74 06                	je     acfa <_Z14pipe_interfacePP8HunspelliP8_IO_FILEPc+0x22fa>
    acf4:	48 8b 07             	mov    (%rdi),%rax
    acf7:	ff 50 08             	callq  *0x8(%rax)
    acfa:	48 8b 85 98 dc ff ff 	mov    -0x2368(%rbp),%rax
    ad01:	8b bd 5c dc ff ff    	mov    -0x23a4(%rbp),%edi
    ad07:	31 f6                	xor    %esi,%esi
    ad09:	48 8b 10             	mov    (%rax),%rdx
    ad0c:	e8 2f ce ff ff       	callq  7b40 <_Z10get_parseriPKcP8Hunspell>
    ad11:	48 89 85 a8 dc ff ff 	mov    %rax,-0x2358(%rbp)
    ad18:	e9 df de ff ff       	jmpq   8bfc <_Z14pipe_interfacePP8HunspelliP8_IO_FILEPc+0x1fc>
    ad1d:	0f 1f 00             	nopl   (%rax)
    ad20:	48 63 85 bc dc ff ff 	movslq -0x2344(%rbp),%rax
    ad27:	48 8b 8d 98 dc ff ff 	mov    -0x2368(%rbp),%rcx
    ad2e:	4c 8b 24 c1          	mov    (%rcx,%rax,8),%r12
    ad32:	48 8d 43 10          	lea    0x10(%rbx),%rax
    ad36:	48 89 85 20 de ff ff 	mov    %rax,-0x21e0(%rbp)
    ad3d:	48 8b 85 90 dc ff ff 	mov    -0x2370(%rbp),%rax
    ad44:	4c 8d 68 01          	lea    0x1(%rax),%r13
    ad48:	4c 89 ef             	mov    %r13,%rdi
    ad4b:	e8 a0 99 ff ff       	callq  46f0 <strlen@plt>
    ad50:	49 8d 54 05 00       	lea    0x0(%r13,%rax,1),%rdx
    ad55:	4c 89 ee             	mov    %r13,%rsi
    ad58:	48 89 df             	mov    %rbx,%rdi
    ad5b:	e8 70 b4 ff ff       	callq  61d0 <_ZNSt7__cxx1112basic_stringIcSt11char_traitsIcESaIcEE12_M_constructIPKcEEvT_S8_St20forward_iterator_tag.isra.52>
    ad60:	4c 89 e6             	mov    %r12,%rsi
    ad63:	48 89 df             	mov    %rbx,%rdi
    ad66:	e8 25 b8 ff ff       	callq  6590 <_Z6putdicRKNSt7__cxx1112basic_stringIcSt11char_traitsIcESaIcEEEP8Hunspell>
    ad6b:	48 8b bd 20 de ff ff 	mov    -0x21e0(%rbp),%rdi
    ad72:	48 8d 43 10          	lea    0x10(%rbx),%rax
    ad76:	48 39 c7             	cmp    %rax,%rdi
    ad79:	0f 85 b2 e7 ff ff    	jne    9531 <_Z14pipe_interfacePP8HunspelliP8_IO_FILEPc+0xb31>
    ad7f:	e9 78 de ff ff       	jmpq   8bfc <_Z14pipe_interfacePP8HunspelliP8_IO_FILEPc+0x1fc>
    ad84:	0f 1f 40 00          	nopl   0x0(%rax)
    ad88:	48 8d 43 10          	lea    0x10(%rbx),%rax
    ad8c:	48 89 85 20 de ff ff 	mov    %rax,-0x21e0(%rbp)
    ad93:	48 8b 85 90 dc ff ff 	mov    -0x2370(%rbp),%rax
    ad9a:	4c 8d 60 01          	lea    0x1(%rax),%r12
    ad9e:	4c 89 e7             	mov    %r12,%rdi
    ada1:	e8 4a 99 ff ff       	callq  46f0 <strlen@plt>
    ada6:	49 8d 14 04          	lea    (%r12,%rax,1),%rdx
    adaa:	4c 89 e6             	mov    %r12,%rsi
    adad:	48 89 df             	mov    %rbx,%rdi
    adb0:	e8 1b b4 ff ff       	callq  61d0 <_ZNSt7__cxx1112basic_stringIcSt11char_traitsIcESaIcEE12_M_constructIPKcEEvT_S8_St20forward_iterator_tag.isra.52>
    adb5:	48 8b bd c8 dc ff ff 	mov    -0x2338(%rbp),%rdi
    adbc:	48 3b bd d0 dc ff ff 	cmp    -0x2330(%rbp),%rdi
    adc3:	0f 84 e8 0b 00 00    	je     b9b1 <_Z14pipe_interfacePP8HunspelliP8_IO_FILEPc+0x2fb1>
    adc9:	48 85 ff             	test   %rdi,%rdi
    adcc:	74 2b                	je     adf9 <_Z14pipe_interfacePP8HunspelliP8_IO_FILEPc+0x23f9>
    adce:	48 8d 47 10          	lea    0x10(%rdi),%rax
    add2:	4c 8d a5 c0 dc ff ff 	lea    -0x2340(%rbp),%r12
    add9:	48 89 07             	mov    %rax,(%rdi)
    addc:	48 8b b5 20 de ff ff 	mov    -0x21e0(%rbp),%rsi
    ade3:	48 8b 95 28 de ff ff 	mov    -0x21d8(%rbp),%rdx
    adea:	48 01 f2             	add    %rsi,%rdx
    aded:	e8 de b3 ff ff       	callq  61d0 <_ZNSt7__cxx1112basic_stringIcSt11char_traitsIcESaIcEE12_M_constructIPKcEEvT_S8_St20forward_iterator_tag.isra.52>
    adf2:	48 8b bd c8 dc ff ff 	mov    -0x2338(%rbp),%rdi
    adf9:	48 83 c7 20          	add    $0x20,%rdi
    adfd:	48 89 bd c8 dc ff ff 	mov    %rdi,-0x2338(%rbp)
    ae04:	48 63 85 bc dc ff ff 	movslq -0x2344(%rbp),%rax
    ae0b:	48 8b 8d 98 dc ff ff 	mov    -0x2368(%rbp),%rcx
    ae12:	48 89 df             	mov    %rbx,%rdi
    ae15:	4c 8d a5 c0 dc ff ff 	lea    -0x2340(%rbp),%r12
    ae1c:	48 8b 34 c1          	mov    (%rcx,%rax,8),%rsi
    ae20:	e8 6b b7 ff ff       	callq  6590 <_Z6putdicRKNSt7__cxx1112basic_stringIcSt11char_traitsIcESaIcEEEP8Hunspell>
    ae25:	e9 41 ff ff ff       	jmpq   ad6b <_Z14pipe_interfacePP8HunspelliP8_IO_FILEPc+0x236b>
    ae2a:	66 0f 1f 44 00 00    	nopw   0x0(%rax,%rax,1)
    ae30:	f3 0f 6f 40 10       	movdqu 0x10(%rax),%xmm0
    ae35:	0f 29 85 30 dd ff ff 	movaps %xmm0,-0x22d0(%rbp)
    ae3c:	e9 b0 dc ff ff       	jmpq   8af1 <_Z14pipe_interfacePP8HunspelliP8_IO_FILEPc+0xf1>
    ae41:	0f 1f 80 00 00 00 00 	nopl   0x0(%rax)
    ae48:	48 8b b5 90 dc ff ff 	mov    -0x2370(%rbp),%rsi
    ae4f:	c7 85 78 dc ff ff 00 	movl   $0x0,-0x2388(%rbp)
    ae56:	00 00 00 
    ae59:	e9 fa dd ff ff       	jmpq   8c58 <_Z14pipe_interfacePP8HunspelliP8_IO_FILEPc+0x258>
    ae5e:	48 8b 85 20 de ff ff 	mov    -0x21e0(%rbp),%rax
    ae65:	48 8b 78 e8          	mov    -0x18(%rax),%rdi
    ae69:	48 01 df             	add    %rbx,%rdi
    ae6c:	8b 77 20             	mov    0x20(%rdi),%esi
    ae6f:	83 ce 01             	or     $0x1,%esi
    ae72:	e8 79 9c ff ff       	callq  4af0 <_ZNSt9basic_iosIcSt11char_traitsIcEE5clearESt12_Ios_Iostate@plt>
    ae77:	e9 9a fa ff ff       	jmpq   a916 <_Z14pipe_interfacePP8HunspelliP8_IO_FILEPc+0x1f16>
    ae7c:	48 8d 3d f0 63 00 00 	lea    0x63f0(%rip),%rdi        # 11273 <_IO_stdin_used+0xe73>
    ae83:	e8 88 97 ff ff       	callq  4610 <gettext@plt>
    ae88:	48 89 c7             	mov    %rax,%rdi
    ae8b:	e8 10 99 ff ff       	callq  47a0 <perror@plt>
    ae90:	e9 70 ed ff ff       	jmpq   9c05 <_Z14pipe_interfacePP8HunspelliP8_IO_FILEPc+0x1205>
    ae95:	48 63 85 bc dc ff ff 	movslq -0x2344(%rbp),%rax
    ae9c:	48 89 f1             	mov    %rsi,%rcx
    ae9f:	48 8b b5 00 dd ff ff 	mov    -0x2300(%rbp),%rsi
    aea6:	48 89 df             	mov    %rbx,%rdi
    aea9:	49 8b 14 c6          	mov    (%r14,%rax,8),%rdx
    aead:	e8 ee b3 ff ff       	callq  62a0 <_Z5chencRKNSt7__cxx1112basic_stringIcSt11char_traitsIcESaIcEEEPKcS8_>
    aeb2:	4c 8b 8d e0 dd ff ff 	mov    -0x2220(%rbp),%r9
    aeb9:	44 8b 85 80 dc ff ff 	mov    -0x2380(%rbp),%r8d
    aec0:	48 83 ec 08          	sub    $0x8,%rsp
    aec4:	48 8b 0d f5 a3 20 00 	mov    0x20a3f5(%rip),%rcx        # 2152c0 <currentfilename>
    aecb:	48 8b bd 50 dc ff ff 	mov    -0x23b0(%rbp),%rdi
    aed2:	48 8d 15 03 64 00 00 	lea    0x6403(%rip),%rdx        # 112dc <_IO_stdin_used+0xedc>
    aed9:	ff b5 20 de ff ff    	pushq  -0x21e0(%rbp)
    aedf:	be 01 00 00 00       	mov    $0x1,%esi
    aee4:	31 c0                	xor    %eax,%eax
    aee6:	e8 f5 9b ff ff       	callq  4ae0 <__fprintf_chk@plt>
    aeeb:	48 8b bd 20 de ff ff 	mov    -0x21e0(%rbp),%rdi
    aef2:	48 3b bd a0 dc ff ff 	cmp    -0x2360(%rbp),%rdi
    aef9:	41 59                	pop    %r9
    aefb:	41 5a                	pop    %r10
    aefd:	0f 85 68 e1 ff ff    	jne    906b <_Z14pipe_interfacePP8HunspelliP8_IO_FILEPc+0x66b>
    af03:	e9 68 e1 ff ff       	jmpq   9070 <_Z14pipe_interfacePP8HunspelliP8_IO_FILEPc+0x670>
    af08:	8b 0d a2 a3 20 00    	mov    0x20a3a2(%rip),%ecx        # 2152b0 <printgood>
    af0e:	85 c9                	test   %ecx,%ecx
    af10:	0f 84 82 07 00 00    	je     b698 <_Z14pipe_interfacePP8HunspelliP8_IO_FILEPc+0x2c98>
    af16:	8b 95 68 dc ff ff    	mov    -0x2398(%rbp),%edx
    af1c:	85 d2                	test   %edx,%edx
    af1e:	0f 84 5c ea ff ff    	je     9980 <_Z14pipe_interfacePP8HunspelliP8_IO_FILEPc+0xf80>
    af24:	e9 f4 e5 ff ff       	jmpq   951d <_Z14pipe_interfacePP8HunspelliP8_IO_FILEPc+0xb1d>
    af29:	0f 1f 80 00 00 00 00 	nopl   0x0(%rax)
    af30:	48 63 85 bc dc ff ff 	movslq -0x2344(%rbp),%rax
    af37:	48 89 f1             	mov    %rsi,%rcx
    af3a:	48 8b b5 00 dd ff ff 	mov    -0x2300(%rbp),%rsi
    af41:	48 89 df             	mov    %rbx,%rdi
    af44:	49 8b 14 c6          	mov    (%r14,%rax,8),%rdx
    af48:	e8 53 b3 ff ff       	callq  62a0 <_Z5chencRKNSt7__cxx1112basic_stringIcSt11char_traitsIcESaIcEEEPKcS8_>
    af4d:	4c 8b 8d 20 de ff ff 	mov    -0x21e0(%rbp),%r9
    af54:	4c 8b 85 e0 dd ff ff 	mov    -0x2220(%rbp),%r8
    af5b:	48 83 ec 08          	sub    $0x8,%rsp
    af5f:	8b 8d 80 dc ff ff    	mov    -0x2380(%rbp),%ecx
    af65:	48 8b bd 50 dc ff ff 	mov    -0x23b0(%rbp),%rdi
    af6c:	48 8d 15 86 63 00 00 	lea    0x6386(%rip),%rdx        # 112f9 <_IO_stdin_used+0xef9>
    af73:	ff b5 90 dc ff ff    	pushq  -0x2370(%rbp)
    af79:	be 01 00 00 00       	mov    $0x1,%esi
    af7e:	31 c0                	xor    %eax,%eax
    af80:	e8 5b 9b ff ff       	callq  4ae0 <__fprintf_chk@plt>
    af85:	e9 61 ff ff ff       	jmpq   aeeb <_Z14pipe_interfacePP8HunspelliP8_IO_FILEPc+0x24eb>
    af8a:	66 0f 1f 44 00 00    	nopw   0x0(%rax,%rax,1)
    af90:	c6 85 5b dc ff ff 00 	movb   $0x0,-0x23a5(%rbp)
    af97:	e9 12 dc ff ff       	jmpq   8bae <_Z14pipe_interfacePP8HunspelliP8_IO_FILEPc+0x1ae>
    af9c:	0f 1f 40 00          	nopl   0x0(%rax)
    afa0:	45 85 ed             	test   %r13d,%r13d
    afa3:	0f 8e 30 0c 00 00    	jle    bbd9 <_Z14pipe_interfacePP8HunspelliP8_IO_FILEPc+0x31d9>
    afa9:	48 8b 85 90 dc ff ff 	mov    -0x2370(%rbp),%rax
    afb0:	41 8d 75 ff          	lea    -0x1(%r13),%esi
    afb4:	48 8b bd a8 dc ff ff 	mov    -0x2358(%rbp),%rdi
    afbb:	45 31 ed             	xor    %r13d,%r13d
    afbe:	48 89 c1             	mov    %rax,%rcx
    afc1:	48 83 c0 01          	add    $0x1,%rax
    afc5:	48 01 c6             	add    %rax,%rsi
    afc8:	eb 0a                	jmp    afd4 <_Z14pipe_interfacePP8HunspelliP8_IO_FILEPc+0x25d4>
    afca:	66 0f 1f 44 00 00    	nopw   0x0(%rax,%rax,1)
    afd0:	48 83 c0 01          	add    $0x1,%rax
    afd4:	0f be 09             	movsbl (%rcx),%ecx
    afd7:	81 e1 c0 00 00 00    	and    $0xc0,%ecx
    afdd:	83 c1 80             	add    $0xffffff80,%ecx
    afe0:	0f 95 c1             	setne  %cl
    afe3:	0f b6 c9             	movzbl %cl,%ecx
    afe6:	41 01 cd             	add    %ecx,%r13d
    afe9:	48 39 c6             	cmp    %rax,%rsi
    afec:	48 89 c1             	mov    %rax,%rcx
    afef:	75 df                	jne    afd0 <_Z14pipe_interfacePP8HunspelliP8_IO_FILEPc+0x25d0>
    aff1:	48 89 bd a8 dc ff ff 	mov    %rdi,-0x2358(%rbp)
    aff8:	e9 fe ef ff ff       	jmpq   9ffb <_Z14pipe_interfacePP8HunspelliP8_IO_FILEPc+0x15fb>
    affd:	0f 1f 00             	nopl   (%rax)
    b000:	8b b5 50 dc ff ff    	mov    -0x23b0(%rbp),%esi
    b006:	85 f6                	test   %esi,%esi
    b008:	0f 8e bc 0b 00 00    	jle    bbca <_Z14pipe_interfacePP8HunspelliP8_IO_FILEPc+0x31ca>
    b00e:	48 8b 85 90 dc ff ff 	mov    -0x2370(%rbp),%rax
    b015:	4c 8b 95 a8 dc ff ff 	mov    -0x2358(%rbp),%r10
    b01c:	83 ee 01             	sub    $0x1,%esi
    b01f:	31 ff                	xor    %edi,%edi
    b021:	48 89 c1             	mov    %rax,%rcx
    b024:	48 83 c0 01          	add    $0x1,%rax
    b028:	4d 89 d3             	mov    %r10,%r11
    b02b:	48 01 c6             	add    %rax,%rsi
    b02e:	eb 04                	jmp    b034 <_Z14pipe_interfacePP8HunspelliP8_IO_FILEPc+0x2634>
    b030:	48 83 c0 01          	add    $0x1,%rax
    b034:	0f be 09             	movsbl (%rcx),%ecx
    b037:	81 e1 c0 00 00 00    	and    $0xc0,%ecx
    b03d:	83 c1 80             	add    $0xffffff80,%ecx
    b040:	0f 95 c1             	setne  %cl
    b043:	0f b6 c9             	movzbl %cl,%ecx
    b046:	01 cf                	add    %ecx,%edi
    b048:	48 39 f0             	cmp    %rsi,%rax
    b04b:	48 89 c1             	mov    %rax,%rcx
    b04e:	75 e0                	jne    b030 <_Z14pipe_interfacePP8HunspelliP8_IO_FILEPc+0x2630>
    b050:	4c 89 9d a8 dc ff ff 	mov    %r11,-0x2358(%rbp)
    b057:	89 bd 50 dc ff ff    	mov    %edi,-0x23b0(%rbp)
    b05d:	e9 3b ed ff ff       	jmpq   9d9d <_Z14pipe_interfacePP8HunspelliP8_IO_FILEPc+0x139d>
    b062:	4c 89 fe             	mov    %r15,%rsi
    b065:	48 89 df             	mov    %rbx,%rdi
    b068:	e8 33 b2 ff ff       	callq  62a0 <_Z5chencRKNSt7__cxx1112basic_stringIcSt11char_traitsIcESaIcEEEPKcS8_>
    b06d:	44 8b 85 50 dc ff ff 	mov    -0x23b0(%rbp),%r8d
    b074:	48 8b 8d 20 de ff ff 	mov    -0x21e0(%rbp),%rcx
    b07b:	48 8d 15 c6 62 00 00 	lea    0x62c6(%rip),%rdx        # 11348 <_IO_stdin_used+0xf48>
    b082:	48 8b 3d 57 a1 20 00 	mov    0x20a157(%rip),%rdi        # 2151e0 <stdout@@GLIBC_2.2.5>
    b089:	be 01 00 00 00       	mov    $0x1,%esi
    b08e:	31 c0                	xor    %eax,%eax
    b090:	e8 4b 9a ff ff       	callq  4ae0 <__fprintf_chk@plt>
    b095:	e9 07 ee ff ff       	jmpq   9ea1 <_Z14pipe_interfacePP8HunspelliP8_IO_FILEPc+0x14a1>
    b09a:	48 8d 15 a7 62 00 00 	lea    0x62a7(%rip),%rdx        # 11348 <_IO_stdin_used+0xf48>
    b0a1:	45 89 e8             	mov    %r13d,%r8d
    b0a4:	be 01 00 00 00       	mov    $0x1,%esi
    b0a9:	31 c0                	xor    %eax,%eax
    b0ab:	e8 30 9a ff ff       	callq  4ae0 <__fprintf_chk@plt>
    b0b0:	e9 35 f0 ff ff       	jmpq   a0ea <_Z14pipe_interfacePP8HunspelliP8_IO_FILEPc+0x16ea>
    b0b5:	4c 8d a5 a0 dd ff ff 	lea    -0x2260(%rbp),%r12
    b0bc:	49 8d 44 24 10       	lea    0x10(%r12),%rax
    b0c1:	4c 89 e7             	mov    %r12,%rdi
    b0c4:	48 89 85 a0 dd ff ff 	mov    %rax,-0x2260(%rbp)
    b0cb:	e8 00 b1 ff ff       	callq  61d0 <_ZNSt7__cxx1112basic_stringIcSt11char_traitsIcESaIcEE12_M_constructIPKcEEvT_S8_St20forward_iterator_tag.isra.52>
    b0d0:	48 8b b5 a0 dd ff ff 	mov    -0x2260(%rbp),%rsi
    b0d7:	49 8d 44 24 10       	lea    0x10(%r12),%rax
    b0dc:	48 8b bd 40 dd ff ff 	mov    -0x22c0(%rbp),%rdi
    b0e3:	48 8b 95 a8 dd ff ff 	mov    -0x2258(%rbp),%rdx
    b0ea:	48 39 c6             	cmp    %rax,%rsi
    b0ed:	0f 84 ba 07 00 00    	je     b8ad <_Z14pipe_interfacePP8HunspelliP8_IO_FILEPc+0x2ead>
    b0f3:	49 8d 45 10          	lea    0x10(%r13),%rax
    b0f7:	48 8b 8d b0 dd ff ff 	mov    -0x2250(%rbp),%rcx
    b0fe:	48 39 c7             	cmp    %rax,%rdi
    b101:	0f 84 db 05 00 00    	je     b6e2 <_Z14pipe_interfacePP8HunspelliP8_IO_FILEPc+0x2ce2>
    b107:	48 85 ff             	test   %rdi,%rdi
    b10a:	48 8b 85 50 dd ff ff 	mov    -0x22b0(%rbp),%rax
    b111:	48 89 b5 40 dd ff ff 	mov    %rsi,-0x22c0(%rbp)
    b118:	48 89 95 48 dd ff ff 	mov    %rdx,-0x22b8(%rbp)
    b11f:	48 89 8d 50 dd ff ff 	mov    %rcx,-0x22b0(%rbp)
    b126:	0f 84 cb 05 00 00    	je     b6f7 <_Z14pipe_interfacePP8HunspelliP8_IO_FILEPc+0x2cf7>
    b12c:	48 89 bd a0 dd ff ff 	mov    %rdi,-0x2260(%rbp)
    b133:	48 89 85 b0 dd ff ff 	mov    %rax,-0x2250(%rbp)
    b13a:	48 c7 85 a8 dd ff ff 	movq   $0x0,-0x2258(%rbp)
    b141:	00 00 00 00 
    b145:	c6 07 00             	movb   $0x0,(%rdi)
    b148:	49 83 c4 10          	add    $0x10,%r12
    b14c:	48 8b bd a0 dd ff ff 	mov    -0x2260(%rbp),%rdi
    b153:	4c 39 e7             	cmp    %r12,%rdi
    b156:	74 05                	je     b15d <_Z14pipe_interfacePP8HunspelliP8_IO_FILEPc+0x275d>
    b158:	e8 a3 96 ff ff       	callq  4800 <_ZdlPv@plt>
    b15d:	48 8b bd 40 dd ff ff 	mov    -0x22c0(%rbp),%rdi
    b164:	49 83 c5 10          	add    $0x10,%r13
    b168:	e8 d3 99 ff ff       	callq  4b40 <remove@plt>
    b16d:	48 8b bd 40 dd ff ff 	mov    -0x22c0(%rbp),%rdi
    b174:	41 89 c4             	mov    %eax,%r12d
    b177:	4c 39 ef             	cmp    %r13,%rdi
    b17a:	74 05                	je     b181 <_Z14pipe_interfacePP8HunspelliP8_IO_FILEPc+0x2781>
    b17c:	e8 7f 96 ff ff       	callq  4800 <_ZdlPv@plt>
    b181:	45 85 e4             	test   %r12d,%r12d
    b184:	74 0c                	je     b192 <_Z14pipe_interfacePP8HunspelliP8_IO_FILEPc+0x2792>
    b186:	48 8d 3d de 61 00 00 	lea    0x61de(%rip),%rdi        # 1136b <_IO_stdin_used+0xf6b>
    b18d:	e8 0e 96 ff ff       	callq  47a0 <perror@plt>
    b192:	4c 8d ad 00 de ff ff 	lea    -0x2200(%rbp),%r13
    b199:	48 8d 15 74 62 00 00 	lea    0x6274(%rip),%rdx        # 11414 <_IO_stdin_used+0x1014>
    b1a0:	49 8d 45 10          	lea    0x10(%r13),%rax
    b1a4:	48 89 d6             	mov    %rdx,%rsi
    b1a7:	4c 89 ef             	mov    %r13,%rdi
    b1aa:	48 89 85 00 de ff ff 	mov    %rax,-0x2200(%rbp)
    b1b1:	e8 1a b0 ff ff       	callq  61d0 <_ZNSt7__cxx1112basic_stringIcSt11char_traitsIcESaIcEE12_M_constructIPKcEEvT_S8_St20forward_iterator_tag.isra.52>
    b1b6:	4c 8b 85 08 de ff ff 	mov    -0x21f8(%rbp),%r8
    b1bd:	48 8b 8d 00 de ff ff 	mov    -0x2200(%rbp),%rcx
    b1c4:	48 8d 7b 50          	lea    0x50(%rbx),%rdi
    b1c8:	48 8b 95 78 de ff ff 	mov    -0x2188(%rbp),%rdx
    b1cf:	31 f6                	xor    %esi,%esi
    b1d1:	e8 8a 98 ff ff       	callq  4a60 <_ZNSt7__cxx1112basic_stringIcSt11char_traitsIcESaIcEE10_M_replaceEmmPKcm@plt>
    b1d6:	31 c9                	xor    %ecx,%ecx
    b1d8:	f6 85 68 de ff ff 03 	testb  $0x3,-0x2198(%rbp)
    b1df:	74 07                	je     b1e8 <_Z14pipe_interfacePP8HunspelliP8_IO_FILEPc+0x27e8>
    b1e1:	48 8b 8d 78 de ff ff 	mov    -0x2188(%rbp),%rcx
    b1e8:	48 8b b5 70 de ff ff 	mov    -0x2190(%rbp),%rsi
    b1ef:	48 8d 7b 08          	lea    0x8(%rbx),%rdi
    b1f3:	31 d2                	xor    %edx,%edx
    b1f5:	e8 a6 97 ff ff       	callq  49a0 <_ZNSt7__cxx1115basic_stringbufIcSt11char_traitsIcESaIcEE7_M_syncEPcmm@plt>
    b1fa:	48 8b bd 00 de ff ff 	mov    -0x2200(%rbp),%rdi
    b201:	49 8d 45 10          	lea    0x10(%r13),%rax
    b205:	48 39 c7             	cmp    %rax,%rdi
    b208:	74 05                	je     b20f <_Z14pipe_interfacePP8HunspelliP8_IO_FILEPc+0x280f>
    b20a:	e8 f1 95 ff ff       	callq  4800 <_ZdlPv@plt>
    b20f:	48 8d 35 72 60 00 00 	lea    0x6072(%rip),%rsi        # 11288 <_IO_stdin_used+0xe88>
    b216:	ba 06 00 00 00       	mov    $0x6,%edx
    b21b:	48 89 df             	mov    %rbx,%rdi
    b21e:	e8 cd 96 ff ff       	callq  48f0 <_ZSt16__ostream_insertIcSt11char_traitsIcEERSt13basic_ostreamIT_T0_ES6_PKS3_l@plt>
    b223:	48 83 bd 60 dc ff ff 	cmpq   $0x0,-0x23a0(%rbp)
    b22a:	00 
    b22b:	0f 84 99 05 00 00    	je     b7ca <_Z14pipe_interfacePP8HunspelliP8_IO_FILEPc+0x2dca>
    b231:	4c 8b bd 60 dc ff ff 	mov    -0x23a0(%rbp),%r15
    b238:	4c 89 ff             	mov    %r15,%rdi
    b23b:	e8 b0 94 ff ff       	callq  46f0 <strlen@plt>
    b240:	4c 89 fe             	mov    %r15,%rsi
    b243:	48 89 c2             	mov    %rax,%rdx
    b246:	48 89 df             	mov    %rbx,%rdi
    b249:	e8 a2 96 ff ff       	callq  48f0 <_ZSt16__ostream_insertIcSt11char_traitsIcEERSt13basic_ostreamIT_T0_ES6_PKS3_l@plt>
    b24e:	4c 8d a5 c0 dd ff ff 	lea    -0x2240(%rbp),%r12
    b255:	48 c7 85 c8 dd ff ff 	movq   $0x0,-0x2238(%rbp)
    b25c:	00 00 00 00 
    b260:	c6 85 d0 dd ff ff 00 	movb   $0x0,-0x2230(%rbp)
    b267:	49 8d 44 24 10       	lea    0x10(%r12),%rax
    b26c:	48 89 85 c0 dd ff ff 	mov    %rax,-0x2240(%rbp)
    b273:	48 8b 85 50 de ff ff 	mov    -0x21b0(%rbp),%rax
    b27a:	48 85 c0             	test   %rax,%rax
    b27d:	0f 84 65 05 00 00    	je     b7e8 <_Z14pipe_interfacePP8HunspelliP8_IO_FILEPc+0x2de8>
    b283:	48 8b 95 40 de ff ff 	mov    -0x21c0(%rbp),%rdx
    b28a:	48 8b b5 48 de ff ff 	mov    -0x21b8(%rbp),%rsi
    b291:	48 39 d0             	cmp    %rdx,%rax
    b294:	0f 86 85 04 00 00    	jbe    b71f <_Z14pipe_interfacePP8HunspelliP8_IO_FILEPc+0x2d1f>
    b29a:	49 8d 55 10          	lea    0x10(%r13),%rdx
    b29e:	4c 89 ef             	mov    %r13,%rdi
    b2a1:	48 89 95 00 de ff ff 	mov    %rdx,-0x2200(%rbp)
    b2a8:	48 89 c2             	mov    %rax,%rdx
    b2ab:	e8 20 af ff ff       	callq  61d0 <_ZNSt7__cxx1112basic_stringIcSt11char_traitsIcESaIcEE12_M_constructIPKcEEvT_S8_St20forward_iterator_tag.isra.52>
    b2b0:	48 8b b5 00 de ff ff 	mov    -0x2200(%rbp),%rsi
    b2b7:	49 8d 45 10          	lea    0x10(%r13),%rax
    b2bb:	48 8b bd c0 dd ff ff 	mov    -0x2240(%rbp),%rdi
    b2c2:	48 8b 95 08 de ff ff 	mov    -0x21f8(%rbp),%rdx
    b2c9:	48 39 c6             	cmp    %rax,%rsi
    b2cc:	0f 84 4d 06 00 00    	je     b91f <_Z14pipe_interfacePP8HunspelliP8_IO_FILEPc+0x2f1f>
    b2d2:	49 8d 44 24 10       	lea    0x10(%r12),%rax
    b2d7:	48 8b 8d 10 de ff ff 	mov    -0x21f0(%rbp),%rcx
    b2de:	48 39 c7             	cmp    %rax,%rdi
    b2e1:	0f 84 e4 06 00 00    	je     b9cb <_Z14pipe_interfacePP8HunspelliP8_IO_FILEPc+0x2fcb>
    b2e7:	48 85 ff             	test   %rdi,%rdi
    b2ea:	48 8b 85 d0 dd ff ff 	mov    -0x2230(%rbp),%rax
    b2f1:	48 89 b5 c0 dd ff ff 	mov    %rsi,-0x2240(%rbp)
    b2f8:	48 89 95 c8 dd ff ff 	mov    %rdx,-0x2238(%rbp)
    b2ff:	48 89 8d d0 dd ff ff 	mov    %rcx,-0x2230(%rbp)
    b306:	0f 84 d4 06 00 00    	je     b9e0 <_Z14pipe_interfacePP8HunspelliP8_IO_FILEPc+0x2fe0>
    b30c:	48 89 bd 00 de ff ff 	mov    %rdi,-0x2200(%rbp)
    b313:	48 89 85 10 de ff ff 	mov    %rax,-0x21f0(%rbp)
    b31a:	48 c7 85 08 de ff ff 	movq   $0x0,-0x21f8(%rbp)
    b321:	00 00 00 00 
    b325:	c6 07 00             	movb   $0x0,(%rdi)
    b328:	49 83 c5 10          	add    $0x10,%r13
    b32c:	48 8b bd 00 de ff ff 	mov    -0x2200(%rbp),%rdi
    b333:	4c 39 ef             	cmp    %r13,%rdi
    b336:	74 05                	je     b33d <_Z14pipe_interfacePP8HunspelliP8_IO_FILEPc+0x293d>
    b338:	e8 c3 94 ff ff       	callq  4800 <_ZdlPv@plt>
    b33d:	48 8b bd c0 dd ff ff 	mov    -0x2240(%rbp),%rdi
    b344:	e8 67 94 ff ff       	callq  47b0 <system@plt>
    b349:	48 8b bd c0 dd ff ff 	mov    -0x2240(%rbp),%rdi
    b350:	49 83 c4 10          	add    $0x10,%r12
    b354:	41 89 c5             	mov    %eax,%r13d
    b357:	4c 39 e7             	cmp    %r12,%rdi
    b35a:	74 05                	je     b361 <_Z14pipe_interfacePP8HunspelliP8_IO_FILEPc+0x2961>
    b35c:	e8 9f 94 ff ff       	callq  4800 <_ZdlPv@plt>
    b361:	45 85 ed             	test   %r13d,%r13d
    b364:	74 0c                	je     b372 <_Z14pipe_interfacePP8HunspelliP8_IO_FILEPc+0x2972>
    b366:	48 8d 3d 32 5f 00 00 	lea    0x5f32(%rip),%rdi        # 1129f <_IO_stdin_used+0xe9f>
    b36d:	e8 2e 94 ff ff       	callq  47a0 <perror@plt>
    b372:	48 8b 85 70 dc ff ff 	mov    -0x2390(%rbp),%rax
    b379:	48 8b bd 70 de ff ff 	mov    -0x2190(%rbp),%rdi
    b380:	48 89 85 20 de ff ff 	mov    %rax,-0x21e0(%rbp)
    b387:	48 8b 85 68 dc ff ff 	mov    -0x2398(%rbp),%rax
    b38e:	48 89 85 90 de ff ff 	mov    %rax,-0x2170(%rbp)
    b395:	48 8b 85 80 dc ff ff 	mov    -0x2380(%rbp),%rax
    b39c:	48 89 85 28 de ff ff 	mov    %rax,-0x21d8(%rbp)
    b3a3:	48 8d 43 60          	lea    0x60(%rbx),%rax
    b3a7:	48 39 c7             	cmp    %rax,%rdi
    b3aa:	74 05                	je     b3b1 <_Z14pipe_interfacePP8HunspelliP8_IO_FILEPc+0x29b1>
    b3ac:	e8 4f 94 ff ff       	callq  4800 <_ZdlPv@plt>
    b3b1:	48 8b 85 78 dc ff ff 	mov    -0x2388(%rbp),%rax
    b3b8:	48 8d 7b 40          	lea    0x40(%rbx),%rdi
    b3bc:	48 89 85 28 de ff ff 	mov    %rax,-0x21d8(%rbp)
    b3c3:	e8 18 96 ff ff       	callq  49e0 <_ZNSt6localeD1Ev@plt>
    b3c8:	49 8b 46 e8          	mov    -0x18(%r14),%rax
    b3cc:	48 8b 8d 90 dc ff ff 	mov    -0x2370(%rbp),%rcx
    b3d3:	48 8d 7b 70          	lea    0x70(%rbx),%rdi
    b3d7:	4c 89 b5 20 de ff ff 	mov    %r14,-0x21e0(%rbp)
    b3de:	48 89 8c 05 20 de ff 	mov    %rcx,-0x21e0(%rbp,%rax,1)
    b3e5:	ff 
    b3e6:	48 8b 85 a0 dc ff ff 	mov    -0x2360(%rbp),%rax
    b3ed:	48 89 85 90 de ff ff 	mov    %rax,-0x2170(%rbp)
    b3f4:	e8 b7 92 ff ff       	callq  46b0 <_ZNSt8ios_baseD2Ev@plt>
    b3f9:	e9 9f e4 ff ff       	jmpq   989d <_Z14pipe_interfacePP8HunspelliP8_IO_FILEPc+0xe9d>
    b3fe:	48 8b 85 20 de ff ff 	mov    -0x21e0(%rbp),%rax
    b405:	48 8b 78 e8          	mov    -0x18(%rax),%rdi
    b409:	48 01 df             	add    %rbx,%rdi
    b40c:	8b 77 20             	mov    0x20(%rdi),%esi
    b40f:	83 ce 01             	or     $0x1,%esi
    b412:	e8 d9 96 ff ff       	callq  4af0 <_ZNSt9basic_iosIcSt11char_traitsIcEE5clearESt12_Ios_Iostate@plt>
    b417:	e9 53 e7 ff ff       	jmpq   9b6f <_Z14pipe_interfacePP8HunspelliP8_IO_FILEPc+0x116f>
    b41c:	f3 0f 6f 40 10       	movdqu 0x10(%rax),%xmm0
    b421:	0f 29 85 10 de ff ff 	movaps %xmm0,-0x21f0(%rbp)
    b428:	e9 69 e8 ff ff       	jmpq   9c96 <_Z14pipe_interfacePP8HunspelliP8_IO_FILEPc+0x1296>
    b42d:	4c 8d ad 00 de ff ff 	lea    -0x2200(%rbp),%r13
    b434:	48 c7 85 08 de ff ff 	movq   $0x0,-0x21f8(%rbp)
    b43b:	00 00 00 00 
    b43f:	c6 85 10 de ff ff 00 	movb   $0x0,-0x21f0(%rbp)
    b446:	49 8d 45 10          	lea    0x10(%r13),%rax
    b44a:	48 89 85 00 de ff ff 	mov    %rax,-0x2200(%rbp)
    b451:	48 8b 85 50 de ff ff 	mov    -0x21b0(%rbp),%rax
    b458:	48 85 c0             	test   %rax,%rax
    b45b:	0f 84 4a 02 00 00    	je     b6ab <_Z14pipe_interfacePP8HunspelliP8_IO_FILEPc+0x2cab>
    b461:	48 8b 95 40 de ff ff 	mov    -0x21c0(%rbp),%rdx
    b468:	48 8b b5 48 de ff ff 	mov    -0x21b8(%rbp),%rsi
    b46f:	48 39 d0             	cmp    %rdx,%rax
    b472:	0f 86 9d 05 00 00    	jbe    ba15 <_Z14pipe_interfacePP8HunspelliP8_IO_FILEPc+0x3015>
    b478:	4c 8d bd 80 dd ff ff 	lea    -0x2280(%rbp),%r15
    b47f:	49 8d 57 10          	lea    0x10(%r15),%rdx
    b483:	4c 89 ff             	mov    %r15,%rdi
    b486:	48 89 95 80 dd ff ff 	mov    %rdx,-0x2280(%rbp)
    b48d:	48 89 c2             	mov    %rax,%rdx
    b490:	e8 3b ad ff ff       	callq  61d0 <_ZNSt7__cxx1112basic_stringIcSt11char_traitsIcESaIcEE12_M_constructIPKcEEvT_S8_St20forward_iterator_tag.isra.52>
    b495:	48 8b b5 80 dd ff ff 	mov    -0x2280(%rbp),%rsi
    b49c:	49 8d 47 10          	lea    0x10(%r15),%rax
    b4a0:	48 8b bd 00 de ff ff 	mov    -0x2200(%rbp),%rdi
    b4a7:	48 8b 95 88 dd ff ff 	mov    -0x2278(%rbp),%rdx
    b4ae:	48 39 c6             	cmp    %rax,%rsi
    b4b1:	0f 84 d3 07 00 00    	je     bc8a <_Z14pipe_interfacePP8HunspelliP8_IO_FILEPc+0x328a>
    b4b7:	49 8d 4d 10          	lea    0x10(%r13),%rcx
    b4bb:	48 8b 85 90 dd ff ff 	mov    -0x2270(%rbp),%rax
    b4c2:	48 39 cf             	cmp    %rcx,%rdi
    b4c5:	0f 84 f8 07 00 00    	je     bcc3 <_Z14pipe_interfacePP8HunspelliP8_IO_FILEPc+0x32c3>
    b4cb:	48 85 ff             	test   %rdi,%rdi
    b4ce:	48 8b 8d 10 de ff ff 	mov    -0x21f0(%rbp),%rcx
    b4d5:	48 89 b5 00 de ff ff 	mov    %rsi,-0x2200(%rbp)
    b4dc:	48 89 95 08 de ff ff 	mov    %rdx,-0x21f8(%rbp)
    b4e3:	48 89 85 10 de ff ff 	mov    %rax,-0x21f0(%rbp)
    b4ea:	0f 84 e8 07 00 00    	je     bcd8 <_Z14pipe_interfacePP8HunspelliP8_IO_FILEPc+0x32d8>
    b4f0:	48 89 bd 80 dd ff ff 	mov    %rdi,-0x2280(%rbp)
    b4f7:	48 89 8d 90 dd ff ff 	mov    %rcx,-0x2270(%rbp)
    b4fe:	48 c7 85 88 dd ff ff 	movq   $0x0,-0x2278(%rbp)
    b505:	00 00 00 00 
    b509:	c6 07 00             	movb   $0x0,(%rdi)
    b50c:	49 8d 47 10          	lea    0x10(%r15),%rax
    b510:	48 8b bd 80 dd ff ff 	mov    -0x2280(%rbp),%rdi
    b517:	48 39 c7             	cmp    %rax,%rdi
    b51a:	74 05                	je     b521 <_Z14pipe_interfacePP8HunspelliP8_IO_FILEPc+0x2b21>
    b51c:	e8 df 92 ff ff       	callq  4800 <_ZdlPv@plt>
    b521:	48 8b bd 00 de ff ff 	mov    -0x2200(%rbp),%rdi
    b528:	e8 83 92 ff ff       	callq  47b0 <system@plt>
    b52d:	85 c0                	test   %eax,%eax
    b52f:	48 8b bd 00 de ff ff 	mov    -0x2200(%rbp),%rdi
    b536:	0f 85 cc 01 00 00    	jne    b708 <_Z14pipe_interfacePP8HunspelliP8_IO_FILEPc+0x2d08>
    b53c:	49 8d 45 10          	lea    0x10(%r13),%rax
    b540:	48 39 c7             	cmp    %rax,%rdi
    b543:	74 05                	je     b54a <_Z14pipe_interfacePP8HunspelliP8_IO_FILEPc+0x2b4a>
    b545:	e8 b6 92 ff ff       	callq  4800 <_ZdlPv@plt>
    b54a:	4c 8b bd 60 dc ff ff 	mov    -0x23a0(%rbp),%r15
    b551:	4c 8d a5 c0 dd ff ff 	lea    -0x2240(%rbp),%r12
    b558:	49 8d 44 24 10       	lea    0x10(%r12),%rax
    b55d:	4c 89 ff             	mov    %r15,%rdi
    b560:	48 89 85 c0 dd ff ff 	mov    %rax,-0x2240(%rbp)
    b567:	e8 84 91 ff ff       	callq  46f0 <strlen@plt>
    b56c:	49 8d 14 07          	lea    (%r15,%rax,1),%rdx
    b570:	4c 89 fe             	mov    %r15,%rsi
    b573:	4c 89 e7             	mov    %r12,%rdi
    b576:	e8 55 ac ff ff       	callq  61d0 <_ZNSt7__cxx1112basic_stringIcSt11char_traitsIcESaIcEE12_M_constructIPKcEEvT_S8_St20forward_iterator_tag.isra.52>
    b57b:	48 b8 ff ff ff ff ff 	movabs $0x7fffffffffffffff,%rax
    b582:	ff ff 7f 
    b585:	48 2b 85 c8 dd ff ff 	sub    -0x2238(%rbp),%rax
    b58c:	48 83 f8 0b          	cmp    $0xb,%rax
    b590:	0f 86 5d 08 00 00    	jbe    bdf3 <_Z14pipe_interfacePP8HunspelliP8_IO_FILEPc+0x33f3>
    b596:	48 8d 35 c9 5c 00 00 	lea    0x5cc9(%rip),%rsi        # 11266 <_IO_stdin_used+0xe66>
    b59d:	ba 0c 00 00 00       	mov    $0xc,%edx
    b5a2:	4c 89 e7             	mov    %r12,%rdi
    b5a5:	e8 f6 90 ff ff       	callq  46a0 <_ZNSt7__cxx1112basic_stringIcSt11char_traitsIcESaIcEE9_M_appendEPKcm@plt>
    b5aa:	48 8b bd c0 dd ff ff 	mov    -0x2240(%rbp),%rdi
    b5b1:	48 8d 35 aa 5e 00 00 	lea    0x5eaa(%rip),%rsi        # 11462 <_IO_stdin_used+0x1062>
    b5b8:	e8 73 93 ff ff       	callq  4930 <fopen@plt>
    b5bd:	48 85 c0             	test   %rax,%rax
    b5c0:	48 89 85 88 dc ff ff 	mov    %rax,-0x2378(%rbp)
    b5c7:	0f 84 f2 04 00 00    	je     babf <_Z14pipe_interfacePP8HunspelliP8_IO_FILEPc+0x30bf>
    b5cd:	48 8b bd c0 dd ff ff 	mov    -0x2240(%rbp),%rdi
    b5d4:	49 83 c4 10          	add    $0x10,%r12
    b5d8:	4c 39 e7             	cmp    %r12,%rdi
    b5db:	74 05                	je     b5e2 <_Z14pipe_interfacePP8HunspelliP8_IO_FILEPc+0x2be2>
    b5dd:	e8 1e 92 ff ff       	callq  4800 <_ZdlPv@plt>
    b5e2:	48 8b 85 70 dc ff ff 	mov    -0x2390(%rbp),%rax
    b5e9:	48 8b bd 70 de ff ff 	mov    -0x2190(%rbp),%rdi
    b5f0:	48 89 85 20 de ff ff 	mov    %rax,-0x21e0(%rbp)
    b5f7:	48 8b 85 68 dc ff ff 	mov    -0x2398(%rbp),%rax
    b5fe:	48 89 85 90 de ff ff 	mov    %rax,-0x2170(%rbp)
    b605:	48 8b 85 80 dc ff ff 	mov    -0x2380(%rbp),%rax
    b60c:	48 89 85 28 de ff ff 	mov    %rax,-0x21d8(%rbp)
    b613:	48 8d 43 60          	lea    0x60(%rbx),%rax
    b617:	48 39 c7             	cmp    %rax,%rdi
    b61a:	74 05                	je     b621 <_Z14pipe_interfacePP8HunspelliP8_IO_FILEPc+0x2c21>
    b61c:	e8 df 91 ff ff       	callq  4800 <_ZdlPv@plt>
    b621:	48 8b 85 78 dc ff ff 	mov    -0x2388(%rbp),%rax
    b628:	48 8d 7b 40          	lea    0x40(%rbx),%rdi
    b62c:	48 89 85 28 de ff ff 	mov    %rax,-0x21d8(%rbp)
    b633:	e8 a8 93 ff ff       	callq  49e0 <_ZNSt6localeD1Ev@plt>
    b638:	49 8b 46 e8          	mov    -0x18(%r14),%rax
    b63c:	48 8b 8d 90 dc ff ff 	mov    -0x2370(%rbp),%rcx
    b643:	48 8d 7b 70          	lea    0x70(%rbx),%rdi
    b647:	4c 89 b5 20 de ff ff 	mov    %r14,-0x21e0(%rbp)
    b64e:	48 89 8c 05 20 de ff 	mov    %rcx,-0x21e0(%rbp,%rax,1)
    b655:	ff 
    b656:	48 8b 85 a0 dc ff ff 	mov    -0x2360(%rbp),%rax
    b65d:	48 89 85 90 de ff ff 	mov    %rax,-0x2170(%rbp)
    b664:	e8 47 90 ff ff       	callq  46b0 <_ZNSt8ios_baseD2Ev@plt>
    b669:	e9 40 d5 ff ff       	jmpq   8bae <_Z14pipe_interfacePP8HunspelliP8_IO_FILEPc+0x1ae>
    b66e:	85 c0                	test   %eax,%eax
    b670:	0f 85 a7 de ff ff    	jne    951d <_Z14pipe_interfacePP8HunspelliP8_IO_FILEPc+0xb1d>
    b676:	48 8b 35 63 9b 20 00 	mov    0x209b63(%rip),%rsi        # 2151e0 <stdout@@GLIBC_2.2.5>
    b67d:	bf 0a 00 00 00       	mov    $0xa,%edi
    b682:	e8 f9 92 ff ff       	callq  4980 <fputc@plt>
    b687:	48 8b 3d 52 9b 20 00 	mov    0x209b52(%rip),%rdi        # 2151e0 <stdout@@GLIBC_2.2.5>
    b68e:	e8 8d 92 ff ff       	callq  4920 <fflush@plt>
    b693:	e9 85 de ff ff       	jmpq   951d <_Z14pipe_interfacePP8HunspelliP8_IO_FILEPc+0xb1d>
    b698:	8b 85 68 dc ff ff    	mov    -0x2398(%rbp),%eax
    b69e:	85 c0                	test   %eax,%eax
    b6a0:	0f 84 77 de ff ff    	je     951d <_Z14pipe_interfacePP8HunspelliP8_IO_FILEPc+0xb1d>
    b6a6:	e9 d5 e2 ff ff       	jmpq   9980 <_Z14pipe_interfacePP8HunspelliP8_IO_FILEPc+0xf80>
    b6ab:	48 8d 73 50          	lea    0x50(%rbx),%rsi
    b6af:	4c 89 ef             	mov    %r13,%rdi
    b6b2:	e8 79 90 ff ff       	callq  4730 <_ZNSt7__cxx1112basic_stringIcSt11char_traitsIcESaIcEE9_M_assignERKS4_@plt>
    b6b7:	e9 65 fe ff ff       	jmpq   b521 <_Z14pipe_interfacePP8HunspelliP8_IO_FILEPc+0x2b21>
    b6bc:	48 89 b5 40 dd ff ff 	mov    %rsi,-0x22c0(%rbp)
    b6c3:	48 89 95 48 dd ff ff 	mov    %rdx,-0x22b8(%rbp)
    b6ca:	48 89 8d 50 dd ff ff 	mov    %rcx,-0x22b0(%rbp)
    b6d1:	49 8d 7c 24 10       	lea    0x10(%r12),%rdi
    b6d6:	48 89 bd c0 dd ff ff 	mov    %rdi,-0x2240(%rbp)
    b6dd:	e9 1b f3 ff ff       	jmpq   a9fd <_Z14pipe_interfacePP8HunspelliP8_IO_FILEPc+0x1ffd>
    b6e2:	48 89 b5 40 dd ff ff 	mov    %rsi,-0x22c0(%rbp)
    b6e9:	48 89 95 48 dd ff ff 	mov    %rdx,-0x22b8(%rbp)
    b6f0:	48 89 8d 50 dd ff ff 	mov    %rcx,-0x22b0(%rbp)
    b6f7:	49 8d 7c 24 10       	lea    0x10(%r12),%rdi
    b6fc:	48 89 bd a0 dd ff ff 	mov    %rdi,-0x2260(%rbp)
    b703:	e9 32 fa ff ff       	jmpq   b13a <_Z14pipe_interfacePP8HunspelliP8_IO_FILEPc+0x273a>
    b708:	49 83 c5 10          	add    $0x10,%r13
    b70c:	4c 39 ef             	cmp    %r13,%rdi
    b70f:	0f 84 b5 e4 ff ff    	je     9bca <_Z14pipe_interfacePP8HunspelliP8_IO_FILEPc+0x11ca>
    b715:	e8 e6 90 ff ff       	callq  4800 <_ZdlPv@plt>
    b71a:	e9 ab e4 ff ff       	jmpq   9bca <_Z14pipe_interfacePP8HunspelliP8_IO_FILEPc+0x11ca>
    b71f:	4c 8d bd e0 dd ff ff 	lea    -0x2220(%rbp),%r15
    b726:	49 8d 47 10          	lea    0x10(%r15),%rax
    b72a:	4c 89 ff             	mov    %r15,%rdi
    b72d:	48 89 85 e0 dd ff ff 	mov    %rax,-0x2220(%rbp)
    b734:	e8 97 aa ff ff       	callq  61d0 <_ZNSt7__cxx1112basic_stringIcSt11char_traitsIcESaIcEE12_M_constructIPKcEEvT_S8_St20forward_iterator_tag.isra.52>
    b739:	48 8b b5 e0 dd ff ff 	mov    -0x2220(%rbp),%rsi
    b740:	49 8d 47 10          	lea    0x10(%r15),%rax
    b744:	48 8b bd c0 dd ff ff 	mov    -0x2240(%rbp),%rdi
    b74b:	48 8b 95 e8 dd ff ff 	mov    -0x2218(%rbp),%rdx
    b752:	48 39 c6             	cmp    %rax,%rsi
    b755:	0f 84 8b 01 00 00    	je     b8e6 <_Z14pipe_interfacePP8HunspelliP8_IO_FILEPc+0x2ee6>
    b75b:	49 8d 44 24 10       	lea    0x10(%r12),%rax
    b760:	48 8b 8d f0 dd ff ff 	mov    -0x2210(%rbp),%rcx
    b767:	48 39 c7             	cmp    %rax,%rdi
    b76a:	0f 84 80 02 00 00    	je     b9f0 <_Z14pipe_interfacePP8HunspelliP8_IO_FILEPc+0x2ff0>
    b770:	48 85 ff             	test   %rdi,%rdi
    b773:	48 8b 85 d0 dd ff ff 	mov    -0x2230(%rbp),%rax
    b77a:	48 89 b5 c0 dd ff ff 	mov    %rsi,-0x2240(%rbp)
    b781:	48 89 95 c8 dd ff ff 	mov    %rdx,-0x2238(%rbp)
    b788:	48 89 8d d0 dd ff ff 	mov    %rcx,-0x2230(%rbp)
    b78f:	0f 84 70 02 00 00    	je     ba05 <_Z14pipe_interfacePP8HunspelliP8_IO_FILEPc+0x3005>
    b795:	48 89 bd e0 dd ff ff 	mov    %rdi,-0x2220(%rbp)
    b79c:	48 89 85 f0 dd ff ff 	mov    %rax,-0x2210(%rbp)
    b7a3:	48 c7 85 e8 dd ff ff 	movq   $0x0,-0x2218(%rbp)
    b7aa:	00 00 00 00 
    b7ae:	c6 07 00             	movb   $0x0,(%rdi)
    b7b1:	49 8d 47 10          	lea    0x10(%r15),%rax
    b7b5:	48 8b bd e0 dd ff ff 	mov    -0x2220(%rbp),%rdi
    b7bc:	48 39 c7             	cmp    %rax,%rdi
    b7bf:	0f 85 73 fb ff ff    	jne    b338 <_Z14pipe_interfacePP8HunspelliP8_IO_FILEPc+0x2938>
    b7c5:	e9 73 fb ff ff       	jmpq   b33d <_Z14pipe_interfacePP8HunspelliP8_IO_FILEPc+0x293d>
    b7ca:	48 8b 85 20 de ff ff 	mov    -0x21e0(%rbp),%rax
    b7d1:	48 8b 78 e8          	mov    -0x18(%rax),%rdi
    b7d5:	48 01 df             	add    %rbx,%rdi
    b7d8:	8b 77 20             	mov    0x20(%rdi),%esi
    b7db:	83 ce 01             	or     $0x1,%esi
    b7de:	e8 0d 93 ff ff       	callq  4af0 <_ZNSt9basic_iosIcSt11char_traitsIcEE5clearESt12_Ios_Iostate@plt>
    b7e3:	e9 66 fa ff ff       	jmpq   b24e <_Z14pipe_interfacePP8HunspelliP8_IO_FILEPc+0x284e>
    b7e8:	48 8d 73 50          	lea    0x50(%rbx),%rsi
    b7ec:	4c 89 e7             	mov    %r12,%rdi
    b7ef:	e8 3c 8f ff ff       	callq  4730 <_ZNSt7__cxx1112basic_stringIcSt11char_traitsIcESaIcEE9_M_assignERKS4_@plt>
    b7f4:	e9 44 fb ff ff       	jmpq   b33d <_Z14pipe_interfacePP8HunspelliP8_IO_FILEPc+0x293d>
    b7f9:	48 8d 73 50          	lea    0x50(%rbx),%rsi
    b7fd:	4c 89 ef             	mov    %r13,%rdi
    b800:	e8 2b 8f ff ff       	callq  4730 <_ZNSt7__cxx1112basic_stringIcSt11char_traitsIcESaIcEE9_M_assignERKS4_@plt>
    b805:	e9 53 f9 ff ff       	jmpq   b15d <_Z14pipe_interfacePP8HunspelliP8_IO_FILEPc+0x275d>
    b80a:	4c 8b a5 c0 dc ff ff 	mov    -0x2340(%rbp),%r12
    b811:	4c 8b bd c8 dc ff ff 	mov    -0x2338(%rbp),%r15
    b818:	4d 39 fc             	cmp    %r15,%r12
    b81b:	74 1d                	je     b83a <_Z14pipe_interfacePP8HunspelliP8_IO_FILEPc+0x2e3a>
    b81d:	4d 89 e6             	mov    %r12,%r14
    b820:	49 8b 3e             	mov    (%r14),%rdi
    b823:	49 8d 46 10          	lea    0x10(%r14),%rax
    b827:	48 39 c7             	cmp    %rax,%rdi
    b82a:	74 05                	je     b831 <_Z14pipe_interfacePP8HunspelliP8_IO_FILEPc+0x2e31>
    b82c:	e8 cf 8f ff ff       	callq  4800 <_ZdlPv@plt>
    b831:	49 83 c6 20          	add    $0x20,%r14
    b835:	4d 39 f7             	cmp    %r14,%r15
    b838:	75 e6                	jne    b820 <_Z14pipe_interfacePP8HunspelliP8_IO_FILEPc+0x2e20>
    b83a:	4c 89 a5 c8 dc ff ff 	mov    %r12,-0x2338(%rbp)
    b841:	e9 28 f4 ff ff       	jmpq   ac6e <_Z14pipe_interfacePP8HunspelliP8_IO_FILEPc+0x226e>
    b846:	49 83 fe 09          	cmp    $0x9,%r14
    b84a:	0f 86 26 07 00 00    	jbe    bf76 <_Z14pipe_interfacePP8HunspelliP8_IO_FILEPc+0x3576>
    b850:	48 8d 35 7a 5a 00 00 	lea    0x5a7a(%rip),%rsi        # 112d1 <_IO_stdin_used+0xed1>
    b857:	ba 0a 00 00 00       	mov    $0xa,%edx
    b85c:	4c 89 ef             	mov    %r13,%rdi
    b85f:	e8 3c 8e ff ff       	callq  46a0 <_ZNSt7__cxx1112basic_stringIcSt11char_traitsIcESaIcEE9_M_appendEPKcm@plt>
    b864:	48 8b 3d 65 9a 20 00 	mov    0x209a65(%rip),%rdi        # 2152d0 <dicname>
    b86b:	be 2f 00 00 00       	mov    $0x2f,%esi
    b870:	e8 6b b7 ff ff       	callq  6fe0 <_Z8basenamePKcc>
    b875:	48 89 c7             	mov    %rax,%rdi
    b878:	49 89 c6             	mov    %rax,%r14
    b87b:	e8 70 8e ff ff       	callq  46f0 <strlen@plt>
    b880:	48 b9 ff ff ff ff ff 	movabs $0x7fffffffffffffff,%rcx
    b887:	ff ff 7f 
    b88a:	48 2b 8d 08 de ff ff 	sub    -0x21f8(%rbp),%rcx
    b891:	48 39 c8             	cmp    %rcx,%rax
    b894:	0f 87 d0 06 00 00    	ja     bf6a <_Z14pipe_interfacePP8HunspelliP8_IO_FILEPc+0x356a>
    b89a:	48 89 c2             	mov    %rax,%rdx
    b89d:	4c 89 f6             	mov    %r14,%rsi
    b8a0:	4c 89 ef             	mov    %r13,%rdi
    b8a3:	e8 f8 8d ff ff       	callq  46a0 <_ZNSt7__cxx1112basic_stringIcSt11char_traitsIcESaIcEE9_M_appendEPKcm@plt>
    b8a8:	e9 59 f3 ff ff       	jmpq   ac06 <_Z14pipe_interfacePP8HunspelliP8_IO_FILEPc+0x2206>
    b8ad:	48 85 d2             	test   %rdx,%rdx
    b8b0:	74 1d                	je     b8cf <_Z14pipe_interfacePP8HunspelliP8_IO_FILEPc+0x2ecf>
    b8b2:	48 83 fa 01          	cmp    $0x1,%rdx
    b8b6:	0f 84 25 03 00 00    	je     bbe1 <_Z14pipe_interfacePP8HunspelliP8_IO_FILEPc+0x31e1>
    b8bc:	e8 cf 8e ff ff       	callq  4790 <memcpy@plt>
    b8c1:	48 8b 95 a8 dd ff ff 	mov    -0x2258(%rbp),%rdx
    b8c8:	48 8b bd 40 dd ff ff 	mov    -0x22c0(%rbp),%rdi
    b8cf:	48 89 95 48 dd ff ff 	mov    %rdx,-0x22b8(%rbp)
    b8d6:	c6 04 17 00          	movb   $0x0,(%rdi,%rdx,1)
    b8da:	48 8b bd a0 dd ff ff 	mov    -0x2260(%rbp),%rdi
    b8e1:	e9 54 f8 ff ff       	jmpq   b13a <_Z14pipe_interfacePP8HunspelliP8_IO_FILEPc+0x273a>
    b8e6:	48 85 d2             	test   %rdx,%rdx
    b8e9:	74 1d                	je     b908 <_Z14pipe_interfacePP8HunspelliP8_IO_FILEPc+0x2f08>
    b8eb:	48 83 fa 01          	cmp    $0x1,%rdx
    b8ef:	0f 84 08 03 00 00    	je     bbfd <_Z14pipe_interfacePP8HunspelliP8_IO_FILEPc+0x31fd>
    b8f5:	e8 96 8e ff ff       	callq  4790 <memcpy@plt>
    b8fa:	48 8b 95 e8 dd ff ff 	mov    -0x2218(%rbp),%rdx
    b901:	48 8b bd c0 dd ff ff 	mov    -0x2240(%rbp),%rdi
    b908:	48 89 95 c8 dd ff ff 	mov    %rdx,-0x2238(%rbp)
    b90f:	c6 04 17 00          	movb   $0x0,(%rdi,%rdx,1)
    b913:	48 8b bd e0 dd ff ff 	mov    -0x2220(%rbp),%rdi
    b91a:	e9 84 fe ff ff       	jmpq   b7a3 <_Z14pipe_interfacePP8HunspelliP8_IO_FILEPc+0x2da3>
    b91f:	48 85 d2             	test   %rdx,%rdx
    b922:	74 1d                	je     b941 <_Z14pipe_interfacePP8HunspelliP8_IO_FILEPc+0x2f41>
    b924:	48 83 fa 01          	cmp    $0x1,%rdx
    b928:	0f 84 07 03 00 00    	je     bc35 <_Z14pipe_interfacePP8HunspelliP8_IO_FILEPc+0x3235>
    b92e:	e8 5d 8e ff ff       	callq  4790 <memcpy@plt>
    b933:	48 8b 95 08 de ff ff 	mov    -0x21f8(%rbp),%rdx
    b93a:	48 8b bd c0 dd ff ff 	mov    -0x2240(%rbp),%rdi
    b941:	48 89 95 c8 dd ff ff 	mov    %rdx,-0x2238(%rbp)
    b948:	c6 04 17 00          	movb   $0x0,(%rdi,%rdx,1)
    b94c:	48 8b bd 00 de ff ff 	mov    -0x2200(%rbp),%rdi
    b953:	e9 c2 f9 ff ff       	jmpq   b31a <_Z14pipe_interfacePP8HunspelliP8_IO_FILEPc+0x291a>
    b958:	48 85 d2             	test   %rdx,%rdx
    b95b:	74 1d                	je     b97a <_Z14pipe_interfacePP8HunspelliP8_IO_FILEPc+0x2f7a>
    b95d:	48 83 fa 01          	cmp    $0x1,%rdx
    b961:	0f 84 b2 02 00 00    	je     bc19 <_Z14pipe_interfacePP8HunspelliP8_IO_FILEPc+0x3219>
    b967:	e8 24 8e ff ff       	callq  4790 <memcpy@plt>
    b96c:	48 8b 95 c8 dd ff ff 	mov    -0x2238(%rbp),%rdx
    b973:	48 8b bd 40 dd ff ff 	mov    -0x22c0(%rbp),%rdi
    b97a:	48 89 95 48 dd ff ff 	mov    %rdx,-0x22b8(%rbp)
    b981:	c6 04 17 00          	movb   $0x0,(%rdi,%rdx,1)
    b985:	48 8b bd c0 dd ff ff 	mov    -0x2240(%rbp),%rdi
    b98c:	e9 6c f0 ff ff       	jmpq   a9fd <_Z14pipe_interfacePP8HunspelliP8_IO_FILEPc+0x1ffd>
    b991:	48 8d 3d 88 4b 00 00 	lea    0x4b88(%rip),%rdi        # 10520 <_IO_stdin_used+0x120>
    b998:	e8 73 8c ff ff       	callq  4610 <gettext@plt>
    b99d:	48 8b 35 5c 98 20 00 	mov    0x20985c(%rip),%rsi        # 215200 <stderr@@GLIBC_2.2.5>
    b9a4:	48 89 c7             	mov    %rax,%rdi
    b9a7:	e8 04 8f ff ff       	callq  48b0 <fputs@plt>
    b9ac:	e9 bd f2 ff ff       	jmpq   ac6e <_Z14pipe_interfacePP8HunspelliP8_IO_FILEPc+0x226e>
    b9b1:	4c 8d a5 c0 dc ff ff 	lea    -0x2340(%rbp),%r12
    b9b8:	48 89 fe             	mov    %rdi,%rsi
    b9bb:	48 89 da             	mov    %rbx,%rdx
    b9be:	4c 89 e7             	mov    %r12,%rdi
    b9c1:	e8 3a 09 00 00       	callq  c300 <_ZNSt6vectorINSt7__cxx1112basic_stringIcSt11char_traitsIcESaIcEEESaIS5_EE17_M_realloc_insertIJRKS5_EEEvN9__gnu_cxx17__normal_iteratorIPS5_S7_EEDpOT_>
    b9c6:	e9 39 f4 ff ff       	jmpq   ae04 <_Z14pipe_interfacePP8HunspelliP8_IO_FILEPc+0x2404>
    b9cb:	48 89 b5 c0 dd ff ff 	mov    %rsi,-0x2240(%rbp)
    b9d2:	48 89 95 c8 dd ff ff 	mov    %rdx,-0x2238(%rbp)
    b9d9:	48 89 8d d0 dd ff ff 	mov    %rcx,-0x2230(%rbp)
    b9e0:	49 8d 7d 10          	lea    0x10(%r13),%rdi
    b9e4:	48 89 bd 00 de ff ff 	mov    %rdi,-0x2200(%rbp)
    b9eb:	e9 2a f9 ff ff       	jmpq   b31a <_Z14pipe_interfacePP8HunspelliP8_IO_FILEPc+0x291a>
    b9f0:	48 89 b5 c0 dd ff ff 	mov    %rsi,-0x2240(%rbp)
    b9f7:	48 89 95 c8 dd ff ff 	mov    %rdx,-0x2238(%rbp)
    b9fe:	48 89 8d d0 dd ff ff 	mov    %rcx,-0x2230(%rbp)
    ba05:	49 8d 7f 10          	lea    0x10(%r15),%rdi
    ba09:	48 89 bd e0 dd ff ff 	mov    %rdi,-0x2220(%rbp)
    ba10:	e9 8e fd ff ff       	jmpq   b7a3 <_Z14pipe_interfacePP8HunspelliP8_IO_FILEPc+0x2da3>
    ba15:	4c 8d bd 60 dd ff ff 	lea    -0x22a0(%rbp),%r15
    ba1c:	49 8d 47 10          	lea    0x10(%r15),%rax
    ba20:	4c 89 ff             	mov    %r15,%rdi
    ba23:	48 89 85 60 dd ff ff 	mov    %rax,-0x22a0(%rbp)
    ba2a:	e8 a1 a7 ff ff       	callq  61d0 <_ZNSt7__cxx1112basic_stringIcSt11char_traitsIcESaIcEE12_M_constructIPKcEEvT_S8_St20forward_iterator_tag.isra.52>
    ba2f:	48 8b b5 60 dd ff ff 	mov    -0x22a0(%rbp),%rsi
    ba36:	49 8d 47 10          	lea    0x10(%r15),%rax
    ba3a:	48 8b bd 00 de ff ff 	mov    -0x2200(%rbp),%rdi
    ba41:	48 8b 95 68 dd ff ff 	mov    -0x2298(%rbp),%rdx
    ba48:	48 39 c6             	cmp    %rax,%rsi
    ba4b:	0f 84 00 02 00 00    	je     bc51 <_Z14pipe_interfacePP8HunspelliP8_IO_FILEPc+0x3251>
    ba51:	49 8d 4d 10          	lea    0x10(%r13),%rcx
    ba55:	48 8b 85 70 dd ff ff 	mov    -0x2290(%rbp),%rax
    ba5c:	48 39 cf             	cmp    %rcx,%rdi
    ba5f:	0f 84 83 02 00 00    	je     bce8 <_Z14pipe_interfacePP8HunspelliP8_IO_FILEPc+0x32e8>
    ba65:	48 85 ff             	test   %rdi,%rdi
    ba68:	48 8b 8d 10 de ff ff 	mov    -0x21f0(%rbp),%rcx
    ba6f:	48 89 b5 00 de ff ff 	mov    %rsi,-0x2200(%rbp)
    ba76:	48 89 95 08 de ff ff 	mov    %rdx,-0x21f8(%rbp)
    ba7d:	48 89 85 10 de ff ff 	mov    %rax,-0x21f0(%rbp)
    ba84:	0f 84 73 02 00 00    	je     bcfd <_Z14pipe_interfacePP8HunspelliP8_IO_FILEPc+0x32fd>
    ba8a:	48 89 bd 60 dd ff ff 	mov    %rdi,-0x22a0(%rbp)
    ba91:	48 89 8d 70 dd ff ff 	mov    %rcx,-0x2290(%rbp)
    ba98:	48 c7 85 68 dd ff ff 	movq   $0x0,-0x2298(%rbp)
    ba9f:	00 00 00 00 
    baa3:	c6 07 00             	movb   $0x0,(%rdi)
    baa6:	49 8d 47 10          	lea    0x10(%r15),%rax
    baaa:	48 8b bd 60 dd ff ff 	mov    -0x22a0(%rbp),%rdi
    bab1:	48 39 c7             	cmp    %rax,%rdi
    bab4:	0f 85 62 fa ff ff    	jne    b51c <_Z14pipe_interfacePP8HunspelliP8_IO_FILEPc+0x2b1c>
    baba:	e9 62 fa ff ff       	jmpq   b521 <_Z14pipe_interfacePP8HunspelliP8_IO_FILEPc+0x2b21>
    babf:	48 8d 3d ad 57 00 00 	lea    0x57ad(%rip),%rdi        # 11273 <_IO_stdin_used+0xe73>
    bac6:	e8 45 8b ff ff       	callq  4610 <gettext@plt>
    bacb:	48 89 c7             	mov    %rax,%rdi
    bace:	e8 cd 8c ff ff       	callq  47a0 <perror@plt>
    bad3:	4c 8d bd e0 dd ff ff 	lea    -0x2220(%rbp),%r15
    bada:	48 8d 15 ad 57 00 00 	lea    0x57ad(%rip),%rdx        # 1128e <_IO_stdin_used+0xe8e>
    bae1:	49 8d 47 10          	lea    0x10(%r15),%rax
    bae5:	48 8d 72 fa          	lea    -0x6(%rdx),%rsi
    bae9:	4c 89 ff             	mov    %r15,%rdi
    baec:	48 89 85 e0 dd ff ff 	mov    %rax,-0x2220(%rbp)
    baf3:	e8 d8 a6 ff ff       	callq  61d0 <_ZNSt7__cxx1112basic_stringIcSt11char_traitsIcESaIcEE12_M_constructIPKcEEvT_S8_St20forward_iterator_tag.isra.52>
    baf8:	48 8b bd 60 dc ff ff 	mov    -0x23a0(%rbp),%rdi
    baff:	e8 ec 8b ff ff       	callq  46f0 <strlen@plt>
    bb04:	48 b9 ff ff ff ff ff 	movabs $0x7fffffffffffffff,%rcx
    bb0b:	ff ff 7f 
    bb0e:	48 2b 8d e8 dd ff ff 	sub    -0x2218(%rbp),%rcx
    bb15:	48 39 c8             	cmp    %rcx,%rax
    bb18:	0f 87 38 04 00 00    	ja     bf56 <_Z14pipe_interfacePP8HunspelliP8_IO_FILEPc+0x3556>
    bb1e:	48 8b b5 60 dc ff ff 	mov    -0x23a0(%rbp),%rsi
    bb25:	48 89 c2             	mov    %rax,%rdx
    bb28:	4c 89 ff             	mov    %r15,%rdi
    bb2b:	e8 70 8b ff ff       	callq  46a0 <_ZNSt7__cxx1112basic_stringIcSt11char_traitsIcESaIcEE9_M_appendEPKcm@plt>
    bb30:	49 8d 55 10          	lea    0x10(%r13),%rdx
    bb34:	48 89 95 00 de ff ff 	mov    %rdx,-0x2200(%rbp)
    bb3b:	48 8b 08             	mov    (%rax),%rcx
    bb3e:	48 8d 50 10          	lea    0x10(%rax),%rdx
    bb42:	48 39 d1             	cmp    %rdx,%rcx
    bb45:	0f 84 c2 01 00 00    	je     bd0d <_Z14pipe_interfacePP8HunspelliP8_IO_FILEPc+0x330d>
    bb4b:	48 89 8d 00 de ff ff 	mov    %rcx,-0x2200(%rbp)
    bb52:	48 8b 48 10          	mov    0x10(%rax),%rcx
    bb56:	48 89 8d 10 de ff ff 	mov    %rcx,-0x21f0(%rbp)
    bb5d:	48 8b 48 08          	mov    0x8(%rax),%rcx
    bb61:	48 89 8d 08 de ff ff 	mov    %rcx,-0x21f8(%rbp)
    bb68:	48 89 10             	mov    %rdx,(%rax)
    bb6b:	48 c7 40 08 00 00 00 	movq   $0x0,0x8(%rax)
    bb72:	00 
    bb73:	c6 40 10 00          	movb   $0x0,0x10(%rax)
    bb77:	48 8b bd 00 de ff ff 	mov    -0x2200(%rbp),%rdi
    bb7e:	e8 2d 8c ff ff       	callq  47b0 <system@plt>
    bb83:	48 8b bd 00 de ff ff 	mov    -0x2200(%rbp),%rdi
    bb8a:	49 83 c5 10          	add    $0x10,%r13
    bb8e:	41 89 c6             	mov    %eax,%r14d
    bb91:	4c 39 ef             	cmp    %r13,%rdi
    bb94:	74 05                	je     bb9b <_Z14pipe_interfacePP8HunspelliP8_IO_FILEPc+0x319b>
    bb96:	e8 65 8c ff ff       	callq  4800 <_ZdlPv@plt>
    bb9b:	48 8b bd e0 dd ff ff 	mov    -0x2220(%rbp),%rdi
    bba2:	49 8d 47 10          	lea    0x10(%r15),%rax
    bba6:	48 39 c7             	cmp    %rax,%rdi
    bba9:	74 05                	je     bbb0 <_Z14pipe_interfacePP8HunspelliP8_IO_FILEPc+0x31b0>
    bbab:	e8 50 8c ff ff       	callq  4800 <_ZdlPv@plt>
    bbb0:	45 85 f6             	test   %r14d,%r14d
    bbb3:	0f 84 41 e1 ff ff    	je     9cfa <_Z14pipe_interfacePP8HunspelliP8_IO_FILEPc+0x12fa>
    bbb9:	48 8d 3d df 56 00 00 	lea    0x56df(%rip),%rdi        # 1129f <_IO_stdin_used+0xe9f>
    bbc0:	e8 db 8b ff ff       	callq  47a0 <perror@plt>
    bbc5:	e9 30 e1 ff ff       	jmpq   9cfa <_Z14pipe_interfacePP8HunspelliP8_IO_FILEPc+0x12fa>
    bbca:	c7 85 50 dc ff ff 00 	movl   $0x0,-0x23b0(%rbp)
    bbd1:	00 00 00 
    bbd4:	e9 c4 e1 ff ff       	jmpq   9d9d <_Z14pipe_interfacePP8HunspelliP8_IO_FILEPc+0x139d>
    bbd9:	45 31 ed             	xor    %r13d,%r13d
    bbdc:	e9 1a e4 ff ff       	jmpq   9ffb <_Z14pipe_interfacePP8HunspelliP8_IO_FILEPc+0x15fb>
    bbe1:	0f b6 85 b0 dd ff ff 	movzbl -0x2250(%rbp),%eax
    bbe8:	88 07                	mov    %al,(%rdi)
    bbea:	48 8b 95 a8 dd ff ff 	mov    -0x2258(%rbp),%rdx
    bbf1:	48 8b bd 40 dd ff ff 	mov    -0x22c0(%rbp),%rdi
    bbf8:	e9 d2 fc ff ff       	jmpq   b8cf <_Z14pipe_interfacePP8HunspelliP8_IO_FILEPc+0x2ecf>
    bbfd:	0f b6 85 f0 dd ff ff 	movzbl -0x2210(%rbp),%eax
    bc04:	88 07                	mov    %al,(%rdi)
    bc06:	48 8b 95 e8 dd ff ff 	mov    -0x2218(%rbp),%rdx
    bc0d:	48 8b bd c0 dd ff ff 	mov    -0x2240(%rbp),%rdi
    bc14:	e9 ef fc ff ff       	jmpq   b908 <_Z14pipe_interfacePP8HunspelliP8_IO_FILEPc+0x2f08>
    bc19:	0f b6 85 d0 dd ff ff 	movzbl -0x2230(%rbp),%eax
    bc20:	88 07                	mov    %al,(%rdi)
    bc22:	48 8b 95 c8 dd ff ff 	mov    -0x2238(%rbp),%rdx
    bc29:	48 8b bd 40 dd ff ff 	mov    -0x22c0(%rbp),%rdi
    bc30:	e9 45 fd ff ff       	jmpq   b97a <_Z14pipe_interfacePP8HunspelliP8_IO_FILEPc+0x2f7a>
    bc35:	0f b6 85 10 de ff ff 	movzbl -0x21f0(%rbp),%eax
    bc3c:	88 07                	mov    %al,(%rdi)
    bc3e:	48 8b 95 08 de ff ff 	mov    -0x21f8(%rbp),%rdx
    bc45:	48 8b bd c0 dd ff ff 	mov    -0x2240(%rbp),%rdi
    bc4c:	e9 f0 fc ff ff       	jmpq   b941 <_Z14pipe_interfacePP8HunspelliP8_IO_FILEPc+0x2f41>
    bc51:	48 85 d2             	test   %rdx,%rdx
    bc54:	74 1d                	je     bc73 <_Z14pipe_interfacePP8HunspelliP8_IO_FILEPc+0x3273>
    bc56:	48 83 fa 01          	cmp    $0x1,%rdx
    bc5a:	0f 84 da 00 00 00    	je     bd3a <_Z14pipe_interfacePP8HunspelliP8_IO_FILEPc+0x333a>
    bc60:	e8 2b 8b ff ff       	callq  4790 <memcpy@plt>
    bc65:	48 8b 95 68 dd ff ff 	mov    -0x2298(%rbp),%rdx
    bc6c:	48 8b bd 00 de ff ff 	mov    -0x2200(%rbp),%rdi
    bc73:	48 89 95 08 de ff ff 	mov    %rdx,-0x21f8(%rbp)
    bc7a:	c6 04 17 00          	movb   $0x0,(%rdi,%rdx,1)
    bc7e:	48 8b bd 60 dd ff ff 	mov    -0x22a0(%rbp),%rdi
    bc85:	e9 0e fe ff ff       	jmpq   ba98 <_Z14pipe_interfacePP8HunspelliP8_IO_FILEPc+0x3098>
    bc8a:	48 85 d2             	test   %rdx,%rdx
    bc8d:	74 1d                	je     bcac <_Z14pipe_interfacePP8HunspelliP8_IO_FILEPc+0x32ac>
    bc8f:	48 83 fa 01          	cmp    $0x1,%rdx
    bc93:	0f 84 85 00 00 00    	je     bd1e <_Z14pipe_interfacePP8HunspelliP8_IO_FILEPc+0x331e>
    bc99:	e8 f2 8a ff ff       	callq  4790 <memcpy@plt>
    bc9e:	48 8b 95 88 dd ff ff 	mov    -0x2278(%rbp),%rdx
    bca5:	48 8b bd 00 de ff ff 	mov    -0x2200(%rbp),%rdi
    bcac:	48 89 95 08 de ff ff 	mov    %rdx,-0x21f8(%rbp)
    bcb3:	c6 04 17 00          	movb   $0x0,(%rdi,%rdx,1)
    bcb7:	48 8b bd 80 dd ff ff 	mov    -0x2280(%rbp),%rdi
    bcbe:	e9 3b f8 ff ff       	jmpq   b4fe <_Z14pipe_interfacePP8HunspelliP8_IO_FILEPc+0x2afe>
    bcc3:	48 89 b5 00 de ff ff 	mov    %rsi,-0x2200(%rbp)
    bcca:	48 89 95 08 de ff ff 	mov    %rdx,-0x21f8(%rbp)
    bcd1:	48 89 85 10 de ff ff 	mov    %rax,-0x21f0(%rbp)
    bcd8:	49 8d 7f 10          	lea    0x10(%r15),%rdi
    bcdc:	48 89 bd 80 dd ff ff 	mov    %rdi,-0x2280(%rbp)
    bce3:	e9 16 f8 ff ff       	jmpq   b4fe <_Z14pipe_interfacePP8HunspelliP8_IO_FILEPc+0x2afe>
    bce8:	48 89 b5 00 de ff ff 	mov    %rsi,-0x2200(%rbp)
    bcef:	48 89 95 08 de ff ff 	mov    %rdx,-0x21f8(%rbp)
    bcf6:	48 89 85 10 de ff ff 	mov    %rax,-0x21f0(%rbp)
    bcfd:	49 8d 7f 10          	lea    0x10(%r15),%rdi
    bd01:	48 89 bd 60 dd ff ff 	mov    %rdi,-0x22a0(%rbp)
    bd08:	e9 8b fd ff ff       	jmpq   ba98 <_Z14pipe_interfacePP8HunspelliP8_IO_FILEPc+0x3098>
    bd0d:	f3 0f 6f 40 10       	movdqu 0x10(%rax),%xmm0
    bd12:	0f 29 85 10 de ff ff 	movaps %xmm0,-0x21f0(%rbp)
    bd19:	e9 3f fe ff ff       	jmpq   bb5d <_Z14pipe_interfacePP8HunspelliP8_IO_FILEPc+0x315d>
    bd1e:	0f b6 85 90 dd ff ff 	movzbl -0x2270(%rbp),%eax
    bd25:	88 07                	mov    %al,(%rdi)
    bd27:	48 8b 95 88 dd ff ff 	mov    -0x2278(%rbp),%rdx
    bd2e:	48 8b bd 00 de ff ff 	mov    -0x2200(%rbp),%rdi
    bd35:	e9 72 ff ff ff       	jmpq   bcac <_Z14pipe_interfacePP8HunspelliP8_IO_FILEPc+0x32ac>
    bd3a:	0f b6 85 70 dd ff ff 	movzbl -0x2290(%rbp),%eax
    bd41:	88 07                	mov    %al,(%rdi)
    bd43:	48 8b 95 68 dd ff ff 	mov    -0x2298(%rbp),%rdx
    bd4a:	48 8b bd 00 de ff ff 	mov    -0x2200(%rbp),%rdi
    bd51:	e9 1d ff ff ff       	jmpq   bc73 <_Z14pipe_interfacePP8HunspelliP8_IO_FILEPc+0x3273>
    bd56:	48 8b bd 20 de ff ff 	mov    -0x21e0(%rbp),%rdi
    bd5d:	48 83 c3 10          	add    $0x10,%rbx
    bd61:	49 89 c6             	mov    %rax,%r14
    bd64:	48 39 df             	cmp    %rbx,%rdi
    bd67:	74 05                	je     bd6e <_Z14pipe_interfacePP8HunspelliP8_IO_FILEPc+0x336e>
    bd69:	e8 92 8a ff ff       	callq  4800 <_ZdlPv@plt>
    bd6e:	4c 89 f3             	mov    %r14,%rbx
    bd71:	48 8b bd 70 dc ff ff 	mov    -0x2390(%rbp),%rdi
    bd78:	e8 93 04 00 00       	callq  c210 <_ZNSt6vectorINSt7__cxx1112basic_stringIcSt11char_traitsIcESaIcEEESaIS5_EED1Ev>
    bd7d:	48 8b bd e0 dd ff ff 	mov    -0x2220(%rbp),%rdi
    bd84:	49 8d 57 10          	lea    0x10(%r15),%rdx
    bd88:	48 39 d7             	cmp    %rdx,%rdi
    bd8b:	74 05                	je     bd92 <_Z14pipe_interfacePP8HunspelliP8_IO_FILEPc+0x3392>
    bd8d:	e8 6e 8a ff ff       	callq  4800 <_ZdlPv@plt>
    bd92:	4c 8d a5 c0 dc ff ff 	lea    -0x2340(%rbp),%r12
    bd99:	48 8b 95 40 dc ff ff 	mov    -0x23c0(%rbp),%rdx
    bda0:	48 8b bd 20 dd ff ff 	mov    -0x22e0(%rbp),%rdi
    bda7:	48 83 c2 10          	add    $0x10,%rdx
    bdab:	48 39 d7             	cmp    %rdx,%rdi
    bdae:	74 05                	je     bdb5 <_Z14pipe_interfacePP8HunspelliP8_IO_FILEPc+0x33b5>
    bdb0:	e8 4b 8a ff ff       	callq  4800 <_ZdlPv@plt>
    bdb5:	4c 89 e7             	mov    %r12,%rdi
    bdb8:	e8 53 04 00 00       	callq  c210 <_ZNSt6vectorINSt7__cxx1112basic_stringIcSt11char_traitsIcESaIcEEESaIS5_EED1Ev>
    bdbd:	48 89 df             	mov    %rbx,%rdi
    bdc0:	e8 4b 8d ff ff       	callq  4b10 <_Unwind_Resume@plt>
    bdc5:	eb 8f                	jmp    bd56 <_Z14pipe_interfacePP8HunspelliP8_IO_FILEPc+0x3356>
    bdc7:	49 89 c6             	mov    %rax,%r14
    bdca:	48 8b bd c0 dd ff ff 	mov    -0x2240(%rbp),%rdi
    bdd1:	49 83 c4 10          	add    $0x10,%r12
    bdd5:	4c 39 e7             	cmp    %r12,%rdi
    bdd8:	74 05                	je     bddf <_Z14pipe_interfacePP8HunspelliP8_IO_FILEPc+0x33df>
    bdda:	e8 21 8a ff ff       	callq  4800 <_ZdlPv@plt>
    bddf:	48 89 df             	mov    %rbx,%rdi
    bde2:	e8 69 88 ff ff       	callq  4650 <_ZNSt7__cxx1119basic_ostringstreamIcSt11char_traitsIcESaIcEED1Ev@plt>
    bde7:	4c 89 f3             	mov    %r14,%rbx
    bdea:	4c 8d a5 c0 dc ff ff 	lea    -0x2340(%rbp),%r12
    bdf1:	eb a6                	jmp    bd99 <_Z14pipe_interfacePP8HunspelliP8_IO_FILEPc+0x3399>
    bdf3:	48 8d 3d f2 53 00 00 	lea    0x53f2(%rip),%rdi        # 111ec <_IO_stdin_used+0xdec>
    bdfa:	e8 21 89 ff ff       	callq  4720 <_ZSt20__throw_length_errorPKc@plt>
    bdff:	48 8b bd 00 de ff ff 	mov    -0x2200(%rbp),%rdi
    be06:	49 83 c5 10          	add    $0x10,%r13
    be0a:	49 89 c6             	mov    %rax,%r14
    be0d:	4c 39 ef             	cmp    %r13,%rdi
    be10:	74 05                	je     be17 <_Z14pipe_interfacePP8HunspelliP8_IO_FILEPc+0x3417>
    be12:	e8 e9 89 ff ff       	callq  4800 <_ZdlPv@plt>
    be17:	48 8b bd e0 dd ff ff 	mov    -0x2220(%rbp),%rdi
    be1e:	49 8d 47 10          	lea    0x10(%r15),%rax
    be22:	48 39 c7             	cmp    %rax,%rdi
    be25:	74 a3                	je     bdca <_Z14pipe_interfacePP8HunspelliP8_IO_FILEPc+0x33ca>
    be27:	e8 d4 89 ff ff       	callq  4800 <_ZdlPv@plt>
    be2c:	eb 9c                	jmp    bdca <_Z14pipe_interfacePP8HunspelliP8_IO_FILEPc+0x33ca>
    be2e:	48 8b bd 20 de ff ff 	mov    -0x21e0(%rbp),%rdi
    be35:	48 83 c3 10          	add    $0x10,%rbx
    be39:	49 89 c6             	mov    %rax,%r14
    be3c:	48 39 df             	cmp    %rbx,%rdi
    be3f:	74 05                	je     be46 <_Z14pipe_interfacePP8HunspelliP8_IO_FILEPc+0x3446>
    be41:	e8 ba 89 ff ff       	callq  4800 <_ZdlPv@plt>
    be46:	4c 89 f3             	mov    %r14,%rbx
    be49:	48 8b bd 70 dc ff ff 	mov    -0x2390(%rbp),%rdi
    be50:	e8 bb 03 00 00       	callq  c210 <_ZNSt6vectorINSt7__cxx1112basic_stringIcSt11char_traitsIcESaIcEEESaIS5_EED1Ev>
    be55:	48 8b bd 00 de ff ff 	mov    -0x2200(%rbp),%rdi
    be5c:	49 83 c4 10          	add    $0x10,%r12
    be60:	4c 39 e7             	cmp    %r12,%rdi
    be63:	0f 84 14 ff ff ff    	je     bd7d <_Z14pipe_interfacePP8HunspelliP8_IO_FILEPc+0x337d>
    be69:	e8 92 89 ff ff       	callq  4800 <_ZdlPv@plt>
    be6e:	e9 0a ff ff ff       	jmpq   bd7d <_Z14pipe_interfacePP8HunspelliP8_IO_FILEPc+0x337d>
    be73:	48 8d 3d 72 53 00 00 	lea    0x5372(%rip),%rdi        # 111ec <_IO_stdin_used+0xdec>
    be7a:	e8 a1 88 ff ff       	callq  4720 <_ZSt20__throw_length_errorPKc@plt>
    be7f:	48 8b bd 20 de ff ff 	mov    -0x21e0(%rbp),%rdi
    be86:	48 83 c3 10          	add    $0x10,%rbx
    be8a:	49 89 c6             	mov    %rax,%r14
    be8d:	48 39 df             	cmp    %rbx,%rdi
    be90:	74 05                	je     be97 <_Z14pipe_interfacePP8HunspelliP8_IO_FILEPc+0x3497>
    be92:	e8 69 89 ff ff       	callq  4800 <_ZdlPv@plt>
    be97:	4c 89 f3             	mov    %r14,%rbx
    be9a:	e9 fa fe ff ff       	jmpq   bd99 <_Z14pipe_interfacePP8HunspelliP8_IO_FILEPc+0x3399>
    be9f:	48 8b bd 20 de ff ff 	mov    -0x21e0(%rbp),%rdi
    bea6:	48 83 c3 10          	add    $0x10,%rbx
    beaa:	49 89 c6             	mov    %rax,%r14
    bead:	48 39 df             	cmp    %rbx,%rdi
    beb0:	0f 84 31 ff ff ff    	je     bde7 <_Z14pipe_interfacePP8HunspelliP8_IO_FILEPc+0x33e7>
    beb6:	e8 45 89 ff ff       	callq  4800 <_ZdlPv@plt>
    bebb:	e9 27 ff ff ff       	jmpq   bde7 <_Z14pipe_interfacePP8HunspelliP8_IO_FILEPc+0x33e7>
    bec0:	48 8d 3d 25 53 00 00 	lea    0x5325(%rip),%rdi        # 111ec <_IO_stdin_used+0xdec>
    bec7:	e8 54 88 ff ff       	callq  4720 <_ZSt20__throw_length_errorPKc@plt>
    becc:	48 8b bd 20 de ff ff 	mov    -0x21e0(%rbp),%rdi
    bed3:	48 83 c3 10          	add    $0x10,%rbx
    bed7:	49 89 c6             	mov    %rax,%r14
    beda:	48 39 df             	cmp    %rbx,%rdi
    bedd:	74 05                	je     bee4 <_Z14pipe_interfacePP8HunspelliP8_IO_FILEPc+0x34e4>
    bedf:	e8 1c 89 ff ff       	callq  4800 <_ZdlPv@plt>
    bee4:	4c 89 f3             	mov    %r14,%rbx
    bee7:	48 8b bd 00 de ff ff 	mov    -0x2200(%rbp),%rdi
    beee:	49 83 c5 10          	add    $0x10,%r13
    bef2:	4c 39 ef             	cmp    %r13,%rdi
    bef5:	0f 84 9e fe ff ff    	je     bd99 <_Z14pipe_interfacePP8HunspelliP8_IO_FILEPc+0x3399>
    befb:	e8 00 89 ff ff       	callq  4800 <_ZdlPv@plt>
    bf00:	e9 94 fe ff ff       	jmpq   bd99 <_Z14pipe_interfacePP8HunspelliP8_IO_FILEPc+0x3399>
    bf05:	48 8d 35 ba 52 00 00 	lea    0x52ba(%rip),%rsi        # 111c6 <_IO_stdin_used+0xdc6>
    bf0c:	48 8d 3d 25 45 00 00 	lea    0x4525(%rip),%rdi        # 10438 <_IO_stdin_used+0x38>
    bf13:	4c 89 e2             	mov    %r12,%rdx
    bf16:	31 c0                	xor    %eax,%eax
    bf18:	e8 23 8b ff ff       	callq  4a40 <_ZSt24__throw_out_of_range_fmtPKcz@plt>
    bf1d:	e9 a5 fe ff ff       	jmpq   bdc7 <_Z14pipe_interfacePP8HunspelliP8_IO_FILEPc+0x33c7>
    bf22:	48 8b bd 00 de ff ff 	mov    -0x2200(%rbp),%rdi
    bf29:	49 83 c5 10          	add    $0x10,%r13
    bf2d:	49 89 c6             	mov    %rax,%r14
    bf30:	4c 39 ef             	cmp    %r13,%rdi
    bf33:	0f 85 a1 fe ff ff    	jne    bdda <_Z14pipe_interfacePP8HunspelliP8_IO_FILEPc+0x33da>
    bf39:	e9 a1 fe ff ff       	jmpq   bddf <_Z14pipe_interfacePP8HunspelliP8_IO_FILEPc+0x33df>
    bf3e:	48 8d 3d a7 52 00 00 	lea    0x52a7(%rip),%rdi        # 111ec <_IO_stdin_used+0xdec>
    bf45:	e8 d6 87 ff ff       	callq  4720 <_ZSt20__throw_length_errorPKc@plt>
    bf4a:	48 89 c3             	mov    %rax,%rbx
    bf4d:	4c 8d a5 c0 dc ff ff 	lea    -0x2340(%rbp),%r12
    bf54:	eb 91                	jmp    bee7 <_Z14pipe_interfacePP8HunspelliP8_IO_FILEPc+0x34e7>
    bf56:	48 8d 3d 8f 52 00 00 	lea    0x528f(%rip),%rdi        # 111ec <_IO_stdin_used+0xdec>
    bf5d:	e8 be 87 ff ff       	callq  4720 <_ZSt20__throw_length_errorPKc@plt>
    bf62:	49 89 c6             	mov    %rax,%r14
    bf65:	e9 ad fe ff ff       	jmpq   be17 <_Z14pipe_interfacePP8HunspelliP8_IO_FILEPc+0x3417>
    bf6a:	48 8d 3d 7b 52 00 00 	lea    0x527b(%rip),%rdi        # 111ec <_IO_stdin_used+0xdec>
    bf71:	e8 aa 87 ff ff       	callq  4720 <_ZSt20__throw_length_errorPKc@plt>
    bf76:	48 8d 3d 6f 52 00 00 	lea    0x526f(%rip),%rdi        # 111ec <_IO_stdin_used+0xdec>
    bf7d:	e8 9e 87 ff ff       	callq  4720 <_ZSt20__throw_length_errorPKc@plt>
    bf82:	48 8d 3d 63 52 00 00 	lea    0x5263(%rip),%rdi        # 111ec <_IO_stdin_used+0xdec>
    bf89:	e8 92 87 ff ff       	callq  4720 <_ZSt20__throw_length_errorPKc@plt>
    bf8e:	e9 c3 fd ff ff       	jmpq   bd56 <_Z14pipe_interfacePP8HunspelliP8_IO_FILEPc+0x3356>
    bf93:	48 8b bd 00 de ff ff 	mov    -0x2200(%rbp),%rdi
    bf9a:	49 83 c5 10          	add    $0x10,%r13
    bf9e:	49 89 c6             	mov    %rax,%r14
    bfa1:	4c 39 ef             	cmp    %r13,%rdi
    bfa4:	74 05                	je     bfab <_Z14pipe_interfacePP8HunspelliP8_IO_FILEPc+0x35ab>
    bfa6:	e8 55 88 ff ff       	callq  4800 <_ZdlPv@plt>
    bfab:	48 8b bd e0 dd ff ff 	mov    -0x2220(%rbp),%rdi
    bfb2:	49 8d 47 10          	lea    0x10(%r15),%rax
    bfb6:	48 39 c7             	cmp    %rax,%rdi
    bfb9:	0f 85 1b fe ff ff    	jne    bdda <_Z14pipe_interfacePP8HunspelliP8_IO_FILEPc+0x33da>
    bfbf:	e9 1b fe ff ff       	jmpq   bddf <_Z14pipe_interfacePP8HunspelliP8_IO_FILEPc+0x33df>
    bfc4:	49 89 c6             	mov    %rax,%r14
    bfc7:	eb e2                	jmp    bfab <_Z14pipe_interfacePP8HunspelliP8_IO_FILEPc+0x35ab>
    bfc9:	e9 54 ff ff ff       	jmpq   bf22 <_Z14pipe_interfacePP8HunspelliP8_IO_FILEPc+0x3522>
    bfce:	48 8b bd 40 dd ff ff 	mov    -0x22c0(%rbp),%rdi
    bfd5:	49 83 c5 10          	add    $0x10,%r13
    bfd9:	49 89 c6             	mov    %rax,%r14
    bfdc:	4c 39 ef             	cmp    %r13,%rdi
    bfdf:	0f 85 f5 fd ff ff    	jne    bdda <_Z14pipe_interfacePP8HunspelliP8_IO_FILEPc+0x33da>
    bfe5:	e9 f5 fd ff ff       	jmpq   bddf <_Z14pipe_interfacePP8HunspelliP8_IO_FILEPc+0x33df>
    bfea:	49 89 c6             	mov    %rax,%r14
    bfed:	48 8b bd 20 de ff ff 	mov    -0x21e0(%rbp),%rdi
    bff4:	48 83 c3 10          	add    $0x10,%rbx
    bff8:	48 39 df             	cmp    %rbx,%rdi
    bffb:	74 05                	je     c002 <_Z14pipe_interfacePP8HunspelliP8_IO_FILEPc+0x3602>
    bffd:	e8 fe 87 ff ff       	callq  4800 <_ZdlPv@plt>
    c002:	4c 89 f3             	mov    %r14,%rbx
    c005:	e9 73 fd ff ff       	jmpq   bd7d <_Z14pipe_interfacePP8HunspelliP8_IO_FILEPc+0x337d>
    c00a:	e9 b8 fd ff ff       	jmpq   bdc7 <_Z14pipe_interfacePP8HunspelliP8_IO_FILEPc+0x33c7>
    c00f:	e9 0e ff ff ff       	jmpq   bf22 <_Z14pipe_interfacePP8HunspelliP8_IO_FILEPc+0x3522>
    c014:	49 89 c6             	mov    %rax,%r14
    c017:	e9 c3 fd ff ff       	jmpq   bddf <_Z14pipe_interfacePP8HunspelliP8_IO_FILEPc+0x33df>
    c01c:	48 89 c3             	mov    %rax,%rbx
    c01f:	e9 4d fd ff ff       	jmpq   bd71 <_Z14pipe_interfacePP8HunspelliP8_IO_FILEPc+0x3371>
    c024:	eb c4                	jmp    bfea <_Z14pipe_interfacePP8HunspelliP8_IO_FILEPc+0x35ea>
    c026:	48 8b bd 20 de ff ff 	mov    -0x21e0(%rbp),%rdi
    c02d:	48 83 c3 10          	add    $0x10,%rbx
    c031:	49 89 c6             	mov    %rax,%r14
    c034:	48 39 df             	cmp    %rbx,%rdi
    c037:	74 05                	je     c03e <_Z14pipe_interfacePP8HunspelliP8_IO_FILEPc+0x363e>
    c039:	e8 c2 87 ff ff       	callq  4800 <_ZdlPv@plt>
    c03e:	4c 89 f3             	mov    %r14,%rbx
    c041:	4c 89 ef             	mov    %r13,%rdi
    c044:	e8 c7 01 00 00       	callq  c210 <_ZNSt6vectorINSt7__cxx1112basic_stringIcSt11char_traitsIcESaIcEEESaIS5_EED1Ev>
    c049:	e9 2f fd ff ff       	jmpq   bd7d <_Z14pipe_interfacePP8HunspelliP8_IO_FILEPc+0x337d>
    c04e:	e8 3d 88 ff ff       	callq  4890 <__stack_chk_fail@plt>
    c053:	eb 95                	jmp    bfea <_Z14pipe_interfacePP8HunspelliP8_IO_FILEPc+0x35ea>
    c055:	48 8b bd 00 de ff ff 	mov    -0x2200(%rbp),%rdi
    c05c:	49 83 c4 10          	add    $0x10,%r12
    c060:	49 89 c6             	mov    %rax,%r14
    c063:	4c 39 e7             	cmp    %r12,%rdi
    c066:	74 85                	je     bfed <_Z14pipe_interfacePP8HunspelliP8_IO_FILEPc+0x35ed>
    c068:	e8 93 87 ff ff       	callq  4800 <_ZdlPv@plt>
    c06d:	e9 7b ff ff ff       	jmpq   bfed <_Z14pipe_interfacePP8HunspelliP8_IO_FILEPc+0x35ed>
    c072:	e9 73 ff ff ff       	jmpq   bfea <_Z14pipe_interfacePP8HunspelliP8_IO_FILEPc+0x35ea>
    c077:	e9 da fc ff ff       	jmpq   bd56 <_Z14pipe_interfacePP8HunspelliP8_IO_FILEPc+0x3356>
    c07c:	e9 69 ff ff ff       	jmpq   bfea <_Z14pipe_interfacePP8HunspelliP8_IO_FILEPc+0x35ea>
    c081:	45 84 f6             	test   %r14b,%r14b
    c084:	48 89 c3             	mov    %rax,%rbx
    c087:	74 18                	je     c0a1 <_Z14pipe_interfacePP8HunspelliP8_IO_FILEPc+0x36a1>
    c089:	48 8b bd 20 de ff ff 	mov    -0x21e0(%rbp),%rdi
    c090:	48 8d 85 30 de ff ff 	lea    -0x21d0(%rbp),%rax
    c097:	48 39 c7             	cmp    %rax,%rdi
    c09a:	74 05                	je     c0a1 <_Z14pipe_interfacePP8HunspelliP8_IO_FILEPc+0x36a1>
    c09c:	e8 5f 87 ff ff       	callq  4800 <_ZdlPv@plt>
    c0a1:	4c 8d a5 c0 dc ff ff 	lea    -0x2340(%rbp),%r12
    c0a8:	e9 08 fd ff ff       	jmpq   bdb5 <_Z14pipe_interfacePP8HunspelliP8_IO_FILEPc+0x33b5>
    c0ad:	48 89 c3             	mov    %rax,%rbx
    c0b0:	eb ef                	jmp    c0a1 <_Z14pipe_interfacePP8HunspelliP8_IO_FILEPc+0x36a1>
    c0b2:	e9 9f fc ff ff       	jmpq   bd56 <_Z14pipe_interfacePP8HunspelliP8_IO_FILEPc+0x3356>
    c0b7:	48 89 c3             	mov    %rax,%rbx
    c0ba:	e9 be fc ff ff       	jmpq   bd7d <_Z14pipe_interfacePP8HunspelliP8_IO_FILEPc+0x337d>
    c0bf:	e9 26 ff ff ff       	jmpq   bfea <_Z14pipe_interfacePP8HunspelliP8_IO_FILEPc+0x35ea>
    c0c4:	e9 5d ff ff ff       	jmpq   c026 <_Z14pipe_interfacePP8HunspelliP8_IO_FILEPc+0x3626>
    c0c9:	e9 46 ff ff ff       	jmpq   c014 <_Z14pipe_interfacePP8HunspelliP8_IO_FILEPc+0x3614>
    c0ce:	e9 17 ff ff ff       	jmpq   bfea <_Z14pipe_interfacePP8HunspelliP8_IO_FILEPc+0x35ea>
    c0d3:	48 8b bd 20 de ff ff 	mov    -0x21e0(%rbp),%rdi
    c0da:	48 83 c3 10          	add    $0x10,%rbx
    c0de:	49 89 c6             	mov    %rax,%r14
    c0e1:	48 39 df             	cmp    %rbx,%rdi
    c0e4:	74 05                	je     c0eb <_Z14pipe_interfacePP8HunspelliP8_IO_FILEPc+0x36eb>
    c0e6:	e8 15 87 ff ff       	callq  4800 <_ZdlPv@plt>
    c0eb:	4c 89 f3             	mov    %r14,%rbx
    c0ee:	e9 62 fd ff ff       	jmpq   be55 <_Z14pipe_interfacePP8HunspelliP8_IO_FILEPc+0x3455>
    c0f3:	48 89 c3             	mov    %rax,%rbx
    c0f6:	e9 5a fd ff ff       	jmpq   be55 <_Z14pipe_interfacePP8HunspelliP8_IO_FILEPc+0x3455>
    c0fb:	48 89 c3             	mov    %rax,%rbx
    c0fe:	e9 3e ff ff ff       	jmpq   c041 <_Z14pipe_interfacePP8HunspelliP8_IO_FILEPc+0x3641>
    c103:	eb ce                	jmp    c0d3 <_Z14pipe_interfacePP8HunspelliP8_IO_FILEPc+0x36d3>
    c105:	eb ec                	jmp    c0f3 <_Z14pipe_interfacePP8HunspelliP8_IO_FILEPc+0x36f3>
    c107:	e9 22 fd ff ff       	jmpq   be2e <_Z14pipe_interfacePP8HunspelliP8_IO_FILEPc+0x342e>
    c10c:	e9 1d fd ff ff       	jmpq   be2e <_Z14pipe_interfacePP8HunspelliP8_IO_FILEPc+0x342e>
    c111:	e9 06 ff ff ff       	jmpq   c01c <_Z14pipe_interfacePP8HunspelliP8_IO_FILEPc+0x361c>
    c116:	e9 3b fc ff ff       	jmpq   bd56 <_Z14pipe_interfacePP8HunspelliP8_IO_FILEPc+0x3356>
    c11b:	e9 fc fe ff ff       	jmpq   c01c <_Z14pipe_interfacePP8HunspelliP8_IO_FILEPc+0x361c>
    c120:	48 89 c3             	mov    %rax,%rbx
    c123:	4c 8d a5 c0 dc ff ff 	lea    -0x2340(%rbp),%r12
    c12a:	e9 6a fc ff ff       	jmpq   bd99 <_Z14pipe_interfacePP8HunspelliP8_IO_FILEPc+0x3399>
    c12f:	eb c2                	jmp    c0f3 <_Z14pipe_interfacePP8HunspelliP8_IO_FILEPc+0x36f3>
    c131:	eb a0                	jmp    c0d3 <_Z14pipe_interfacePP8HunspelliP8_IO_FILEPc+0x36d3>
    c133:	e9 f6 fc ff ff       	jmpq   be2e <_Z14pipe_interfacePP8HunspelliP8_IO_FILEPc+0x342e>
    c138:	e9 19 fc ff ff       	jmpq   bd56 <_Z14pipe_interfacePP8HunspelliP8_IO_FILEPc+0x3356>
    c13d:	49 89 c6             	mov    %rax,%r14
    c140:	48 8b 85 a0 dc ff ff 	mov    -0x2360(%rbp),%rax
    c147:	48 8d 7b 70          	lea    0x70(%rbx),%rdi
    c14b:	4c 8d a5 c0 dc ff ff 	lea    -0x2340(%rbp),%r12
    c152:	4c 89 f3             	mov    %r14,%rbx
    c155:	48 89 85 90 de ff ff 	mov    %rax,-0x2170(%rbp)
    c15c:	e8 4f 85 ff ff       	callq  46b0 <_ZNSt8ios_baseD2Ev@plt>
    c161:	e9 33 fc ff ff       	jmpq   bd99 <_Z14pipe_interfacePP8HunspelliP8_IO_FILEPc+0x3399>
    c166:	48 8d 7b 08          	lea    0x8(%rbx),%rdi
    c16a:	49 89 c7             	mov    %rax,%r15
    c16d:	e8 fe 00 00 00       	callq  c270 <_ZNSt7__cxx1115basic_stringbufIcSt11char_traitsIcESaIcEED1Ev>
    c172:	49 8b 46 e8          	mov    -0x18(%r14),%rax
    c176:	48 8b 8d 90 dc ff ff 	mov    -0x2370(%rbp),%rcx
    c17d:	4c 89 b5 20 de ff ff 	mov    %r14,-0x21e0(%rbp)
    c184:	4d 89 fe             	mov    %r15,%r14
    c187:	48 89 8c 05 20 de ff 	mov    %rcx,-0x21e0(%rbp,%rax,1)
    c18e:	ff 
    c18f:	eb af                	jmp    c140 <_Z14pipe_interfacePP8HunspelliP8_IO_FILEPc+0x3740>
    c191:	e9 3d ff ff ff       	jmpq   c0d3 <_Z14pipe_interfacePP8HunspelliP8_IO_FILEPc+0x36d3>
    c196:	48 8d 3d a9 50 00 00 	lea    0x50a9(%rip),%rdi        # 11246 <_IO_stdin_used+0xe46>
    c19d:	e8 6e 84 ff ff       	callq  4610 <gettext@plt>
    c1a2:	48 89 c7             	mov    %rax,%rdi
    c1a5:	e8 f6 85 ff ff       	callq  47a0 <perror@plt>
    c1aa:	e9 4b db ff ff       	jmpq   9cfa <_Z14pipe_interfacePP8HunspelliP8_IO_FILEPc+0x12fa>
    c1af:	e9 72 fe ff ff       	jmpq   c026 <_Z14pipe_interfacePP8HunspelliP8_IO_FILEPc+0x3626>
    c1b4:	e9 9d fb ff ff       	jmpq   bd56 <_Z14pipe_interfacePP8HunspelliP8_IO_FILEPc+0x3356>
    c1b9:	e9 98 fb ff ff       	jmpq   bd56 <_Z14pipe_interfacePP8HunspelliP8_IO_FILEPc+0x3356>
    c1be:	48 89 c3             	mov    %rax,%rbx
    c1c1:	e9 83 fc ff ff       	jmpq   be49 <_Z14pipe_interfacePP8HunspelliP8_IO_FILEPc+0x3449>
    c1c6:	e9 72 ff ff ff       	jmpq   c13d <_Z14pipe_interfacePP8HunspelliP8_IO_FILEPc+0x373d>
    c1cb:	eb 99                	jmp    c166 <_Z14pipe_interfacePP8HunspelliP8_IO_FILEPc+0x3766>
    c1cd:	e9 5c fc ff ff       	jmpq   be2e <_Z14pipe_interfacePP8HunspelliP8_IO_FILEPc+0x342e>
    c1d2:	e9 fc fe ff ff       	jmpq   c0d3 <_Z14pipe_interfacePP8HunspelliP8_IO_FILEPc+0x36d3>
    c1d7:	eb e5                	jmp    c1be <_Z14pipe_interfacePP8HunspelliP8_IO_FILEPc+0x37be>
    c1d9:	e9 50 fc ff ff       	jmpq   be2e <_Z14pipe_interfacePP8HunspelliP8_IO_FILEPc+0x342e>
    c1de:	66 90                	xchg   %ax,%ax

000000000000c1e0 <_ZNKSt5ctypeIcE8do_widenEc>:
    c1e0:	89 f0                	mov    %esi,%eax
    c1e2:	c3                   	retq   
    c1e3:	66 2e 0f 1f 84 00 00 	nopw   %cs:0x0(%rax,%rax,1)
    c1ea:	00 00 00 
    c1ed:	0f 1f 00             	nopl   (%rax)

000000000000c1f0 <_ZNSt6vectorI6w_charSaIS0_EED1Ev>:
    c1f0:	48 8b 3f             	mov    (%rdi),%rdi
    c1f3:	48 85 ff             	test   %rdi,%rdi
    c1f6:	74 08                	je     c200 <_ZNSt6vectorI6w_charSaIS0_EED1Ev+0x10>
    c1f8:	e9 03 86 ff ff       	jmpq   4800 <_ZdlPv@plt>
    c1fd:	0f 1f 00             	nopl   (%rax)
    c200:	f3 c3                	repz retq 
    c202:	66 2e 0f 1f 84 00 00 	nopw   %cs:0x0(%rax,%rax,1)
    c209:	00 00 00 
    c20c:	0f 1f 40 00          	nopl   0x0(%rax)

000000000000c210 <_ZNSt6vectorINSt7__cxx1112basic_stringIcSt11char_traitsIcESaIcEEESaIS5_EED1Ev>:
    c210:	41 54                	push   %r12
    c212:	55                   	push   %rbp
    c213:	53                   	push   %rbx
    c214:	48 8b 6f 08          	mov    0x8(%rdi),%rbp
    c218:	48 8b 1f             	mov    (%rdi),%rbx
    c21b:	48 39 dd             	cmp    %rbx,%rbp
    c21e:	74 26                	je     c246 <_ZNSt6vectorINSt7__cxx1112basic_stringIcSt11char_traitsIcESaIcEEESaIS5_EED1Ev+0x36>
    c220:	49 89 fc             	mov    %rdi,%r12
    c223:	0f 1f 44 00 00       	nopl   0x0(%rax,%rax,1)
    c228:	48 8b 3b             	mov    (%rbx),%rdi
    c22b:	48 8d 43 10          	lea    0x10(%rbx),%rax
    c22f:	48 39 c7             	cmp    %rax,%rdi
    c232:	74 05                	je     c239 <_ZNSt6vectorINSt7__cxx1112basic_stringIcSt11char_traitsIcESaIcEEESaIS5_EED1Ev+0x29>
    c234:	e8 c7 85 ff ff       	callq  4800 <_ZdlPv@plt>
    c239:	48 83 c3 20          	add    $0x20,%rbx
    c23d:	48 39 dd             	cmp    %rbx,%rbp
    c240:	75 e6                	jne    c228 <_ZNSt6vectorINSt7__cxx1112basic_stringIcSt11char_traitsIcESaIcEEESaIS5_EED1Ev+0x18>
    c242:	49 8b 1c 24          	mov    (%r12),%rbx
    c246:	48 85 db             	test   %rbx,%rbx
    c249:	74 15                	je     c260 <_ZNSt6vectorINSt7__cxx1112basic_stringIcSt11char_traitsIcESaIcEEESaIS5_EED1Ev+0x50>
    c24b:	48 89 df             	mov    %rbx,%rdi
    c24e:	5b                   	pop    %rbx
    c24f:	5d                   	pop    %rbp
    c250:	41 5c                	pop    %r12
    c252:	e9 a9 85 ff ff       	jmpq   4800 <_ZdlPv@plt>
    c257:	66 0f 1f 84 00 00 00 	nopw   0x0(%rax,%rax,1)
    c25e:	00 00 
    c260:	5b                   	pop    %rbx
    c261:	5d                   	pop    %rbp
    c262:	41 5c                	pop    %r12
    c264:	c3                   	retq   
    c265:	66 2e 0f 1f 84 00 00 	nopw   %cs:0x0(%rax,%rax,1)
    c26c:	00 00 00 
    c26f:	90                   	nop

000000000000c270 <_ZNSt7__cxx1115basic_stringbufIcSt11char_traitsIcESaIcEED1Ev>:
    c270:	48 8d 05 a1 85 20 00 	lea    0x2085a1(%rip),%rax        # 214818 <_ZTVNSt7__cxx1115basic_stringbufIcSt11char_traitsIcESaIcEEE@@GLIBCXX_3.4.21+0x10>
    c277:	53                   	push   %rbx
    c278:	48 89 fb             	mov    %rdi,%rbx
    c27b:	48 89 07             	mov    %rax,(%rdi)
    c27e:	48 8b 7f 48          	mov    0x48(%rdi),%rdi
    c282:	48 8d 43 58          	lea    0x58(%rbx),%rax
    c286:	48 39 c7             	cmp    %rax,%rdi
    c289:	74 05                	je     c290 <_ZNSt7__cxx1115basic_stringbufIcSt11char_traitsIcESaIcEED1Ev+0x20>
    c28b:	e8 70 85 ff ff       	callq  4800 <_ZdlPv@plt>
    c290:	48 8d 05 a1 83 20 00 	lea    0x2083a1(%rip),%rax        # 214638 <_ZTVSt15basic_streambufIcSt11char_traitsIcEE@@GLIBCXX_3.4+0x10>
    c297:	48 8d 7b 38          	lea    0x38(%rbx),%rdi
    c29b:	48 89 03             	mov    %rax,(%rbx)
    c29e:	5b                   	pop    %rbx
    c29f:	e9 3c 87 ff ff       	jmpq   49e0 <_ZNSt6localeD1Ev@plt>
    c2a4:	66 2e 0f 1f 84 00 00 	nopw   %cs:0x0(%rax,%rax,1)
    c2ab:	00 00 00 
    c2ae:	66 90                	xchg   %ax,%ax

000000000000c2b0 <_ZNSt7__cxx1115basic_stringbufIcSt11char_traitsIcESaIcEED0Ev>:
    c2b0:	48 8d 05 61 85 20 00 	lea    0x208561(%rip),%rax        # 214818 <_ZTVNSt7__cxx1115basic_stringbufIcSt11char_traitsIcESaIcEEE@@GLIBCXX_3.4.21+0x10>
    c2b7:	53                   	push   %rbx
    c2b8:	48 89 fb             	mov    %rdi,%rbx
    c2bb:	48 89 07             	mov    %rax,(%rdi)
    c2be:	48 8b 7f 48          	mov    0x48(%rdi),%rdi
    c2c2:	48 8d 43 58          	lea    0x58(%rbx),%rax
    c2c6:	48 39 c7             	cmp    %rax,%rdi
    c2c9:	74 05                	je     c2d0 <_ZNSt7__cxx1115basic_stringbufIcSt11char_traitsIcESaIcEED0Ev+0x20>
    c2cb:	e8 30 85 ff ff       	callq  4800 <_ZdlPv@plt>
    c2d0:	48 8d 05 61 83 20 00 	lea    0x208361(%rip),%rax        # 214638 <_ZTVSt15basic_streambufIcSt11char_traitsIcEE@@GLIBCXX_3.4+0x10>
    c2d7:	48 8d 7b 38          	lea    0x38(%rbx),%rdi
    c2db:	48 89 03             	mov    %rax,(%rbx)
    c2de:	e8 fd 86 ff ff       	callq  49e0 <_ZNSt6localeD1Ev@plt>
    c2e3:	48 89 df             	mov    %rbx,%rdi
    c2e6:	be 68 00 00 00       	mov    $0x68,%esi
    c2eb:	5b                   	pop    %rbx
    c2ec:	e9 6f 85 ff ff       	jmpq   4860 <_ZdlPvm@plt>
    c2f1:	66 2e 0f 1f 84 00 00 	nopw   %cs:0x0(%rax,%rax,1)
    c2f8:	00 00 00 
    c2fb:	0f 1f 44 00 00       	nopl   0x0(%rax,%rax,1)

000000000000c300 <_ZNSt6vectorINSt7__cxx1112basic_stringIcSt11char_traitsIcESaIcEEESaIS5_EE17_M_realloc_insertIJRKS5_EEEvN9__gnu_cxx17__normal_iteratorIPS5_S7_EEDpOT_>:
    c300:	41 57                	push   %r15
    c302:	41 56                	push   %r14
    c304:	49 89 f7             	mov    %rsi,%r15
    c307:	41 55                	push   %r13
    c309:	41 54                	push   %r12
    c30b:	49 89 f4             	mov    %rsi,%r12
    c30e:	55                   	push   %rbp
    c30f:	53                   	push   %rbx
    c310:	48 89 fd             	mov    %rdi,%rbp
    c313:	48 89 f3             	mov    %rsi,%rbx
    c316:	48 83 ec 18          	sub    $0x18,%rsp
    c31a:	48 8b 0f             	mov    (%rdi),%rcx
    c31d:	48 8b 47 08          	mov    0x8(%rdi),%rax
    c321:	48 29 c8             	sub    %rcx,%rax
    c324:	49 29 cf             	sub    %rcx,%r15
    c327:	48 c1 f8 05          	sar    $0x5,%rax
    c32b:	48 85 c0             	test   %rax,%rax
    c32e:	0f 84 dc 00 00 00    	je     c410 <_ZNSt6vectorINSt7__cxx1112basic_stringIcSt11char_traitsIcESaIcEEESaIS5_EE17_M_realloc_insertIJRKS5_EEEvN9__gnu_cxx17__normal_iteratorIPS5_S7_EEDpOT_+0x110>
    c334:	4c 8d 2c 00          	lea    (%rax,%rax,1),%r13
    c338:	4c 39 e8             	cmp    %r13,%rax
    c33b:	0f 86 df 01 00 00    	jbe    c520 <_ZNSt6vectorINSt7__cxx1112basic_stringIcSt11char_traitsIcESaIcEEESaIS5_EE17_M_realloc_insertIJRKS5_EEEvN9__gnu_cxx17__normal_iteratorIPS5_S7_EEDpOT_+0x220>
    c341:	48 c7 c7 e0 ff ff ff 	mov    $0xffffffffffffffe0,%rdi
    c348:	49 bd ff ff ff ff ff 	movabs $0x7ffffffffffffff,%r13
    c34f:	ff ff 07 
    c352:	48 89 54 24 08       	mov    %rdx,0x8(%rsp)
    c357:	e8 d4 84 ff ff       	callq  4830 <_Znwm@plt>
    c35c:	48 8b 54 24 08       	mov    0x8(%rsp),%rdx
    c361:	49 89 c6             	mov    %rax,%r14
    c364:	4d 01 f7             	add    %r14,%r15
    c367:	74 21                	je     c38a <_ZNSt6vectorINSt7__cxx1112basic_stringIcSt11char_traitsIcESaIcEEESaIS5_EE17_M_realloc_insertIJRKS5_EEEvN9__gnu_cxx17__normal_iteratorIPS5_S7_EEDpOT_+0x8a>
    c369:	49 8d 47 10          	lea    0x10(%r15),%rax
    c36d:	48 8b 32             	mov    (%rdx),%rsi
    c370:	4c 89 ff             	mov    %r15,%rdi
    c373:	48 89 44 24 08       	mov    %rax,0x8(%rsp)
    c378:	49 89 07             	mov    %rax,(%r15)
    c37b:	48 8b 42 08          	mov    0x8(%rdx),%rax
    c37f:	48 01 f0             	add    %rsi,%rax
    c382:	48 89 c2             	mov    %rax,%rdx
    c385:	e8 46 9e ff ff       	callq  61d0 <_ZNSt7__cxx1112basic_stringIcSt11char_traitsIcESaIcEE12_M_constructIPKcEEvT_S8_St20forward_iterator_tag.isra.52>
    c38a:	48 8b 55 00          	mov    0x0(%rbp),%rdx
    c38e:	4d 89 f7             	mov    %r14,%r15
    c391:	4c 39 e2             	cmp    %r12,%rdx
    c394:	0f 84 99 00 00 00    	je     c433 <_ZNSt6vectorINSt7__cxx1112basic_stringIcSt11char_traitsIcESaIcEEESaIS5_EE17_M_realloc_insertIJRKS5_EEEvN9__gnu_cxx17__normal_iteratorIPS5_S7_EEDpOT_+0x133>
    c39a:	48 8d 4a 20          	lea    0x20(%rdx),%rcx
    c39e:	4c 89 e6             	mov    %r12,%rsi
    c3a1:	48 8d 42 10          	lea    0x10(%rdx),%rax
    c3a5:	48 29 ce             	sub    %rcx,%rsi
    c3a8:	49 89 f7             	mov    %rsi,%r15
    c3ab:	48 8d 74 32 30       	lea    0x30(%rdx,%rsi,1),%rsi
    c3b0:	4c 89 f2             	mov    %r14,%rdx
    c3b3:	49 c1 ef 05          	shr    $0x5,%r15
    c3b7:	eb 35                	jmp    c3ee <_ZNSt6vectorINSt7__cxx1112basic_stringIcSt11char_traitsIcESaIcEEESaIS5_EE17_M_realloc_insertIJRKS5_EEEvN9__gnu_cxx17__normal_iteratorIPS5_S7_EEDpOT_+0xee>
    c3b9:	0f 1f 80 00 00 00 00 	nopl   0x0(%rax)
    c3c0:	48 89 0a             	mov    %rcx,(%rdx)
    c3c3:	48 8b 08             	mov    (%rax),%rcx
    c3c6:	48 89 4a 10          	mov    %rcx,0x10(%rdx)
    c3ca:	48 8b 48 f8          	mov    -0x8(%rax),%rcx
    c3ce:	48 89 4a 08          	mov    %rcx,0x8(%rdx)
    c3d2:	48 89 40 f0          	mov    %rax,-0x10(%rax)
    c3d6:	48 c7 40 f8 00 00 00 	movq   $0x0,-0x8(%rax)
    c3dd:	00 
    c3de:	c6 00 00             	movb   $0x0,(%rax)
    c3e1:	48 83 c0 20          	add    $0x20,%rax
    c3e5:	48 83 c2 20          	add    $0x20,%rdx
    c3e9:	48 39 f0             	cmp    %rsi,%rax
    c3ec:	74 3a                	je     c428 <_ZNSt6vectorINSt7__cxx1112basic_stringIcSt11char_traitsIcESaIcEEESaIS5_EE17_M_realloc_insertIJRKS5_EEEvN9__gnu_cxx17__normal_iteratorIPS5_S7_EEDpOT_+0x128>
    c3ee:	48 85 d2             	test   %rdx,%rdx
    c3f1:	74 ee                	je     c3e1 <_ZNSt6vectorINSt7__cxx1112basic_stringIcSt11char_traitsIcESaIcEEESaIS5_EE17_M_realloc_insertIJRKS5_EEEvN9__gnu_cxx17__normal_iteratorIPS5_S7_EEDpOT_+0xe1>
    c3f3:	48 8d 4a 10          	lea    0x10(%rdx),%rcx
    c3f7:	48 89 0a             	mov    %rcx,(%rdx)
    c3fa:	48 8b 48 f0          	mov    -0x10(%rax),%rcx
    c3fe:	48 39 c1             	cmp    %rax,%rcx
    c401:	75 bd                	jne    c3c0 <_ZNSt6vectorINSt7__cxx1112basic_stringIcSt11char_traitsIcESaIcEEESaIS5_EE17_M_realloc_insertIJRKS5_EEEvN9__gnu_cxx17__normal_iteratorIPS5_S7_EEDpOT_+0xc0>
    c403:	f3 0f 6f 00          	movdqu (%rax),%xmm0
    c407:	0f 11 42 10          	movups %xmm0,0x10(%rdx)
    c40b:	eb bd                	jmp    c3ca <_ZNSt6vectorINSt7__cxx1112basic_stringIcSt11char_traitsIcESaIcEEESaIS5_EE17_M_realloc_insertIJRKS5_EEEvN9__gnu_cxx17__normal_iteratorIPS5_S7_EEDpOT_+0xca>
    c40d:	0f 1f 00             	nopl   (%rax)
    c410:	41 bd 01 00 00 00    	mov    $0x1,%r13d
    c416:	4c 89 ef             	mov    %r13,%rdi
    c419:	48 c1 e7 05          	shl    $0x5,%rdi
    c41d:	e9 30 ff ff ff       	jmpq   c352 <_ZNSt6vectorINSt7__cxx1112basic_stringIcSt11char_traitsIcESaIcEEESaIS5_EE17_M_realloc_insertIJRKS5_EEEvN9__gnu_cxx17__normal_iteratorIPS5_S7_EEDpOT_+0x52>
    c422:	66 0f 1f 44 00 00    	nopw   0x0(%rax,%rax,1)
    c428:	49 83 c7 01          	add    $0x1,%r15
    c42c:	49 c1 e7 05          	shl    $0x5,%r15
    c430:	4d 01 f7             	add    %r14,%r15
    c433:	48 8b 55 08          	mov    0x8(%rbp),%rdx
    c437:	49 83 c7 20          	add    $0x20,%r15
    c43b:	4c 39 e2             	cmp    %r12,%rdx
    c43e:	74 7f                	je     c4bf <_ZNSt6vectorINSt7__cxx1112basic_stringIcSt11char_traitsIcESaIcEEESaIS5_EE17_M_realloc_insertIJRKS5_EEEvN9__gnu_cxx17__normal_iteratorIPS5_S7_EEDpOT_+0x1bf>
    c440:	49 8d 4c 24 20       	lea    0x20(%r12),%rcx
    c445:	49 8d 44 24 10       	lea    0x10(%r12),%rax
    c44a:	48 29 ca             	sub    %rcx,%rdx
    c44d:	48 89 d7             	mov    %rdx,%rdi
    c450:	4a 8d 74 22 30       	lea    0x30(%rdx,%r12,1),%rsi
    c455:	4c 89 fa             	mov    %r15,%rdx
    c458:	48 c1 ef 05          	shr    $0x5,%rdi
    c45c:	eb 30                	jmp    c48e <_ZNSt6vectorINSt7__cxx1112basic_stringIcSt11char_traitsIcESaIcEEESaIS5_EE17_M_realloc_insertIJRKS5_EEEvN9__gnu_cxx17__normal_iteratorIPS5_S7_EEDpOT_+0x18e>
    c45e:	66 90                	xchg   %ax,%ax
    c460:	48 89 0a             	mov    %rcx,(%rdx)
    c463:	48 8b 08             	mov    (%rax),%rcx
    c466:	48 89 4a 10          	mov    %rcx,0x10(%rdx)
    c46a:	48 8b 48 f8          	mov    -0x8(%rax),%rcx
    c46e:	48 89 40 f0          	mov    %rax,-0x10(%rax)
    c472:	48 c7 40 f8 00 00 00 	movq   $0x0,-0x8(%rax)
    c479:	00 
    c47a:	c6 00 00             	movb   $0x0,(%rax)
    c47d:	48 89 4a 08          	mov    %rcx,0x8(%rdx)
    c481:	48 83 c0 20          	add    $0x20,%rax
    c485:	48 83 c2 20          	add    $0x20,%rdx
    c489:	48 39 f0             	cmp    %rsi,%rax
    c48c:	74 22                	je     c4b0 <_ZNSt6vectorINSt7__cxx1112basic_stringIcSt11char_traitsIcESaIcEEESaIS5_EE17_M_realloc_insertIJRKS5_EEEvN9__gnu_cxx17__normal_iteratorIPS5_S7_EEDpOT_+0x1b0>
    c48e:	48 85 d2             	test   %rdx,%rdx
    c491:	74 ee                	je     c481 <_ZNSt6vectorINSt7__cxx1112basic_stringIcSt11char_traitsIcESaIcEEESaIS5_EE17_M_realloc_insertIJRKS5_EEEvN9__gnu_cxx17__normal_iteratorIPS5_S7_EEDpOT_+0x181>
    c493:	48 8d 4a 10          	lea    0x10(%rdx),%rcx
    c497:	48 89 0a             	mov    %rcx,(%rdx)
    c49a:	48 8b 48 f0          	mov    -0x10(%rax),%rcx
    c49e:	48 39 c8             	cmp    %rcx,%rax
    c4a1:	75 bd                	jne    c460 <_ZNSt6vectorINSt7__cxx1112basic_stringIcSt11char_traitsIcESaIcEEESaIS5_EE17_M_realloc_insertIJRKS5_EEEvN9__gnu_cxx17__normal_iteratorIPS5_S7_EEDpOT_+0x160>
    c4a3:	f3 0f 6f 00          	movdqu (%rax),%xmm0
    c4a7:	0f 11 42 10          	movups %xmm0,0x10(%rdx)
    c4ab:	eb bd                	jmp    c46a <_ZNSt6vectorINSt7__cxx1112basic_stringIcSt11char_traitsIcESaIcEEESaIS5_EE17_M_realloc_insertIJRKS5_EEEvN9__gnu_cxx17__normal_iteratorIPS5_S7_EEDpOT_+0x16a>
    c4ad:	0f 1f 00             	nopl   (%rax)
    c4b0:	48 8d 47 01          	lea    0x1(%rdi),%rax
    c4b4:	48 8b 5d 08          	mov    0x8(%rbp),%rbx
    c4b8:	48 c1 e0 05          	shl    $0x5,%rax
    c4bc:	49 01 c7             	add    %rax,%r15
    c4bf:	4c 8b 65 00          	mov    0x0(%rbp),%r12
    c4c3:	49 39 dc             	cmp    %rbx,%r12
    c4c6:	74 28                	je     c4f0 <_ZNSt6vectorINSt7__cxx1112basic_stringIcSt11char_traitsIcESaIcEEESaIS5_EE17_M_realloc_insertIJRKS5_EEEvN9__gnu_cxx17__normal_iteratorIPS5_S7_EEDpOT_+0x1f0>
    c4c8:	0f 1f 84 00 00 00 00 	nopl   0x0(%rax,%rax,1)
    c4cf:	00 
    c4d0:	49 8b 3c 24          	mov    (%r12),%rdi
    c4d4:	49 8d 44 24 10       	lea    0x10(%r12),%rax
    c4d9:	48 39 c7             	cmp    %rax,%rdi
    c4dc:	74 05                	je     c4e3 <_ZNSt6vectorINSt7__cxx1112basic_stringIcSt11char_traitsIcESaIcEEESaIS5_EE17_M_realloc_insertIJRKS5_EEEvN9__gnu_cxx17__normal_iteratorIPS5_S7_EEDpOT_+0x1e3>
    c4de:	e8 1d 83 ff ff       	callq  4800 <_ZdlPv@plt>
    c4e3:	49 83 c4 20          	add    $0x20,%r12
    c4e7:	4c 39 e3             	cmp    %r12,%rbx
    c4ea:	75 e4                	jne    c4d0 <_ZNSt6vectorINSt7__cxx1112basic_stringIcSt11char_traitsIcESaIcEEESaIS5_EE17_M_realloc_insertIJRKS5_EEEvN9__gnu_cxx17__normal_iteratorIPS5_S7_EEDpOT_+0x1d0>
    c4ec:	48 8b 5d 00          	mov    0x0(%rbp),%rbx
    c4f0:	48 85 db             	test   %rbx,%rbx
    c4f3:	74 08                	je     c4fd <_ZNSt6vectorINSt7__cxx1112basic_stringIcSt11char_traitsIcESaIcEEESaIS5_EE17_M_realloc_insertIJRKS5_EEEvN9__gnu_cxx17__normal_iteratorIPS5_S7_EEDpOT_+0x1fd>
    c4f5:	48 89 df             	mov    %rbx,%rdi
    c4f8:	e8 03 83 ff ff       	callq  4800 <_ZdlPv@plt>
    c4fd:	49 c1 e5 05          	shl    $0x5,%r13
    c501:	4c 89 75 00          	mov    %r14,0x0(%rbp)
    c505:	4c 89 7d 08          	mov    %r15,0x8(%rbp)
    c509:	4d 01 ee             	add    %r13,%r14
    c50c:	4c 89 75 10          	mov    %r14,0x10(%rbp)
    c510:	48 83 c4 18          	add    $0x18,%rsp
    c514:	5b                   	pop    %rbx
    c515:	5d                   	pop    %rbp
    c516:	41 5c                	pop    %r12
    c518:	41 5d                	pop    %r13
    c51a:	41 5e                	pop    %r14
    c51c:	41 5f                	pop    %r15
    c51e:	c3                   	retq   
    c51f:	90                   	nop
    c520:	48 b8 ff ff ff ff ff 	movabs $0x7ffffffffffffff,%rax
    c527:	ff ff 07 
    c52a:	49 39 c5             	cmp    %rax,%r13
    c52d:	76 0f                	jbe    c53e <_ZNSt6vectorINSt7__cxx1112basic_stringIcSt11char_traitsIcESaIcEEESaIS5_EE17_M_realloc_insertIJRKS5_EEEvN9__gnu_cxx17__normal_iteratorIPS5_S7_EEDpOT_+0x23e>
    c52f:	48 c7 c7 e0 ff ff ff 	mov    $0xffffffffffffffe0,%rdi
    c536:	49 89 c5             	mov    %rax,%r13
    c539:	e9 14 fe ff ff       	jmpq   c352 <_ZNSt6vectorINSt7__cxx1112basic_stringIcSt11char_traitsIcESaIcEEESaIS5_EE17_M_realloc_insertIJRKS5_EEEvN9__gnu_cxx17__normal_iteratorIPS5_S7_EEDpOT_+0x52>
    c53e:	4d 85 ed             	test   %r13,%r13
    c541:	0f 85 cf fe ff ff    	jne    c416 <_ZNSt6vectorINSt7__cxx1112basic_stringIcSt11char_traitsIcESaIcEEESaIS5_EE17_M_realloc_insertIJRKS5_EEEvN9__gnu_cxx17__normal_iteratorIPS5_S7_EEDpOT_+0x116>
    c547:	45 31 f6             	xor    %r14d,%r14d
    c54a:	e9 15 fe ff ff       	jmpq   c364 <_ZNSt6vectorINSt7__cxx1112basic_stringIcSt11char_traitsIcESaIcEEESaIS5_EE17_M_realloc_insertIJRKS5_EEEvN9__gnu_cxx17__normal_iteratorIPS5_S7_EEDpOT_+0x64>
    c54f:	48 89 c7             	mov    %rax,%rdi
    c552:	e8 79 81 ff ff       	callq  46d0 <__cxa_begin_catch@plt>
    c557:	4d 85 f6             	test   %r14,%r14
    c55a:	74 0d                	je     c569 <_ZNSt6vectorINSt7__cxx1112basic_stringIcSt11char_traitsIcESaIcEEESaIS5_EE17_M_realloc_insertIJRKS5_EEEvN9__gnu_cxx17__normal_iteratorIPS5_S7_EEDpOT_+0x269>
    c55c:	4c 89 f7             	mov    %r14,%rdi
    c55f:	e8 9c 82 ff ff       	callq  4800 <_ZdlPv@plt>
    c564:	e8 a7 84 ff ff       	callq  4a10 <__cxa_rethrow@plt>
    c569:	49 8b 3f             	mov    (%r15),%rdi
    c56c:	48 3b 7c 24 08       	cmp    0x8(%rsp),%rdi
    c571:	74 f1                	je     c564 <_ZNSt6vectorINSt7__cxx1112basic_stringIcSt11char_traitsIcESaIcEEESaIS5_EE17_M_realloc_insertIJRKS5_EEEvN9__gnu_cxx17__normal_iteratorIPS5_S7_EEDpOT_+0x264>
    c573:	e8 88 82 ff ff       	callq  4800 <_ZdlPv@plt>
    c578:	eb ea                	jmp    c564 <_ZNSt6vectorINSt7__cxx1112basic_stringIcSt11char_traitsIcESaIcEEESaIS5_EE17_M_realloc_insertIJRKS5_EEEvN9__gnu_cxx17__normal_iteratorIPS5_S7_EEDpOT_+0x264>
    c57a:	48 89 c3             	mov    %rax,%rbx
    c57d:	e8 4e 85 ff ff       	callq  4ad0 <__cxa_end_catch@plt>
    c582:	48 89 df             	mov    %rbx,%rdi
    c585:	e8 86 85 ff ff       	callq  4b10 <_Unwind_Resume@plt>
    c58a:	66 0f 1f 44 00 00    	nopw   0x0(%rax,%rax,1)

000000000000c590 <_ZSt16__insertion_sortIN9__gnu_cxx17__normal_iteratorIP6w_charSt6vectorIS2_SaIS2_EEEENS0_5__ops15_Iter_less_iterEEvT_SA_T0_>:
    c590:	48 39 fe             	cmp    %rdi,%rsi
    c593:	0f 84 d7 00 00 00    	je     c670 <_ZSt16__insertion_sortIN9__gnu_cxx17__normal_iteratorIP6w_charSt6vectorIS2_SaIS2_EEEENS0_5__ops15_Iter_less_iterEEvT_SA_T0_+0xe0>
    c599:	41 57                	push   %r15
    c59b:	4c 8d 7f 02          	lea    0x2(%rdi),%r15
    c59f:	41 56                	push   %r14
    c5a1:	41 55                	push   %r13
    c5a3:	41 54                	push   %r12
    c5a5:	55                   	push   %rbp
    c5a6:	53                   	push   %rbx
    c5a7:	48 83 ec 08          	sub    $0x8,%rsp
    c5ab:	49 39 f7             	cmp    %rsi,%r15
    c5ae:	0f 84 a4 00 00 00    	je     c658 <_ZSt16__insertion_sortIN9__gnu_cxx17__normal_iteratorIP6w_charSt6vectorIS2_SaIS2_EEEENS0_5__ops15_Iter_less_iterEEvT_SA_T0_+0xc8>
    c5b4:	48 89 fd             	mov    %rdi,%rbp
    c5b7:	4c 89 fb             	mov    %r15,%rbx
    c5ba:	49 89 f6             	mov    %rsi,%r14
    c5bd:	eb 28                	jmp    c5e7 <_ZSt16__insertion_sortIN9__gnu_cxx17__normal_iteratorIP6w_charSt6vectorIS2_SaIS2_EEEENS0_5__ops15_Iter_less_iterEEvT_SA_T0_+0x57>
    c5bf:	90                   	nop
    c5c0:	48 39 dd             	cmp    %rbx,%rbp
    c5c3:	74 11                	je     c5d6 <_ZSt16__insertion_sortIN9__gnu_cxx17__normal_iteratorIP6w_charSt6vectorIS2_SaIS2_EEEENS0_5__ops15_Iter_less_iterEEvT_SA_T0_+0x46>
    c5c5:	48 89 da             	mov    %rbx,%rdx
    c5c8:	4c 89 ff             	mov    %r15,%rdi
    c5cb:	48 89 ee             	mov    %rbp,%rsi
    c5ce:	48 29 ea             	sub    %rbp,%rdx
    c5d1:	e8 ea 84 ff ff       	callq  4ac0 <memmove@plt>
    c5d6:	48 83 c3 02          	add    $0x2,%rbx
    c5da:	44 88 6d 00          	mov    %r13b,0x0(%rbp)
    c5de:	44 88 65 01          	mov    %r12b,0x1(%rbp)
    c5e2:	49 39 de             	cmp    %rbx,%r14
    c5e5:	74 71                	je     c658 <_ZSt16__insertion_sortIN9__gnu_cxx17__normal_iteratorIP6w_charSt6vectorIS2_SaIS2_EEEENS0_5__ops15_Iter_less_iterEEvT_SA_T0_+0xc8>
    c5e7:	44 0f b6 63 01       	movzbl 0x1(%rbx),%r12d
    c5ec:	0f b6 03             	movzbl (%rbx),%eax
    c5ef:	0f b6 55 00          	movzbl 0x0(%rbp),%edx
    c5f3:	44 89 e1             	mov    %r12d,%ecx
    c5f6:	41 89 c5             	mov    %eax,%r13d
    c5f9:	c1 e1 08             	shl    $0x8,%ecx
    c5fc:	01 c1                	add    %eax,%ecx
    c5fe:	0f b6 45 01          	movzbl 0x1(%rbp),%eax
    c602:	c1 e0 08             	shl    $0x8,%eax
    c605:	01 d0                	add    %edx,%eax
    c607:	66 39 c1             	cmp    %ax,%cx
    c60a:	72 b4                	jb     c5c0 <_ZSt16__insertion_sortIN9__gnu_cxx17__normal_iteratorIP6w_charSt6vectorIS2_SaIS2_EEEENS0_5__ops15_Iter_less_iterEEvT_SA_T0_+0x30>
    c60c:	0f b6 53 ff          	movzbl -0x1(%rbx),%edx
    c610:	0f b6 73 fe          	movzbl -0x2(%rbx),%esi
    c614:	48 8d 43 fe          	lea    -0x2(%rbx),%rax
    c618:	c1 e2 08             	shl    $0x8,%edx
    c61b:	01 f2                	add    %esi,%edx
    c61d:	66 39 d1             	cmp    %dx,%cx
    c620:	72 09                	jb     c62b <_ZSt16__insertion_sortIN9__gnu_cxx17__normal_iteratorIP6w_charSt6vectorIS2_SaIS2_EEEENS0_5__ops15_Iter_less_iterEEvT_SA_T0_+0x9b>
    c622:	eb 54                	jmp    c678 <_ZSt16__insertion_sortIN9__gnu_cxx17__normal_iteratorIP6w_charSt6vectorIS2_SaIS2_EEEENS0_5__ops15_Iter_less_iterEEvT_SA_T0_+0xe8>
    c624:	0f 1f 40 00          	nopl   0x0(%rax)
    c628:	48 89 f8             	mov    %rdi,%rax
    c62b:	0f b7 10             	movzwl (%rax),%edx
    c62e:	0f b6 70 fe          	movzbl -0x2(%rax),%esi
    c632:	48 8d 78 fe          	lea    -0x2(%rax),%rdi
    c636:	66 89 50 02          	mov    %dx,0x2(%rax)
    c63a:	0f b6 50 ff          	movzbl -0x1(%rax),%edx
    c63e:	c1 e2 08             	shl    $0x8,%edx
    c641:	01 f2                	add    %esi,%edx
    c643:	66 39 d1             	cmp    %dx,%cx
    c646:	72 e0                	jb     c628 <_ZSt16__insertion_sortIN9__gnu_cxx17__normal_iteratorIP6w_charSt6vectorIS2_SaIS2_EEEENS0_5__ops15_Iter_less_iterEEvT_SA_T0_+0x98>
    c648:	44 88 28             	mov    %r13b,(%rax)
    c64b:	44 88 60 01          	mov    %r12b,0x1(%rax)
    c64f:	48 83 c3 02          	add    $0x2,%rbx
    c653:	49 39 de             	cmp    %rbx,%r14
    c656:	75 8f                	jne    c5e7 <_ZSt16__insertion_sortIN9__gnu_cxx17__normal_iteratorIP6w_charSt6vectorIS2_SaIS2_EEEENS0_5__ops15_Iter_less_iterEEvT_SA_T0_+0x57>
    c658:	48 83 c4 08          	add    $0x8,%rsp
    c65c:	5b                   	pop    %rbx
    c65d:	5d                   	pop    %rbp
    c65e:	41 5c                	pop    %r12
    c660:	41 5d                	pop    %r13
    c662:	41 5e                	pop    %r14
    c664:	41 5f                	pop    %r15
    c666:	c3                   	retq   
    c667:	66 0f 1f 84 00 00 00 	nopw   0x0(%rax,%rax,1)
    c66e:	00 00 
    c670:	f3 c3                	repz retq 
    c672:	66 0f 1f 44 00 00    	nopw   0x0(%rax,%rax,1)
    c678:	48 89 d8             	mov    %rbx,%rax
    c67b:	44 88 28             	mov    %r13b,(%rax)
    c67e:	44 88 60 01          	mov    %r12b,0x1(%rax)
    c682:	eb cb                	jmp    c64f <_ZSt16__insertion_sortIN9__gnu_cxx17__normal_iteratorIP6w_charSt6vectorIS2_SaIS2_EEEENS0_5__ops15_Iter_less_iterEEvT_SA_T0_+0xbf>
    c684:	66 2e 0f 1f 84 00 00 	nopw   %cs:0x0(%rax,%rax,1)
    c68b:	00 00 00 
    c68e:	66 90                	xchg   %ax,%ax

000000000000c690 <_ZSt13__adjust_heapIN9__gnu_cxx17__normal_iteratorIP6w_charSt6vectorIS2_SaIS2_EEEElS2_NS0_5__ops15_Iter_less_iterEEvT_T0_SB_T1_T2_>:
    c690:	48 8d 42 ff          	lea    -0x1(%rdx),%rax
    c694:	41 56                	push   %r14
    c696:	41 55                	push   %r13
    c698:	41 54                	push   %r12
    c69a:	49 89 d5             	mov    %rdx,%r13
    c69d:	55                   	push   %rbp
    c69e:	49 89 c4             	mov    %rax,%r12
    c6a1:	41 83 e5 01          	and    $0x1,%r13d
    c6a5:	53                   	push   %rbx
    c6a6:	49 c1 ec 3f          	shr    $0x3f,%r12
    c6aa:	0f b6 dd             	movzbl %ch,%ebx
    c6ad:	49 01 c4             	add    %rax,%r12
    c6b0:	48 89 f0             	mov    %rsi,%rax
    c6b3:	49 d1 fc             	sar    %r12
    c6b6:	4c 39 e6             	cmp    %r12,%rsi
    c6b9:	0f 8d 11 01 00 00    	jge    c7d0 <_ZSt13__adjust_heapIN9__gnu_cxx17__normal_iteratorIP6w_charSt6vectorIS2_SaIS2_EEEElS2_NS0_5__ops15_Iter_less_iterEEvT_T0_SB_T1_T2_+0x140>
    c6bf:	90                   	nop
    c6c0:	4c 8d 48 01          	lea    0x1(%rax),%r9
    c6c4:	4a 8d 2c 8f          	lea    (%rdi,%r9,4),%rbp
    c6c8:	4f 8d 1c 09          	lea    (%r9,%r9,1),%r11
    c6cc:	44 0f b6 55 01       	movzbl 0x1(%rbp),%r10d
    c6d1:	44 0f b6 4d 00       	movzbl 0x0(%rbp),%r9d
    c6d6:	49 8d 43 ff          	lea    -0x1(%r11),%rax
    c6da:	4c 8d 04 47          	lea    (%rdi,%rax,2),%r8
    c6de:	41 c1 e2 08          	shl    $0x8,%r10d
    c6e2:	45 0f b6 30          	movzbl (%r8),%r14d
    c6e6:	45 01 ca             	add    %r9d,%r10d
    c6e9:	45 0f b6 48 01       	movzbl 0x1(%r8),%r9d
    c6ee:	41 c1 e1 08          	shl    $0x8,%r9d
    c6f2:	45 01 f1             	add    %r14d,%r9d
    c6f5:	66 45 39 ca          	cmp    %r9w,%r10w
    c6f9:	4c 0f 43 c5          	cmovae %rbp,%r8
    c6fd:	49 0f 43 c3          	cmovae %r11,%rax
    c701:	45 0f b7 08          	movzwl (%r8),%r9d
    c705:	4c 39 e0             	cmp    %r12,%rax
    c708:	66 46 89 4c 1f fe    	mov    %r9w,-0x2(%rdi,%r11,1)
    c70e:	7c b0                	jl     c6c0 <_ZSt13__adjust_heapIN9__gnu_cxx17__normal_iteratorIP6w_charSt6vectorIS2_SaIS2_EEEElS2_NS0_5__ops15_Iter_less_iterEEvT_T0_SB_T1_T2_+0x30>
    c710:	4d 85 ed             	test   %r13,%r13
    c713:	75 1e                	jne    c733 <_ZSt13__adjust_heapIN9__gnu_cxx17__normal_iteratorIP6w_charSt6vectorIS2_SaIS2_EEEElS2_NS0_5__ops15_Iter_less_iterEEvT_T0_SB_T1_T2_+0xa3>
    c715:	4c 8d 42 fe          	lea    -0x2(%rdx),%r8
    c719:	4c 89 c2             	mov    %r8,%rdx
    c71c:	48 c1 ea 3f          	shr    $0x3f,%rdx
    c720:	4c 01 c2             	add    %r8,%rdx
    c723:	48 d1 fa             	sar    %rdx
    c726:	48 39 c2             	cmp    %rax,%rdx
    c729:	0f 84 81 00 00 00    	je     c7b0 <_ZSt13__adjust_heapIN9__gnu_cxx17__normal_iteratorIP6w_charSt6vectorIS2_SaIS2_EEEElS2_NS0_5__ops15_Iter_less_iterEEvT_T0_SB_T1_T2_+0x120>
    c72f:	4c 8d 04 47          	lea    (%rdi,%rax,2),%r8
    c733:	48 8d 50 ff          	lea    -0x1(%rax),%rdx
    c737:	49 89 d2             	mov    %rdx,%r10
    c73a:	49 c1 ea 3f          	shr    $0x3f,%r10
    c73e:	49 01 d2             	add    %rdx,%r10
    c741:	49 d1 fa             	sar    %r10
    c744:	48 39 f0             	cmp    %rsi,%rax
    c747:	7e 57                	jle    c7a0 <_ZSt13__adjust_heapIN9__gnu_cxx17__normal_iteratorIP6w_charSt6vectorIS2_SaIS2_EEEElS2_NS0_5__ops15_Iter_less_iterEEvT_T0_SB_T1_T2_+0x110>
    c749:	41 89 db             	mov    %ebx,%r11d
    c74c:	0f b6 d1             	movzbl %cl,%edx
    c74f:	4e 8d 0c 57          	lea    (%rdi,%r10,2),%r9
    c753:	41 c1 e3 08          	shl    $0x8,%r11d
    c757:	41 01 d3             	add    %edx,%r11d
    c75a:	eb 30                	jmp    c78c <_ZSt13__adjust_heapIN9__gnu_cxx17__normal_iteratorIP6w_charSt6vectorIS2_SaIS2_EEEElS2_NS0_5__ops15_Iter_less_iterEEvT_T0_SB_T1_T2_+0xfc>
    c75c:	0f 1f 40 00          	nopl   0x0(%rax)
    c760:	41 0f b7 11          	movzwl (%r9),%edx
    c764:	4e 8d 04 57          	lea    (%rdi,%r10,2),%r8
    c768:	66 89 14 47          	mov    %dx,(%rdi,%rax,2)
    c76c:	49 8d 42 ff          	lea    -0x1(%r10),%rax
    c770:	48 89 c2             	mov    %rax,%rdx
    c773:	48 c1 ea 3f          	shr    $0x3f,%rdx
    c777:	48 01 c2             	add    %rax,%rdx
    c77a:	48 d1 fa             	sar    %rdx
    c77d:	4c 39 d6             	cmp    %r10,%rsi
    c780:	7d 1e                	jge    c7a0 <_ZSt13__adjust_heapIN9__gnu_cxx17__normal_iteratorIP6w_charSt6vectorIS2_SaIS2_EEEElS2_NS0_5__ops15_Iter_less_iterEEvT_T0_SB_T1_T2_+0x110>
    c782:	4c 8d 0c 57          	lea    (%rdi,%rdx,2),%r9
    c786:	4c 89 d0             	mov    %r10,%rax
    c789:	49 89 d2             	mov    %rdx,%r10
    c78c:	41 0f b6 51 01       	movzbl 0x1(%r9),%edx
    c791:	41 0f b6 29          	movzbl (%r9),%ebp
    c795:	c1 e2 08             	shl    $0x8,%edx
    c798:	01 ea                	add    %ebp,%edx
    c79a:	66 44 39 da          	cmp    %r11w,%dx
    c79e:	72 c0                	jb     c760 <_ZSt13__adjust_heapIN9__gnu_cxx17__normal_iteratorIP6w_charSt6vectorIS2_SaIS2_EEEElS2_NS0_5__ops15_Iter_less_iterEEvT_T0_SB_T1_T2_+0xd0>
    c7a0:	41 88 08             	mov    %cl,(%r8)
    c7a3:	41 88 58 01          	mov    %bl,0x1(%r8)
    c7a7:	5b                   	pop    %rbx
    c7a8:	5d                   	pop    %rbp
    c7a9:	41 5c                	pop    %r12
    c7ab:	41 5d                	pop    %r13
    c7ad:	41 5e                	pop    %r14
    c7af:	c3                   	retq   
    c7b0:	48 8d 54 00 01       	lea    0x1(%rax,%rax,1),%rdx
    c7b5:	4c 8d 04 57          	lea    (%rdi,%rdx,2),%r8
    c7b9:	45 0f b7 08          	movzwl (%r8),%r9d
    c7bd:	66 44 89 0c 47       	mov    %r9w,(%rdi,%rax,2)
    c7c2:	48 89 d0             	mov    %rdx,%rax
    c7c5:	e9 69 ff ff ff       	jmpq   c733 <_ZSt13__adjust_heapIN9__gnu_cxx17__normal_iteratorIP6w_charSt6vectorIS2_SaIS2_EEEElS2_NS0_5__ops15_Iter_less_iterEEvT_T0_SB_T1_T2_+0xa3>
    c7ca:	66 0f 1f 44 00 00    	nopw   0x0(%rax,%rax,1)
    c7d0:	4d 85 ed             	test   %r13,%r13
    c7d3:	0f 84 3c ff ff ff    	je     c715 <_ZSt13__adjust_heapIN9__gnu_cxx17__normal_iteratorIP6w_charSt6vectorIS2_SaIS2_EEEElS2_NS0_5__ops15_Iter_less_iterEEvT_T0_SB_T1_T2_+0x85>
    c7d9:	4c 8d 04 77          	lea    (%rdi,%rsi,2),%r8
    c7dd:	eb c1                	jmp    c7a0 <_ZSt13__adjust_heapIN9__gnu_cxx17__normal_iteratorIP6w_charSt6vectorIS2_SaIS2_EEEElS2_NS0_5__ops15_Iter_less_iterEEvT_T0_SB_T1_T2_+0x110>
    c7df:	90                   	nop

000000000000c7e0 <_ZN11FirstParserD1Ev>:
    c7e0:	48 8d 05 c9 80 20 00 	lea    0x2080c9(%rip),%rax        # 2148b0 <_ZTV11FirstParser+0x10>
    c7e7:	48 89 07             	mov    %rax,(%rdi)
    c7ea:	e9 b1 1e 00 00       	jmpq   e6a0 <_ZN10TextParserD1Ev>
    c7ef:	90                   	nop

000000000000c7f0 <_ZN11FirstParserD0Ev>:
    c7f0:	48 8d 05 b9 80 20 00 	lea    0x2080b9(%rip),%rax        # 2148b0 <_ZTV11FirstParser+0x10>
    c7f7:	53                   	push   %rbx
    c7f8:	48 89 fb             	mov    %rdi,%rbx
    c7fb:	48 89 07             	mov    %rax,(%rdi)
    c7fe:	e8 9d 1e 00 00       	callq  e6a0 <_ZN10TextParserD1Ev>
    c803:	48 89 df             	mov    %rbx,%rdi
    c806:	be f8 00 00 00       	mov    $0xf8,%esi
    c80b:	5b                   	pop    %rbx
    c80c:	e9 4f 80 ff ff       	jmpq   4860 <_ZdlPvm@plt>
    c811:	90                   	nop
    c812:	0f 1f 40 00          	nopl   0x0(%rax)
    c816:	66 2e 0f 1f 84 00 00 	nopw   %cs:0x0(%rax,%rax,1)
    c81d:	00 00 00 

000000000000c820 <_ZN11FirstParser10next_tokenERNSt7__cxx1112basic_stringIcSt11char_traitsIcESaIcEEE>:
    c820:	41 55                	push   %r13
    c822:	41 54                	push   %r12
    c824:	31 d2                	xor    %edx,%edx
    c826:	55                   	push   %rbp
    c827:	53                   	push   %rbx
    c828:	48 89 fb             	mov    %rdi,%rbx
    c82b:	48 89 f5             	mov    %rsi,%rbp
    c82e:	48 83 ec 48          	sub    $0x48,%rsp
    c832:	48 c7 46 08 00 00 00 	movq   $0x0,0x8(%rsi)
    c839:	00 
    c83a:	64 48 8b 04 25 28 00 	mov    %fs:0x28,%rax
    c841:	00 00 
    c843:	48 89 44 24 38       	mov    %rax,0x38(%rsp)
    c848:	31 c0                	xor    %eax,%eax
    c84a:	48 8b 06             	mov    (%rsi),%rax
    c84d:	be 09 00 00 00       	mov    $0x9,%esi
    c852:	c6 00 00             	movb   $0x0,(%rax)
    c855:	48 63 bf cc 00 00 00 	movslq 0xcc(%rdi),%rdi
    c85c:	48 83 c7 01          	add    $0x1,%rdi
    c860:	48 c1 e7 05          	shl    $0x5,%rdi
    c864:	48 01 df             	add    %rbx,%rdi
    c867:	e8 44 81 ff ff       	callq  49b0 <_ZNKSt7__cxx1112basic_stringIcSt11char_traitsIcESaIcEE4findEcm@plt>
    c86c:	48 83 f8 ff          	cmp    $0xffffffffffffffff,%rax
    c870:	0f 84 2a 01 00 00    	je     c9a0 <_ZN11FirstParser10next_tokenERNSt7__cxx1112basic_stringIcSt11char_traitsIcESaIcEEE+0x180>
    c876:	48 89 c2             	mov    %rax,%rdx
    c879:	31 c0                	xor    %eax,%eax
    c87b:	48 39 93 d8 00 00 00 	cmp    %rdx,0xd8(%rbx)
    c882:	72 24                	jb     c8a8 <_ZN11FirstParser10next_tokenERNSt7__cxx1112basic_stringIcSt11char_traitsIcESaIcEEE+0x88>
    c884:	48 8b 4c 24 38       	mov    0x38(%rsp),%rcx
    c889:	64 48 33 0c 25 28 00 	xor    %fs:0x28,%rcx
    c890:	00 00 
    c892:	0f 85 e2 01 00 00    	jne    ca7a <_ZN11FirstParser10next_tokenERNSt7__cxx1112basic_stringIcSt11char_traitsIcESaIcEEE+0x25a>
    c898:	48 83 c4 48          	add    $0x48,%rsp
    c89c:	5b                   	pop    %rbx
    c89d:	5d                   	pop    %rbp
    c89e:	41 5c                	pop    %r12
    c8a0:	41 5d                	pop    %r13
    c8a2:	c3                   	retq   
    c8a3:	0f 1f 44 00 00       	nopl   0x0(%rax,%rax,1)
    c8a8:	48 63 83 cc 00 00 00 	movslq 0xcc(%rbx),%rax
    c8af:	48 89 93 d8 00 00 00 	mov    %rdx,0xd8(%rbx)
    c8b6:	4c 8d 64 24 10       	lea    0x10(%rsp),%r12
    c8bb:	49 8d 4c 24 10       	lea    0x10(%r12),%rcx
    c8c0:	48 83 c0 01          	add    $0x1,%rax
    c8c4:	48 89 4c 24 10       	mov    %rcx,0x10(%rsp)
    c8c9:	48 c1 e0 05          	shl    $0x5,%rax
    c8cd:	48 01 c3             	add    %rax,%rbx
    c8d0:	48 8b 43 08          	mov    0x8(%rbx),%rax
    c8d4:	4c 8b 2b             	mov    (%rbx),%r13
    c8d7:	48 39 c2             	cmp    %rax,%rdx
    c8da:	48 0f 46 c2          	cmovbe %rdx,%rax
    c8de:	48 89 c3             	mov    %rax,%rbx
    c8e1:	4c 89 e8             	mov    %r13,%rax
    c8e4:	48 01 d8             	add    %rbx,%rax
    c8e7:	74 09                	je     c8f2 <_ZN11FirstParser10next_tokenERNSt7__cxx1112basic_stringIcSt11char_traitsIcESaIcEEE+0xd2>
    c8e9:	4d 85 ed             	test   %r13,%r13
    c8ec:	0f 84 65 01 00 00    	je     ca57 <_ZN11FirstParser10next_tokenERNSt7__cxx1112basic_stringIcSt11char_traitsIcESaIcEEE+0x237>
    c8f2:	48 83 fb 0f          	cmp    $0xf,%rbx
    c8f6:	48 89 5c 24 08       	mov    %rbx,0x8(%rsp)
    c8fb:	0f 87 af 00 00 00    	ja     c9b0 <_ZN11FirstParser10next_tokenERNSt7__cxx1112basic_stringIcSt11char_traitsIcESaIcEEE+0x190>
    c901:	48 83 fb 01          	cmp    $0x1,%rbx
    c905:	0f 85 3d 01 00 00    	jne    ca48 <_ZN11FirstParser10next_tokenERNSt7__cxx1112basic_stringIcSt11char_traitsIcESaIcEEE+0x228>
    c90b:	41 0f b6 45 00       	movzbl 0x0(%r13),%eax
    c910:	88 44 24 20          	mov    %al,0x20(%rsp)
    c914:	49 8d 44 24 10       	lea    0x10(%r12),%rax
    c919:	48 89 5c 24 18       	mov    %rbx,0x18(%rsp)
    c91e:	c6 04 18 00          	movb   $0x0,(%rax,%rbx,1)
    c922:	49 8d 44 24 10       	lea    0x10(%r12),%rax
    c927:	48 8b 74 24 10       	mov    0x10(%rsp),%rsi
    c92c:	48 8b 7d 00          	mov    0x0(%rbp),%rdi
    c930:	48 39 c6             	cmp    %rax,%rsi
    c933:	0f 84 b7 00 00 00    	je     c9f0 <_ZN11FirstParser10next_tokenERNSt7__cxx1112basic_stringIcSt11char_traitsIcESaIcEEE+0x1d0>
    c939:	48 8d 45 10          	lea    0x10(%rbp),%rax
    c93d:	48 8b 54 24 20       	mov    0x20(%rsp),%rdx
    c942:	48 8b 4c 24 18       	mov    0x18(%rsp),%rcx
    c947:	48 39 c7             	cmp    %rax,%rdi
    c94a:	0f 84 d8 00 00 00    	je     ca28 <_ZN11FirstParser10next_tokenERNSt7__cxx1112basic_stringIcSt11char_traitsIcESaIcEEE+0x208>
    c950:	48 85 ff             	test   %rdi,%rdi
    c953:	48 8b 45 10          	mov    0x10(%rbp),%rax
    c957:	48 89 75 00          	mov    %rsi,0x0(%rbp)
    c95b:	48 89 4d 08          	mov    %rcx,0x8(%rbp)
    c95f:	48 89 55 10          	mov    %rdx,0x10(%rbp)
    c963:	0f 84 cb 00 00 00    	je     ca34 <_ZN11FirstParser10next_tokenERNSt7__cxx1112basic_stringIcSt11char_traitsIcESaIcEEE+0x214>
    c969:	48 89 7c 24 10       	mov    %rdi,0x10(%rsp)
    c96e:	48 89 44 24 20       	mov    %rax,0x20(%rsp)
    c973:	48 c7 44 24 18 00 00 	movq   $0x0,0x18(%rsp)
    c97a:	00 00 
    c97c:	c6 07 00             	movb   $0x0,(%rdi)
    c97f:	49 83 c4 10          	add    $0x10,%r12
    c983:	48 8b 7c 24 10       	mov    0x10(%rsp),%rdi
    c988:	4c 39 e7             	cmp    %r12,%rdi
    c98b:	74 05                	je     c992 <_ZN11FirstParser10next_tokenERNSt7__cxx1112basic_stringIcSt11char_traitsIcESaIcEEE+0x172>
    c98d:	e8 6e 7e ff ff       	callq  4800 <_ZdlPv@plt>
    c992:	b8 01 00 00 00       	mov    $0x1,%eax
    c997:	e9 e8 fe ff ff       	jmpq   c884 <_ZN11FirstParser10next_tokenERNSt7__cxx1112basic_stringIcSt11char_traitsIcESaIcEEE+0x64>
    c99c:	0f 1f 40 00          	nopl   0x0(%rax)
    c9a0:	31 c0                	xor    %eax,%eax
    c9a2:	e9 dd fe ff ff       	jmpq   c884 <_ZN11FirstParser10next_tokenERNSt7__cxx1112basic_stringIcSt11char_traitsIcESaIcEEE+0x64>
    c9a7:	66 0f 1f 84 00 00 00 	nopw   0x0(%rax,%rax,1)
    c9ae:	00 00 
    c9b0:	48 8d 74 24 08       	lea    0x8(%rsp),%rsi
    c9b5:	31 d2                	xor    %edx,%edx
    c9b7:	4c 89 e7             	mov    %r12,%rdi
    c9ba:	e8 71 81 ff ff       	callq  4b30 <_ZNSt7__cxx1112basic_stringIcSt11char_traitsIcESaIcEE9_M_createERmm@plt>
    c9bf:	48 8b 54 24 08       	mov    0x8(%rsp),%rdx
    c9c4:	48 89 44 24 10       	mov    %rax,0x10(%rsp)
    c9c9:	48 89 54 24 20       	mov    %rdx,0x20(%rsp)
    c9ce:	48 89 da             	mov    %rbx,%rdx
    c9d1:	4c 89 ee             	mov    %r13,%rsi
    c9d4:	48 89 c7             	mov    %rax,%rdi
    c9d7:	e8 b4 7d ff ff       	callq  4790 <memcpy@plt>
    c9dc:	48 8b 5c 24 08       	mov    0x8(%rsp),%rbx
    c9e1:	48 8b 44 24 10       	mov    0x10(%rsp),%rax
    c9e6:	e9 2e ff ff ff       	jmpq   c919 <_ZN11FirstParser10next_tokenERNSt7__cxx1112basic_stringIcSt11char_traitsIcESaIcEEE+0xf9>
    c9eb:	0f 1f 44 00 00       	nopl   0x0(%rax,%rax,1)
    c9f0:	48 8b 54 24 18       	mov    0x18(%rsp),%rdx
    c9f5:	48 85 d2             	test   %rdx,%rdx
    c9f8:	74 16                	je     ca10 <_ZN11FirstParser10next_tokenERNSt7__cxx1112basic_stringIcSt11char_traitsIcESaIcEEE+0x1f0>
    c9fa:	48 83 fa 01          	cmp    $0x1,%rdx
    c9fe:	74 68                	je     ca68 <_ZN11FirstParser10next_tokenERNSt7__cxx1112basic_stringIcSt11char_traitsIcESaIcEEE+0x248>
    ca00:	e8 8b 7d ff ff       	callq  4790 <memcpy@plt>
    ca05:	48 8b 54 24 18       	mov    0x18(%rsp),%rdx
    ca0a:	48 8b 7d 00          	mov    0x0(%rbp),%rdi
    ca0e:	66 90                	xchg   %ax,%ax
    ca10:	48 89 55 08          	mov    %rdx,0x8(%rbp)
    ca14:	c6 04 17 00          	movb   $0x0,(%rdi,%rdx,1)
    ca18:	48 8b 7c 24 10       	mov    0x10(%rsp),%rdi
    ca1d:	e9 51 ff ff ff       	jmpq   c973 <_ZN11FirstParser10next_tokenERNSt7__cxx1112basic_stringIcSt11char_traitsIcESaIcEEE+0x153>
    ca22:	66 0f 1f 44 00 00    	nopw   0x0(%rax,%rax,1)
    ca28:	48 89 75 00          	mov    %rsi,0x0(%rbp)
    ca2c:	48 89 4d 08          	mov    %rcx,0x8(%rbp)
    ca30:	48 89 55 10          	mov    %rdx,0x10(%rbp)
    ca34:	49 8d 7c 24 10       	lea    0x10(%r12),%rdi
    ca39:	48 89 7c 24 10       	mov    %rdi,0x10(%rsp)
    ca3e:	e9 30 ff ff ff       	jmpq   c973 <_ZN11FirstParser10next_tokenERNSt7__cxx1112basic_stringIcSt11char_traitsIcESaIcEEE+0x153>
    ca43:	0f 1f 44 00 00       	nopl   0x0(%rax,%rax,1)
    ca48:	48 85 db             	test   %rbx,%rbx
    ca4b:	74 94                	je     c9e1 <_ZN11FirstParser10next_tokenERNSt7__cxx1112basic_stringIcSt11char_traitsIcESaIcEEE+0x1c1>
    ca4d:	49 8d 44 24 10       	lea    0x10(%r12),%rax
    ca52:	e9 77 ff ff ff       	jmpq   c9ce <_ZN11FirstParser10next_tokenERNSt7__cxx1112basic_stringIcSt11char_traitsIcESaIcEEE+0x1ae>
    ca57:	48 8d 3d aa 39 00 00 	lea    0x39aa(%rip),%rdi        # 10408 <_IO_stdin_used+0x8>
    ca5e:	e8 ed 7c ff ff       	callq  4750 <_ZSt19__throw_logic_errorPKc@plt>
    ca63:	0f 1f 44 00 00       	nopl   0x0(%rax,%rax,1)
    ca68:	0f b6 44 24 20       	movzbl 0x20(%rsp),%eax
    ca6d:	88 07                	mov    %al,(%rdi)
    ca6f:	48 8b 54 24 18       	mov    0x18(%rsp),%rdx
    ca74:	48 8b 7d 00          	mov    0x0(%rbp),%rdi
    ca78:	eb 96                	jmp    ca10 <_ZN11FirstParser10next_tokenERNSt7__cxx1112basic_stringIcSt11char_traitsIcESaIcEEE+0x1f0>
    ca7a:	e8 11 7e ff ff       	callq  4890 <__stack_chk_fail@plt>
    ca7f:	90                   	nop

000000000000ca80 <_ZN11FirstParserC1EPKc>:
    ca80:	53                   	push   %rbx
    ca81:	48 89 fb             	mov    %rdi,%rbx
    ca84:	e8 e7 27 00 00       	callq  f270 <_ZN10TextParserC1EPKc>
    ca89:	48 8d 05 20 7e 20 00 	lea    0x207e20(%rip),%rax        # 2148b0 <_ZTV11FirstParser+0x10>
    ca90:	48 89 03             	mov    %rax,(%rbx)
    ca93:	5b                   	pop    %rbx
    ca94:	c3                   	retq   
    ca95:	66 2e 0f 1f 84 00 00 	nopw   %cs:0x0(%rax,%rax,1)
    ca9c:	00 00 00 
    ca9f:	90                   	nop

000000000000caa0 <_ZN9XMLParserD1Ev>:
    caa0:	48 8d 05 59 7e 20 00 	lea    0x207e59(%rip),%rax        # 214900 <_ZTV9XMLParser+0x10>
    caa7:	48 89 07             	mov    %rax,(%rdi)
    caaa:	e9 f1 1b 00 00       	jmpq   e6a0 <_ZN10TextParserD1Ev>
    caaf:	90                   	nop

000000000000cab0 <_ZN9XMLParserD0Ev>:
    cab0:	48 8d 05 49 7e 20 00 	lea    0x207e49(%rip),%rax        # 214900 <_ZTV9XMLParser+0x10>
    cab7:	53                   	push   %rbx
    cab8:	48 89 fb             	mov    %rdi,%rbx
    cabb:	48 89 07             	mov    %rax,(%rdi)
    cabe:	e8 dd 1b 00 00       	callq  e6a0 <_ZN10TextParserD1Ev>
    cac3:	48 89 df             	mov    %rbx,%rdi
    cac6:	be 10 01 00 00       	mov    $0x110,%esi
    cacb:	5b                   	pop    %rbx
    cacc:	e9 8f 7d ff ff       	jmpq   4860 <_ZdlPvm@plt>
    cad1:	90                   	nop
    cad2:	0f 1f 40 00          	nopl   0x0(%rax)
    cad6:	66 2e 0f 1f 84 00 00 	nopw   %cs:0x0(%rax,%rax,1)
    cadd:	00 00 00 

000000000000cae0 <_ZNSt7__cxx1112basic_stringIcSt11char_traitsIcESaIcEE12_M_constructIPKcEEvT_S8_St20forward_iterator_tag.isra.20>:
    cae0:	41 54                	push   %r12
    cae2:	55                   	push   %rbp
    cae3:	49 89 f4             	mov    %rsi,%r12
    cae6:	53                   	push   %rbx
    cae7:	48 89 fd             	mov    %rdi,%rbp
    caea:	48 83 ec 10          	sub    $0x10,%rsp
    caee:	64 48 8b 04 25 28 00 	mov    %fs:0x28,%rax
    caf5:	00 00 
    caf7:	48 89 44 24 08       	mov    %rax,0x8(%rsp)
    cafc:	31 c0                	xor    %eax,%eax
    cafe:	48 85 f6             	test   %rsi,%rsi
    cb01:	75 09                	jne    cb0c <_ZNSt7__cxx1112basic_stringIcSt11char_traitsIcESaIcEE12_M_constructIPKcEEvT_S8_St20forward_iterator_tag.isra.20+0x2c>
    cb03:	48 85 d2             	test   %rdx,%rdx
    cb06:	0f 85 8b 00 00 00    	jne    cb97 <_ZNSt7__cxx1112basic_stringIcSt11char_traitsIcESaIcEE12_M_constructIPKcEEvT_S8_St20forward_iterator_tag.isra.20+0xb7>
    cb0c:	48 89 d3             	mov    %rdx,%rbx
    cb0f:	4c 29 e3             	sub    %r12,%rbx
    cb12:	48 83 fb 0f          	cmp    $0xf,%rbx
    cb16:	48 89 1c 24          	mov    %rbx,(%rsp)
    cb1a:	77 44                	ja     cb60 <_ZNSt7__cxx1112basic_stringIcSt11char_traitsIcESaIcEE12_M_constructIPKcEEvT_S8_St20forward_iterator_tag.isra.20+0x80>
    cb1c:	48 8b 55 00          	mov    0x0(%rbp),%rdx
    cb20:	48 83 fb 01          	cmp    $0x1,%rbx
    cb24:	48 89 d0             	mov    %rdx,%rax
    cb27:	75 67                	jne    cb90 <_ZNSt7__cxx1112basic_stringIcSt11char_traitsIcESaIcEE12_M_constructIPKcEEvT_S8_St20forward_iterator_tag.isra.20+0xb0>
    cb29:	41 0f b6 04 24       	movzbl (%r12),%eax
    cb2e:	88 02                	mov    %al,(%rdx)
    cb30:	48 8b 55 00          	mov    0x0(%rbp),%rdx
    cb34:	48 8b 04 24          	mov    (%rsp),%rax
    cb38:	48 89 45 08          	mov    %rax,0x8(%rbp)
    cb3c:	c6 04 02 00          	movb   $0x0,(%rdx,%rax,1)
    cb40:	48 8b 44 24 08       	mov    0x8(%rsp),%rax
    cb45:	64 48 33 04 25 28 00 	xor    %fs:0x28,%rax
    cb4c:	00 00 
    cb4e:	75 53                	jne    cba3 <_ZNSt7__cxx1112basic_stringIcSt11char_traitsIcESaIcEE12_M_constructIPKcEEvT_S8_St20forward_iterator_tag.isra.20+0xc3>
    cb50:	48 83 c4 10          	add    $0x10,%rsp
    cb54:	5b                   	pop    %rbx
    cb55:	5d                   	pop    %rbp
    cb56:	41 5c                	pop    %r12
    cb58:	c3                   	retq   
    cb59:	0f 1f 80 00 00 00 00 	nopl   0x0(%rax)
    cb60:	31 d2                	xor    %edx,%edx
    cb62:	48 89 e6             	mov    %rsp,%rsi
    cb65:	48 89 ef             	mov    %rbp,%rdi
    cb68:	e8 c3 7f ff ff       	callq  4b30 <_ZNSt7__cxx1112basic_stringIcSt11char_traitsIcESaIcEE9_M_createERmm@plt>
    cb6d:	48 8b 14 24          	mov    (%rsp),%rdx
    cb71:	48 89 45 00          	mov    %rax,0x0(%rbp)
    cb75:	48 89 55 10          	mov    %rdx,0x10(%rbp)
    cb79:	48 89 da             	mov    %rbx,%rdx
    cb7c:	4c 89 e6             	mov    %r12,%rsi
    cb7f:	48 89 c7             	mov    %rax,%rdi
    cb82:	e8 09 7c ff ff       	callq  4790 <memcpy@plt>
    cb87:	48 8b 55 00          	mov    0x0(%rbp),%rdx
    cb8b:	eb a7                	jmp    cb34 <_ZNSt7__cxx1112basic_stringIcSt11char_traitsIcESaIcEE12_M_constructIPKcEEvT_S8_St20forward_iterator_tag.isra.20+0x54>
    cb8d:	0f 1f 00             	nopl   (%rax)
    cb90:	48 85 db             	test   %rbx,%rbx
    cb93:	74 9f                	je     cb34 <_ZNSt7__cxx1112basic_stringIcSt11char_traitsIcESaIcEE12_M_constructIPKcEEvT_S8_St20forward_iterator_tag.isra.20+0x54>
    cb95:	eb e2                	jmp    cb79 <_ZNSt7__cxx1112basic_stringIcSt11char_traitsIcESaIcEE12_M_constructIPKcEEvT_S8_St20forward_iterator_tag.isra.20+0x99>
    cb97:	48 8d 3d 6a 38 00 00 	lea    0x386a(%rip),%rdi        # 10408 <_IO_stdin_used+0x8>
    cb9e:	e8 ad 7b ff ff       	callq  4750 <_ZSt19__throw_logic_errorPKc@plt>
    cba3:	e8 e8 7c ff ff       	callq  4890 <__stack_chk_fail@plt>
    cba8:	0f 1f 84 00 00 00 00 	nopl   0x0(%rax,%rax,1)
    cbaf:	00 

000000000000cbb0 <_ZN9XMLParserC1EPKc>:
    cbb0:	53                   	push   %rbx
    cbb1:	48 89 fb             	mov    %rdi,%rbx
    cbb4:	e8 b7 26 00 00       	callq  f270 <_ZN10TextParserC1EPKc>
    cbb9:	48 8d 05 40 7d 20 00 	lea    0x207d40(%rip),%rax        # 214900 <_ZTV9XMLParser+0x10>
    cbc0:	48 c7 83 f4 00 00 00 	movq   $0x0,0xf4(%rbx)
    cbc7:	00 00 00 00 
    cbcb:	48 c7 83 fc 00 00 00 	movq   $0x0,0xfc(%rbx)
    cbd2:	00 00 00 00 
    cbd6:	c7 83 04 01 00 00 00 	movl   $0x0,0x104(%rbx)
    cbdd:	00 00 00 
    cbe0:	c6 83 08 01 00 00 00 	movb   $0x0,0x108(%rbx)
    cbe7:	48 89 03             	mov    %rax,(%rbx)
    cbea:	5b                   	pop    %rbx
    cbeb:	c3                   	retq   
    cbec:	0f 1f 40 00          	nopl   0x0(%rax)

000000000000cbf0 <_ZN9XMLParserC1EPK6w_chari>:
    cbf0:	53                   	push   %rbx
    cbf1:	48 89 fb             	mov    %rdi,%rbx
    cbf4:	e8 47 1b 00 00       	callq  e740 <_ZN10TextParserC1EPK6w_chari>
    cbf9:	48 8d 05 00 7d 20 00 	lea    0x207d00(%rip),%rax        # 214900 <_ZTV9XMLParser+0x10>
    cc00:	48 c7 83 f4 00 00 00 	movq   $0x0,0xf4(%rbx)
    cc07:	00 00 00 00 
    cc0b:	48 c7 83 fc 00 00 00 	movq   $0x0,0xfc(%rbx)
    cc12:	00 00 00 00 
    cc16:	c7 83 04 01 00 00 00 	movl   $0x0,0x104(%rbx)
    cc1d:	00 00 00 
    cc20:	c6 83 08 01 00 00 00 	movb   $0x0,0x108(%rbx)
    cc27:	48 89 03             	mov    %rax,(%rbx)
    cc2a:	5b                   	pop    %rbx
    cc2b:	c3                   	retq   
    cc2c:	0f 1f 40 00          	nopl   0x0(%rax)

000000000000cc30 <_ZN9XMLParser12look_patternEPA2_PKcji>:
    cc30:	41 57                	push   %r15
    cc32:	41 56                	push   %r14
    cc34:	41 55                	push   %r13
    cc36:	41 54                	push   %r12
    cc38:	55                   	push   %rbp
    cc39:	53                   	push   %rbx
    cc3a:	bd ff ff ff ff       	mov    $0xffffffff,%ebp
    cc3f:	48 83 ec 18          	sub    $0x18,%rsp
    cc43:	85 d2                	test   %edx,%edx
    cc45:	74 71                	je     ccb8 <_ZN9XMLParser12look_patternEPA2_PKcji+0x88>
    cc47:	48 63 87 cc 00 00 00 	movslq 0xcc(%rdi),%rax
    cc4e:	4c 8b b7 d0 00 00 00 	mov    0xd0(%rdi),%r14
    cc55:	48 63 c9             	movslq %ecx,%rcx
    cc58:	4c 8d 24 ce          	lea    (%rsi,%rcx,8),%r12
    cc5c:	89 54 24 0c          	mov    %edx,0xc(%rsp)
    cc60:	31 ed                	xor    %ebp,%ebp
    cc62:	48 83 c0 01          	add    $0x1,%rax
    cc66:	48 c1 e0 05          	shl    $0x5,%rax
    cc6a:	4c 03 34 07          	add    (%rdi,%rax,1),%r14
    cc6e:	66 90                	xchg   %ax,%ax
    cc70:	4d 8b 3c 24          	mov    (%r12),%r15
    cc74:	41 0f be 1f          	movsbl (%r15),%ebx
    cc78:	84 db                	test   %bl,%bl
    cc7a:	74 3c                	je     ccb8 <_ZN9XMLParser12look_patternEPA2_PKcji+0x88>
    cc7c:	4d 89 f5             	mov    %r14,%r13
    cc7f:	eb 17                	jmp    cc98 <_ZN9XMLParser12look_patternEPA2_PKcji+0x68>
    cc81:	0f 1f 80 00 00 00 00 	nopl   0x0(%rax)
    cc88:	49 83 c7 01          	add    $0x1,%r15
    cc8c:	41 0f be 1f          	movsbl (%r15),%ebx
    cc90:	49 83 c5 01          	add    $0x1,%r13
    cc94:	84 db                	test   %bl,%bl
    cc96:	74 20                	je     ccb8 <_ZN9XMLParser12look_patternEPA2_PKcji+0x88>
    cc98:	41 0f be 7d 00       	movsbl 0x0(%r13),%edi
    cc9d:	e8 5e 7d ff ff       	callq  4a00 <tolower@plt>
    cca2:	39 d8                	cmp    %ebx,%eax
    cca4:	74 e2                	je     cc88 <_ZN9XMLParser12look_patternEPA2_PKcji+0x58>
    cca6:	83 c5 01             	add    $0x1,%ebp
    cca9:	49 83 c4 10          	add    $0x10,%r12
    ccad:	39 6c 24 0c          	cmp    %ebp,0xc(%rsp)
    ccb1:	75 bd                	jne    cc70 <_ZN9XMLParser12look_patternEPA2_PKcji+0x40>
    ccb3:	bd ff ff ff ff       	mov    $0xffffffff,%ebp
    ccb8:	48 83 c4 18          	add    $0x18,%rsp
    ccbc:	89 e8                	mov    %ebp,%eax
    ccbe:	5b                   	pop    %rbx
    ccbf:	5d                   	pop    %rbp
    ccc0:	41 5c                	pop    %r12
    ccc2:	41 5d                	pop    %r13
    ccc4:	41 5e                	pop    %r14
    ccc6:	41 5f                	pop    %r15
    ccc8:	c3                   	retq   
    ccc9:	90                   	nop
    ccca:	66 0f 1f 44 00 00    	nopw   0x0(%rax,%rax,1)

000000000000ccd0 <_ZN9XMLParser10next_tokenEPA2_PKcjS3_jS3_jRNSt7__cxx1112basic_stringIcSt11char_traitsIcESaIcEEE>:
    ccd0:	41 57                	push   %r15
    ccd2:	41 56                	push   %r14
    ccd4:	49 89 ff             	mov    %rdi,%r15
    ccd7:	41 55                	push   %r13
    ccd9:	41 54                	push   %r12
    ccdb:	49 89 f4             	mov    %rsi,%r12
    ccde:	55                   	push   %rbp
    ccdf:	53                   	push   %rbx
    cce0:	48 8d af d0 00 00 00 	lea    0xd0(%rdi),%rbp
    cce7:	48 8d 1d ee 49 00 00 	lea    0x49ee(%rip),%rbx        # 116dc <_ZTS11FirstParser+0x4c>
    ccee:	48 83 ec 28          	sub    $0x28,%rsp
    ccf2:	48 8b 44 24 68       	mov    0x68(%rsp),%rax
    ccf7:	89 54 24 10          	mov    %edx,0x10(%rsp)
    ccfb:	48 89 4c 24 08       	mov    %rcx,0x8(%rsp)
    cd00:	44 89 44 24 14       	mov    %r8d,0x14(%rsp)
    cd05:	4c 89 4c 24 18       	mov    %r9,0x18(%rsp)
    cd0a:	48 c7 40 08 00 00 00 	movq   $0x0,0x8(%rax)
    cd11:	00 
    cd12:	48 8b 00             	mov    (%rax),%rax
    cd15:	c6 00 00             	movb   $0x0,(%rax)
    cd18:	0f 1f 84 00 00 00 00 	nopl   0x0(%rax,%rax,1)
    cd1f:	00 
    cd20:	4d 63 87 cc 00 00 00 	movslq 0xcc(%r15),%r8
    cd27:	49 83 c0 01          	add    $0x1,%r8
    cd2b:	49 c1 e0 05          	shl    $0x5,%r8
    cd2f:	41 83 bf e0 00 00 00 	cmpl   $0x5,0xe0(%r15)
    cd36:	05 
    cd37:	4f 8d 34 07          	lea    (%r15,%r8,1),%r14
    cd3b:	77 51                	ja     cd8e <_ZN9XMLParser10next_tokenEPA2_PKcjS3_jS3_jRNSt7__cxx1112basic_stringIcSt11char_traitsIcESaIcEEE+0xbe>
    cd3d:	41 8b 87 e0 00 00 00 	mov    0xe0(%r15),%eax
    cd44:	48 63 04 83          	movslq (%rbx,%rax,4),%rax
    cd48:	48 01 d8             	add    %rbx,%rax
    cd4b:	ff e0                	jmpq   *%rax
    cd4d:	0f 1f 00             	nopl   (%rax)
    cd50:	41 c7 87 00 01 00 00 	movl   $0x5,0x100(%r15)
    cd57:	05 00 00 00 
    cd5b:	49 8b b7 d0 00 00 00 	mov    0xd0(%r15),%rsi
    cd62:	49 03 36             	add    (%r14),%rsi
    cd65:	41 0f b6 87 08 01 00 	movzbl 0x108(%r15),%eax
    cd6c:	00 
    cd6d:	38 06                	cmp    %al,(%rsi)
    cd6f:	0f 85 eb 01 00 00    	jne    cf60 <_ZN9XMLParser10next_tokenEPA2_PKcjS3_jS3_jRNSt7__cxx1112basic_stringIcSt11char_traitsIcESaIcEEE+0x290>
    cd75:	41 83 bf 04 01 00 00 	cmpl   $0x2,0x104(%r15)
    cd7c:	02 
    cd7d:	41 c7 87 e0 00 00 00 	movl   $0x2,0xe0(%r15)
    cd84:	02 00 00 00 
    cd88:	0f 84 aa 04 00 00    	je     d238 <_ZN9XMLParser10next_tokenEPA2_PKcjS3_jS3_jRNSt7__cxx1112basic_stringIcSt11char_traitsIcESaIcEEE+0x568>
    cd8e:	49 8b 36             	mov    (%r14),%rsi
    cd91:	48 89 ea             	mov    %rbp,%rdx
    cd94:	4c 89 ff             	mov    %r15,%rdi
    cd97:	e8 d4 1c 00 00       	callq  ea70 <_ZN10TextParser9next_charEPKcPm>
    cd9c:	85 c0                	test   %eax,%eax
    cd9e:	74 80                	je     cd20 <_ZN9XMLParser10next_tokenEPA2_PKcjS3_jS3_jRNSt7__cxx1112basic_stringIcSt11char_traitsIcESaIcEEE+0x50>
    cda0:	31 c0                	xor    %eax,%eax
    cda2:	48 83 c4 28          	add    $0x28,%rsp
    cda6:	5b                   	pop    %rbx
    cda7:	5d                   	pop    %rbp
    cda8:	41 5c                	pop    %r12
    cdaa:	41 5d                	pop    %r13
    cdac:	41 5e                	pop    %r14
    cdae:	41 5f                	pop    %r15
    cdb0:	c3                   	retq   
    cdb1:	0f 1f 80 00 00 00 00 	nopl   0x0(%rax)
    cdb8:	49 8b 36             	mov    (%r14),%rsi
    cdbb:	4d 8b af d0 00 00 00 	mov    0xd0(%r15),%r13
    cdc2:	42 0f be 3c 2e       	movsbl (%rsi,%r13,1),%edi
    cdc7:	48 89 34 24          	mov    %rsi,(%rsp)
    cdcb:	e8 30 7c ff ff       	callq  4a00 <tolower@plt>
    cdd0:	83 f8 3b             	cmp    $0x3b,%eax
    cdd3:	48 8b 34 24          	mov    (%rsp),%rsi
    cdd7:	75 b8                	jne    cd91 <_ZN9XMLParser10next_tokenEPA2_PKcjS3_jS3_jRNSt7__cxx1112basic_stringIcSt11char_traitsIcESaIcEEE+0xc1>
    cdd9:	41 8b 87 00 01 00 00 	mov    0x100(%r15),%eax
    cde0:	49 8d 55 ff          	lea    -0x1(%r13),%rdx
    cde4:	49 89 97 d0 00 00 00 	mov    %rdx,0xd0(%r15)
    cdeb:	41 89 87 e0 00 00 00 	mov    %eax,0xe0(%r15)
    cdf2:	eb 9a                	jmp    cd8e <_ZN9XMLParser10next_tokenEPA2_PKcjS3_jS3_jRNSt7__cxx1112basic_stringIcSt11char_traitsIcESaIcEEE+0xbe>
    cdf4:	0f 1f 40 00          	nopl   0x0(%rax)
    cdf8:	41 8b 87 04 01 00 00 	mov    0x104(%r15),%eax
    cdff:	83 f8 01             	cmp    $0x1,%eax
    ce02:	0f 84 a0 02 00 00    	je     d0a8 <_ZN9XMLParser10next_tokenEPA2_PKcjS3_jS3_jRNSt7__cxx1112basic_stringIcSt11char_traitsIcESaIcEEE+0x3d8>
    ce08:	85 c0                	test   %eax,%eax
    ce0a:	7e 14                	jle    ce20 <_ZN9XMLParser10next_tokenEPA2_PKcjS3_jS3_jRNSt7__cxx1112basic_stringIcSt11char_traitsIcESaIcEEE+0x150>
    ce0c:	49 8b 16             	mov    (%r14),%rdx
    ce0f:	49 8b 87 d0 00 00 00 	mov    0xd0(%r15),%rax
    ce16:	80 3c 02 3e          	cmpb   $0x3e,(%rdx,%rax,1)
    ce1a:	0f 84 38 02 00 00    	je     d058 <_ZN9XMLParser10next_tokenEPA2_PKcjS3_jS3_jRNSt7__cxx1112basic_stringIcSt11char_traitsIcESaIcEEE+0x388>
    ce20:	8b 54 24 10          	mov    0x10(%rsp),%edx
    ce24:	b9 01 00 00 00       	mov    $0x1,%ecx
    ce29:	4c 89 e6             	mov    %r12,%rsi
    ce2c:	4c 89 ff             	mov    %r15,%rdi
    ce2f:	e8 fc fd ff ff       	callq  cc30 <_ZN9XMLParser12look_patternEPA2_PKcji>
    ce34:	49 63 97 f4 00 00 00 	movslq 0xf4(%r15),%rdx
    ce3b:	48 c1 e2 04          	shl    $0x4,%rdx
    ce3f:	83 f8 ff             	cmp    $0xffffffff,%eax
    ce42:	4d 8d 2c 14          	lea    (%r12,%rdx,1),%r13
    ce46:	0f 84 64 01 00 00    	je     cfb0 <_ZN9XMLParser10next_tokenEPA2_PKcjS3_jS3_jRNSt7__cxx1112basic_stringIcSt11char_traitsIcESaIcEEE+0x2e0>
    ce4c:	48 98                	cltq   
    ce4e:	49 8b 75 08          	mov    0x8(%r13),%rsi
    ce52:	48 c1 e0 04          	shl    $0x4,%rax
    ce56:	49 8b 7c 04 08       	mov    0x8(%r12,%rax,1),%rdi
    ce5b:	e8 70 7b ff ff       	callq  49d0 <strcmp@plt>
    ce60:	85 c0                	test   %eax,%eax
    ce62:	0f 85 48 01 00 00    	jne    cfb0 <_ZN9XMLParser10next_tokenEPA2_PKcjS3_jS3_jRNSt7__cxx1112basic_stringIcSt11char_traitsIcESaIcEEE+0x2e0>
    ce68:	41 c7 87 e0 00 00 00 	movl   $0x0,0xe0(%r15)
    ce6f:	00 00 00 00 
    ce73:	49 8b 7d 08          	mov    0x8(%r13),%rdi
    ce77:	e8 74 78 ff ff       	callq  46f0 <strlen@plt>
    ce7c:	49 8b 97 d0 00 00 00 	mov    0xd0(%r15),%rdx
    ce83:	48 8d 44 10 ff       	lea    -0x1(%rax,%rdx,1),%rax
    ce88:	49 89 87 d0 00 00 00 	mov    %rax,0xd0(%r15)
    ce8f:	49 8b 36             	mov    (%r14),%rsi
    ce92:	e9 fa fe ff ff       	jmpq   cd91 <_ZN9XMLParser10next_tokenEPA2_PKcjS3_jS3_jRNSt7__cxx1112basic_stringIcSt11char_traitsIcESaIcEEE+0xc1>
    ce97:	66 0f 1f 84 00 00 00 	nopw   0x0(%rax,%rax,1)
    ce9e:	00 00 
    cea0:	8b 54 24 10          	mov    0x10(%rsp),%edx
    cea4:	31 c9                	xor    %ecx,%ecx
    cea6:	41 c7 87 00 01 00 00 	movl   $0x0,0x100(%r15)
    cead:	00 00 00 00 
    ceb1:	4c 89 e6             	mov    %r12,%rsi
    ceb4:	4c 89 ff             	mov    %r15,%rdi
    ceb7:	e8 74 fd ff ff       	callq  cc30 <_ZN9XMLParser12look_patternEPA2_PKcji>
    cebc:	83 f8 ff             	cmp    $0xffffffff,%eax
    cebf:	41 89 87 f4 00 00 00 	mov    %eax,0xf4(%r15)
    cec6:	0f 84 3c 01 00 00    	je     d008 <_ZN9XMLParser10next_tokenEPA2_PKcjS3_jS3_jRNSt7__cxx1112basic_stringIcSt11char_traitsIcESaIcEEE+0x338>
    cecc:	8b 54 24 14          	mov    0x14(%rsp),%edx
    ced0:	48 8b 74 24 08       	mov    0x8(%rsp),%rsi
    ced5:	31 c9                	xor    %ecx,%ecx
    ced7:	41 c7 87 04 01 00 00 	movl   $0x0,0x104(%r15)
    cede:	00 00 00 00 
    cee2:	4c 89 ff             	mov    %r15,%rdi
    cee5:	e8 46 fd ff ff       	callq  cc30 <_ZN9XMLParser12look_patternEPA2_PKcji>
    ceea:	83 f8 ff             	cmp    $0xffffffff,%eax
    ceed:	41 89 87 f8 00 00 00 	mov    %eax,0xf8(%r15)
    cef4:	74 0b                	je     cf01 <_ZN9XMLParser10next_tokenEPA2_PKcjS3_jS3_jRNSt7__cxx1112basic_stringIcSt11char_traitsIcESaIcEEE+0x231>
    cef6:	41 c7 87 04 01 00 00 	movl   $0x1,0x104(%r15)
    cefd:	01 00 00 00 
    cf01:	41 c7 87 e0 00 00 00 	movl   $0x2,0xe0(%r15)
    cf08:	02 00 00 00 
    cf0c:	49 8b 36             	mov    (%r14),%rsi
    cf0f:	e9 7d fe ff ff       	jmpq   cd91 <_ZN9XMLParser10next_tokenEPA2_PKcjS3_jS3_jRNSt7__cxx1112basic_stringIcSt11char_traitsIcESaIcEEE+0xc1>
    cf14:	0f 1f 40 00          	nopl   0x0(%rax)
    cf18:	49 8b b7 d0 00 00 00 	mov    0xd0(%r15),%rsi
    cf1f:	49 03 36             	add    (%r14),%rsi
    cf22:	4c 89 ff             	mov    %r15,%rdi
    cf25:	e8 f6 1a 00 00       	callq  ea20 <_ZN10TextParser10get_latin1EPKc>
    cf2a:	48 85 c0             	test   %rax,%rax
    cf2d:	0f 84 d5 01 00 00    	je     d108 <_ZN9XMLParser10next_tokenEPA2_PKcjS3_jS3_jRNSt7__cxx1112basic_stringIcSt11char_traitsIcESaIcEEE+0x438>
    cf33:	48 89 c7             	mov    %rax,%rdi
    cf36:	e8 b5 77 ff ff       	callq  46f0 <strlen@plt>
    cf3b:	49 01 87 d0 00 00 00 	add    %rax,0xd0(%r15)
    cf42:	49 63 87 cc 00 00 00 	movslq 0xcc(%r15),%rax
    cf49:	48 83 c0 01          	add    $0x1,%rax
    cf4d:	48 c1 e0 05          	shl    $0x5,%rax
    cf51:	49 8b 34 07          	mov    (%r15,%rax,1),%rsi
    cf55:	e9 37 fe ff ff       	jmpq   cd91 <_ZN9XMLParser10next_tokenEPA2_PKcjS3_jS3_jRNSt7__cxx1112basic_stringIcSt11char_traitsIcESaIcEEE+0xc1>
    cf5a:	66 0f 1f 44 00 00    	nopw   0x0(%rax,%rax,1)
    cf60:	4c 89 ff             	mov    %r15,%rdi
    cf63:	e8 98 18 00 00       	callq  e800 <_ZN10TextParser11is_wordcharEPKc>
    cf68:	85 c0                	test   %eax,%eax
    cf6a:	49 8b 97 d0 00 00 00 	mov    0xd0(%r15),%rdx
    cf71:	49 63 87 cc 00 00 00 	movslq 0xcc(%r15),%rax
    cf78:	0f 85 f2 00 00 00    	jne    d070 <_ZN9XMLParser10next_tokenEPA2_PKcjS3_jS3_jRNSt7__cxx1112basic_stringIcSt11char_traitsIcESaIcEEE+0x3a0>
    cf7e:	48 83 c0 01          	add    $0x1,%rax
    cf82:	48 c1 e0 05          	shl    $0x5,%rax
    cf86:	4c 01 f8             	add    %r15,%rax
    cf89:	48 8b 30             	mov    (%rax),%rsi
    cf8c:	80 3c 16 26          	cmpb   $0x26,(%rsi,%rdx,1)
    cf90:	0f 85 fb fd ff ff    	jne    cd91 <_ZN9XMLParser10next_tokenEPA2_PKcjS3_jS3_jRNSt7__cxx1112basic_stringIcSt11char_traitsIcESaIcEEE+0xc1>
    cf96:	41 c7 87 e0 00 00 00 	movl   $0x3,0xe0(%r15)
    cf9d:	03 00 00 00 
    cfa1:	48 8b 30             	mov    (%rax),%rsi
    cfa4:	e9 e8 fd ff ff       	jmpq   cd91 <_ZN9XMLParser10next_tokenEPA2_PKcjS3_jS3_jRNSt7__cxx1112basic_stringIcSt11char_traitsIcESaIcEEE+0xc1>
    cfa9:	0f 1f 80 00 00 00 00 	nopl   0x0(%rax)
    cfb0:	49 8b 75 00          	mov    0x0(%r13),%rsi
    cfb4:	48 8d 3d e3 46 00 00 	lea    0x46e3(%rip),%rdi        # 1169e <_ZTS11FirstParser+0xe>
    cfbb:	b9 02 00 00 00       	mov    $0x2,%ecx
    cfc0:	f3 a6                	repz cmpsb %es:(%rdi),%ds:(%rsi)
    cfc2:	49 8b 36             	mov    (%r14),%rsi
    cfc5:	0f 97 c0             	seta   %al
    cfc8:	1c 00                	sbb    $0x0,%al
    cfca:	84 c0                	test   %al,%al
    cfcc:	0f 85 bf fd ff ff    	jne    cd91 <_ZN9XMLParser10next_tokenEPA2_PKcjS3_jS3_jRNSt7__cxx1112basic_stringIcSt11char_traitsIcESaIcEEE+0xc1>
    cfd2:	49 8b 87 d0 00 00 00 	mov    0xd0(%r15),%rax
    cfd9:	0f b6 04 06          	movzbl (%rsi,%rax,1),%eax
    cfdd:	3c 22                	cmp    $0x22,%al
    cfdf:	74 08                	je     cfe9 <_ZN9XMLParser10next_tokenEPA2_PKcjS3_jS3_jRNSt7__cxx1112basic_stringIcSt11char_traitsIcESaIcEEE+0x319>
    cfe1:	3c 27                	cmp    $0x27,%al
    cfe3:	0f 85 a8 fd ff ff    	jne    cd91 <_ZN9XMLParser10next_tokenEPA2_PKcjS3_jS3_jRNSt7__cxx1112basic_stringIcSt11char_traitsIcESaIcEEE+0xc1>
    cfe9:	41 88 87 08 01 00 00 	mov    %al,0x108(%r15)
    cff0:	41 c7 87 e0 00 00 00 	movl   $0x5,0xe0(%r15)
    cff7:	05 00 00 00 
    cffb:	49 8b 36             	mov    (%r14),%rsi
    cffe:	e9 8e fd ff ff       	jmpq   cd91 <_ZN9XMLParser10next_tokenEPA2_PKcjS3_jS3_jRNSt7__cxx1112basic_stringIcSt11char_traitsIcESaIcEEE+0xc1>
    d003:	0f 1f 44 00 00       	nopl   0x0(%rax,%rax,1)
    d008:	49 8b b7 d0 00 00 00 	mov    0xd0(%r15),%rsi
    d00f:	49 03 36             	add    (%r14),%rsi
    d012:	4c 89 ff             	mov    %r15,%rdi
    d015:	e8 e6 17 00 00       	callq  e800 <_ZN10TextParser11is_wordcharEPKc>
    d01a:	85 c0                	test   %eax,%eax
    d01c:	0f 84 2e 02 00 00    	je     d250 <_ZN9XMLParser10next_tokenEPA2_PKcjS3_jS3_jRNSt7__cxx1112basic_stringIcSt11char_traitsIcESaIcEEE+0x580>
    d022:	49 8b 87 d0 00 00 00 	mov    0xd0(%r15),%rax
    d029:	41 c7 87 e0 00 00 00 	movl   $0x1,0xe0(%r15)
    d030:	01 00 00 00 
    d034:	49 89 87 d8 00 00 00 	mov    %rax,0xd8(%r15)
    d03b:	49 63 87 cc 00 00 00 	movslq 0xcc(%r15),%rax
    d042:	48 83 c0 01          	add    $0x1,%rax
    d046:	48 c1 e0 05          	shl    $0x5,%rax
    d04a:	49 8b 34 07          	mov    (%r15,%rax,1),%rsi
    d04e:	e9 3e fd ff ff       	jmpq   cd91 <_ZN9XMLParser10next_tokenEPA2_PKcjS3_jS3_jRNSt7__cxx1112basic_stringIcSt11char_traitsIcESaIcEEE+0xc1>
    d053:	0f 1f 44 00 00       	nopl   0x0(%rax,%rax,1)
    d058:	41 c7 87 e0 00 00 00 	movl   $0x0,0xe0(%r15)
    d05f:	00 00 00 00 
    d063:	49 8b 36             	mov    (%r14),%rsi
    d066:	e9 26 fd ff ff       	jmpq   cd91 <_ZN9XMLParser10next_tokenEPA2_PKcjS3_jS3_jRNSt7__cxx1112basic_stringIcSt11char_traitsIcESaIcEEE+0xc1>
    d06b:	0f 1f 44 00 00       	nopl   0x0(%rax,%rax,1)
    d070:	48 83 c0 01          	add    $0x1,%rax
    d074:	48 c1 e0 05          	shl    $0x5,%rax
    d078:	4c 01 f8             	add    %r15,%rax
    d07b:	41 83 bf 04 01 00 00 	cmpl   $0x2,0x104(%r15)
    d082:	02 
    d083:	0f 85 00 ff ff ff    	jne    cf89 <_ZN9XMLParser10next_tokenEPA2_PKcjS3_jS3_jRNSt7__cxx1112basic_stringIcSt11char_traitsIcESaIcEEE+0x2b9>
    d089:	41 c7 87 e0 00 00 00 	movl   $0x1,0xe0(%r15)
    d090:	01 00 00 00 
    d094:	49 89 97 d8 00 00 00 	mov    %rdx,0xd8(%r15)
    d09b:	48 8b 30             	mov    (%rax),%rsi
    d09e:	e9 ee fc ff ff       	jmpq   cd91 <_ZN9XMLParser10next_tokenEPA2_PKcjS3_jS3_jRNSt7__cxx1112basic_stringIcSt11char_traitsIcESaIcEEE+0xc1>
    d0a3:	0f 1f 44 00 00       	nopl   0x0(%rax,%rax,1)
    d0a8:	4c 8b 6c 24 08       	mov    0x8(%rsp),%r13
    d0ad:	8b 54 24 14          	mov    0x14(%rsp),%edx
    d0b1:	b9 01 00 00 00       	mov    $0x1,%ecx
    d0b6:	4c 89 ff             	mov    %r15,%rdi
    d0b9:	4c 89 ee             	mov    %r13,%rsi
    d0bc:	e8 6f fb ff ff       	callq  cc30 <_ZN9XMLParser12look_patternEPA2_PKcji>
    d0c1:	83 f8 ff             	cmp    $0xffffffff,%eax
    d0c4:	0f 84 42 fd ff ff    	je     ce0c <_ZN9XMLParser10next_tokenEPA2_PKcjS3_jS3_jRNSt7__cxx1112basic_stringIcSt11char_traitsIcESaIcEEE+0x13c>
    d0ca:	49 63 97 f8 00 00 00 	movslq 0xf8(%r15),%rdx
    d0d1:	48 98                	cltq   
    d0d3:	48 c1 e0 04          	shl    $0x4,%rax
    d0d7:	49 8b 7c 05 00       	mov    0x0(%r13,%rax,1),%rdi
    d0dc:	48 c1 e2 04          	shl    $0x4,%rdx
    d0e0:	49 8b 74 15 00       	mov    0x0(%r13,%rdx,1),%rsi
    d0e5:	e8 e6 78 ff ff       	callq  49d0 <strcmp@plt>
    d0ea:	85 c0                	test   %eax,%eax
    d0ec:	0f 85 1a fd ff ff    	jne    ce0c <_ZN9XMLParser10next_tokenEPA2_PKcjS3_jS3_jRNSt7__cxx1112basic_stringIcSt11char_traitsIcESaIcEEE+0x13c>
    d0f2:	41 c7 87 04 01 00 00 	movl   $0x2,0x104(%r15)
    d0f9:	02 00 00 00 
    d0fd:	49 8b 36             	mov    (%r14),%rsi
    d100:	e9 8c fc ff ff       	jmpq   cd91 <_ZN9XMLParser10next_tokenEPA2_PKcjS3_jS3_jRNSt7__cxx1112basic_stringIcSt11char_traitsIcESaIcEEE+0xc1>
    d105:	0f 1f 00             	nopl   (%rax)
    d108:	48 8d 35 45 49 00 00 	lea    0x4945(%rip),%rsi        # 11a54 <_ZTS9XMLParser+0x35c>
    d10f:	4c 89 ff             	mov    %r15,%rdi
    d112:	e8 e9 16 00 00       	callq  e800 <_ZN10TextParser11is_wordcharEPKc>
    d117:	85 c0                	test   %eax,%eax
    d119:	75 25                	jne    d140 <_ZN9XMLParser10next_tokenEPA2_PKcjS3_jS3_jRNSt7__cxx1112basic_stringIcSt11char_traitsIcESaIcEEE+0x470>
    d11b:	41 8b 97 e4 00 00 00 	mov    0xe4(%r15),%edx
    d122:	85 d2                	test   %edx,%edx
    d124:	0f 84 c6 00 00 00    	je     d1f0 <_ZN9XMLParser10next_tokenEPA2_PKcjS3_jS3_jRNSt7__cxx1112basic_stringIcSt11char_traitsIcESaIcEEE+0x520>
    d12a:	48 8d 35 b7 40 00 00 	lea    0x40b7(%rip),%rsi        # 111e8 <_IO_stdin_used+0xde8>
    d131:	4c 89 ff             	mov    %r15,%rdi
    d134:	e8 c7 16 00 00       	callq  e800 <_ZN10TextParser11is_wordcharEPKc>
    d139:	85 c0                	test   %eax,%eax
    d13b:	74 3c                	je     d179 <_ZN9XMLParser10next_tokenEPA2_PKcjS3_jS3_jRNSt7__cxx1112basic_stringIcSt11char_traitsIcESaIcEEE+0x4a9>
    d13d:	0f 1f 00             	nopl   (%rax)
    d140:	49 63 87 cc 00 00 00 	movslq 0xcc(%r15),%rax
    d147:	49 8b 97 d0 00 00 00 	mov    0xd0(%r15),%rdx
    d14e:	48 8d 3d 86 40 00 00 	lea    0x4086(%rip),%rdi        # 111db <_IO_stdin_used+0xddb>
    d155:	b9 06 00 00 00       	mov    $0x6,%ecx
    d15a:	48 83 c0 01          	add    $0x1,%rax
    d15e:	48 c1 e0 05          	shl    $0x5,%rax
    d162:	4d 8b 04 07          	mov    (%r15,%rax,1),%r8
    d166:	49 8d 34 10          	lea    (%r8,%rdx,1),%rsi
    d16a:	f3 a6                	repz cmpsb %es:(%rdi),%ds:(%rsi)
    d16c:	0f 97 c0             	seta   %al
    d16f:	1c 00                	sbb    $0x0,%al
    d171:	84 c0                	test   %al,%al
    d173:	0f 84 6e 01 00 00    	je     d2e7 <_ZN9XMLParser10next_tokenEPA2_PKcjS3_jS3_jRNSt7__cxx1112basic_stringIcSt11char_traitsIcESaIcEEE+0x617>
    d179:	41 8b 87 e4 00 00 00 	mov    0xe4(%r15),%eax
    d180:	85 c0                	test   %eax,%eax
    d182:	74 6c                	je     d1f0 <_ZN9XMLParser10next_tokenEPA2_PKcjS3_jS3_jRNSt7__cxx1112basic_stringIcSt11char_traitsIcESaIcEEE+0x520>
    d184:	48 8d 35 c9 48 00 00 	lea    0x48c9(%rip),%rsi        # 11a54 <_ZTS9XMLParser+0x35c>
    d18b:	4c 89 ff             	mov    %r15,%rdi
    d18e:	e8 6d 16 00 00       	callq  e800 <_ZN10TextParser11is_wordcharEPKc>
    d193:	85 c0                	test   %eax,%eax
    d195:	74 59                	je     d1f0 <_ZN9XMLParser10next_tokenEPA2_PKcjS3_jS3_jRNSt7__cxx1112basic_stringIcSt11char_traitsIcESaIcEEE+0x520>
    d197:	49 63 87 cc 00 00 00 	movslq 0xcc(%r15),%rax
    d19e:	4d 8b 87 d0 00 00 00 	mov    0xd0(%r15),%r8
    d1a5:	48 8d 3d 3c 40 00 00 	lea    0x403c(%rip),%rdi        # 111e8 <_IO_stdin_used+0xde8>
    d1ac:	b9 03 00 00 00       	mov    $0x3,%ecx
    d1b1:	48 83 c0 01          	add    $0x1,%rax
    d1b5:	48 c1 e0 05          	shl    $0x5,%rax
    d1b9:	4d 8b 0c 07          	mov    (%r15,%rax,1),%r9
    d1bd:	4b 8d 04 01          	lea    (%r9,%r8,1),%rax
    d1c1:	48 89 c6             	mov    %rax,%rsi
    d1c4:	f3 a6                	repz cmpsb %es:(%rdi),%ds:(%rsi)
    d1c6:	0f 97 c2             	seta   %dl
    d1c9:	80 da 00             	sbb    $0x0,%dl
    d1cc:	84 d2                	test   %dl,%dl
    d1ce:	75 3a                	jne    d20a <_ZN9XMLParser10next_tokenEPA2_PKcjS3_jS3_jRNSt7__cxx1112basic_stringIcSt11char_traitsIcESaIcEEE+0x53a>
    d1d0:	4b 8d 74 01 03       	lea    0x3(%r9,%r8,1),%rsi
    d1d5:	4c 89 ff             	mov    %r15,%rdi
    d1d8:	e8 23 16 00 00       	callq  e800 <_ZN10TextParser11is_wordcharEPKc>
    d1dd:	85 c0                	test   %eax,%eax
    d1df:	74 0f                	je     d1f0 <_ZN9XMLParser10next_tokenEPA2_PKcjS3_jS3_jRNSt7__cxx1112basic_stringIcSt11char_traitsIcESaIcEEE+0x520>
    d1e1:	49 83 87 d0 00 00 00 	addq   $0x2,0xd0(%r15)
    d1e8:	02 
    d1e9:	eb 32                	jmp    d21d <_ZN9XMLParser10next_tokenEPA2_PKcjS3_jS3_jRNSt7__cxx1112basic_stringIcSt11char_traitsIcESaIcEEE+0x54d>
    d1eb:	0f 1f 44 00 00       	nopl   0x0(%rax,%rax,1)
    d1f0:	49 63 97 cc 00 00 00 	movslq 0xcc(%r15),%rdx
    d1f7:	49 8b 87 d0 00 00 00 	mov    0xd0(%r15),%rax
    d1fe:	48 83 c2 01          	add    $0x1,%rdx
    d202:	48 c1 e2 05          	shl    $0x5,%rdx
    d206:	49 03 04 17          	add    (%r15,%rdx,1),%rax
    d20a:	48 89 c6             	mov    %rax,%rsi
    d20d:	4c 89 ff             	mov    %r15,%rdi
    d210:	e8 eb 15 00 00       	callq  e800 <_ZN10TextParser11is_wordcharEPKc>
    d215:	85 c0                	test   %eax,%eax
    d217:	0f 84 ff 00 00 00    	je     d31c <_ZN9XMLParser10next_tokenEPA2_PKcjS3_jS3_jRNSt7__cxx1112basic_stringIcSt11char_traitsIcESaIcEEE+0x64c>
    d21d:	49 63 87 cc 00 00 00 	movslq 0xcc(%r15),%rax
    d224:	48 83 c0 01          	add    $0x1,%rax
    d228:	48 c1 e0 05          	shl    $0x5,%rax
    d22c:	49 8b 34 07          	mov    (%r15,%rax,1),%rsi
    d230:	e9 5c fb ff ff       	jmpq   cd91 <_ZN9XMLParser10next_tokenEPA2_PKcjS3_jS3_jRNSt7__cxx1112basic_stringIcSt11char_traitsIcESaIcEEE+0xc1>
    d235:	0f 1f 00             	nopl   (%rax)
    d238:	41 c7 87 04 01 00 00 	movl   $0x1,0x104(%r15)
    d23f:	01 00 00 00 
    d243:	49 8b 36             	mov    (%r14),%rsi
    d246:	e9 46 fb ff ff       	jmpq   cd91 <_ZN9XMLParser10next_tokenEPA2_PKcjS3_jS3_jRNSt7__cxx1112basic_stringIcSt11char_traitsIcESaIcEEE+0xc1>
    d24b:	0f 1f 44 00 00       	nopl   0x0(%rax,%rax,1)
    d250:	49 63 87 cc 00 00 00 	movslq 0xcc(%r15),%rax
    d257:	49 8b b7 d0 00 00 00 	mov    0xd0(%r15),%rsi
    d25e:	4c 89 ff             	mov    %r15,%rdi
    d261:	48 83 c0 01          	add    $0x1,%rax
    d265:	48 c1 e0 05          	shl    $0x5,%rax
    d269:	49 03 34 07          	add    (%r15,%rax,1),%rsi
    d26d:	e8 ae 17 00 00       	callq  ea20 <_ZN10TextParser10get_latin1EPKc>
    d272:	48 85 c0             	test   %rax,%rax
    d275:	74 45                	je     d2bc <_ZN9XMLParser10next_tokenEPA2_PKcjS3_jS3_jRNSt7__cxx1112basic_stringIcSt11char_traitsIcESaIcEEE+0x5ec>
    d277:	4d 8b af d0 00 00 00 	mov    0xd0(%r15),%r13
    d27e:	41 c7 87 e0 00 00 00 	movl   $0x1,0xe0(%r15)
    d285:	01 00 00 00 
    d289:	48 89 c7             	mov    %rax,%rdi
    d28c:	4d 89 af d8 00 00 00 	mov    %r13,0xd8(%r15)
    d293:	e8 58 74 ff ff       	callq  46f0 <strlen@plt>
    d298:	49 8d 54 05 00       	lea    0x0(%r13,%rax,1),%rdx
    d29d:	49 63 87 cc 00 00 00 	movslq 0xcc(%r15),%rax
    d2a4:	49 89 97 d0 00 00 00 	mov    %rdx,0xd0(%r15)
    d2ab:	48 83 c0 01          	add    $0x1,%rax
    d2af:	48 c1 e0 05          	shl    $0x5,%rax
    d2b3:	49 8b 34 07          	mov    (%r15,%rax,1),%rsi
    d2b7:	e9 d5 fa ff ff       	jmpq   cd91 <_ZN9XMLParser10next_tokenEPA2_PKcjS3_jS3_jRNSt7__cxx1112basic_stringIcSt11char_traitsIcESaIcEEE+0xc1>
    d2bc:	49 63 87 cc 00 00 00 	movslq 0xcc(%r15),%rax
    d2c3:	49 8b 97 d0 00 00 00 	mov    0xd0(%r15),%rdx
    d2ca:	48 83 c0 01          	add    $0x1,%rax
    d2ce:	48 c1 e0 05          	shl    $0x5,%rax
    d2d2:	4c 01 f8             	add    %r15,%rax
    d2d5:	48 8b 30             	mov    (%rax),%rsi
    d2d8:	80 3c 16 26          	cmpb   $0x26,(%rsi,%rdx,1)
    d2dc:	0f 85 af fa ff ff    	jne    cd91 <_ZN9XMLParser10next_tokenEPA2_PKcjS3_jS3_jRNSt7__cxx1112basic_stringIcSt11char_traitsIcESaIcEEE+0xc1>
    d2e2:	e9 af fc ff ff       	jmpq   cf96 <_ZN9XMLParser10next_tokenEPA2_PKcjS3_jS3_jRNSt7__cxx1112basic_stringIcSt11char_traitsIcESaIcEEE+0x2c6>
    d2e7:	49 8d 74 10 06       	lea    0x6(%r8,%rdx,1),%rsi
    d2ec:	4c 89 ff             	mov    %r15,%rdi
    d2ef:	e8 0c 15 00 00       	callq  e800 <_ZN10TextParser11is_wordcharEPKc>
    d2f4:	85 c0                	test   %eax,%eax
    d2f6:	0f 84 7d fe ff ff    	je     d179 <_ZN9XMLParser10next_tokenEPA2_PKcjS3_jS3_jRNSt7__cxx1112basic_stringIcSt11char_traitsIcESaIcEEE+0x4a9>
    d2fc:	49 63 87 cc 00 00 00 	movslq 0xcc(%r15),%rax
    d303:	49 83 87 d0 00 00 00 	addq   $0x5,0xd0(%r15)
    d30a:	05 
    d30b:	48 83 c0 01          	add    $0x1,%rax
    d30f:	48 c1 e0 05          	shl    $0x5,%rax
    d313:	49 8b 34 07          	mov    (%r15,%rax,1),%rsi
    d317:	e9 75 fa ff ff       	jmpq   cd91 <_ZN9XMLParser10next_tokenEPA2_PKcjS3_jS3_jRNSt7__cxx1112basic_stringIcSt11char_traitsIcESaIcEEE+0xc1>
    d31c:	4c 8b 74 24 18       	mov    0x18(%rsp),%r14
    d321:	8b 54 24 60          	mov    0x60(%rsp),%edx
    d325:	31 c9                	xor    %ecx,%ecx
    d327:	4c 89 ff             	mov    %r15,%rdi
    d32a:	4c 89 f6             	mov    %r14,%rsi
    d32d:	e8 fe f8 ff ff       	callq  cc30 <_ZN9XMLParser12look_patternEPA2_PKcji>
    d332:	83 f8 ff             	cmp    $0xffffffff,%eax
    d335:	41 89 87 fc 00 00 00 	mov    %eax,0xfc(%r15)
    d33c:	74 40                	je     d37e <_ZN9XMLParser10next_tokenEPA2_PKcjS3_jS3_jRNSt7__cxx1112basic_stringIcSt11char_traitsIcESaIcEEE+0x6ae>
    d33e:	48 98                	cltq   
    d340:	48 c1 e0 04          	shl    $0x4,%rax
    d344:	4d 8b 6c 06 08       	mov    0x8(%r14,%rax,1),%r13
    d349:	4c 89 ef             	mov    %r13,%rdi
    d34c:	e8 9f 73 ff ff       	callq  46f0 <strlen@plt>
    d351:	49 63 bf cc 00 00 00 	movslq 0xcc(%r15),%rdi
    d358:	49 8b 97 d0 00 00 00 	mov    0xd0(%r15),%rdx
    d35f:	4c 89 ee             	mov    %r13,%rsi
    d362:	48 89 c1             	mov    %rax,%rcx
    d365:	48 83 c7 01          	add    $0x1,%rdi
    d369:	48 c1 e7 05          	shl    $0x5,%rdi
    d36d:	4c 01 ff             	add    %r15,%rdi
    d370:	e8 8b 77 ff ff       	callq  4b00 <_ZNKSt7__cxx1112basic_stringIcSt11char_traitsIcESaIcEE4findEPKcmm@plt>
    d375:	48 83 f8 ff          	cmp    $0xffffffffffffffff,%rax
    d379:	49 89 c5             	mov    %rax,%r13
    d37c:	75 32                	jne    d3b0 <_ZN9XMLParser10next_tokenEPA2_PKcjS3_jS3_jRNSt7__cxx1112basic_stringIcSt11char_traitsIcESaIcEEE+0x6e0>
    d37e:	41 8b 87 00 01 00 00 	mov    0x100(%r15),%eax
    d385:	49 8b b7 d8 00 00 00 	mov    0xd8(%r15),%rsi
    d38c:	48 89 ea             	mov    %rbp,%rdx
    d38f:	48 8b 4c 24 68       	mov    0x68(%rsp),%rcx
    d394:	4c 89 ff             	mov    %r15,%rdi
    d397:	41 89 87 e0 00 00 00 	mov    %eax,0xe0(%r15)
    d39e:	e8 bd 18 00 00       	callq  ec60 <_ZN10TextParser11alloc_tokenEmPmRNSt7__cxx1112basic_stringIcSt11char_traitsIcESaIcEEE>
    d3a3:	84 c0                	test   %al,%al
    d3a5:	0f 84 72 fe ff ff    	je     d21d <_ZN9XMLParser10next_tokenEPA2_PKcjS3_jS3_jRNSt7__cxx1112basic_stringIcSt11char_traitsIcESaIcEEE+0x54d>
    d3ab:	e9 f2 f9 ff ff       	jmpq   cda2 <_ZN9XMLParser10next_tokenEPA2_PKcjS3_jS3_jRNSt7__cxx1112basic_stringIcSt11char_traitsIcESaIcEEE+0xd2>
    d3b0:	49 63 87 fc 00 00 00 	movslq 0xfc(%r15),%rax
    d3b7:	48 c1 e0 04          	shl    $0x4,%rax
    d3bb:	49 8b 7c 06 08       	mov    0x8(%r14,%rax,1),%rdi
    d3c0:	e8 2b 73 ff ff       	callq  46f0 <strlen@plt>
    d3c5:	49 01 c5             	add    %rax,%r13
    d3c8:	49 63 87 cc 00 00 00 	movslq 0xcc(%r15),%rax
    d3cf:	4c 89 ff             	mov    %r15,%rdi
    d3d2:	48 83 c0 01          	add    $0x1,%rax
    d3d6:	48 c1 e0 05          	shl    $0x5,%rax
    d3da:	49 8b 34 07          	mov    (%r15,%rax,1),%rsi
    d3de:	4c 01 ee             	add    %r13,%rsi
    d3e1:	e8 1a 14 00 00       	callq  e800 <_ZN10TextParser11is_wordcharEPKc>
    d3e6:	85 c0                	test   %eax,%eax
    d3e8:	74 94                	je     d37e <_ZN9XMLParser10next_tokenEPA2_PKcjS3_jS3_jRNSt7__cxx1112basic_stringIcSt11char_traitsIcESaIcEEE+0x6ae>
    d3ea:	49 8d 55 ff          	lea    -0x1(%r13),%rdx
    d3ee:	e9 aa fe ff ff       	jmpq   d29d <_ZN9XMLParser10next_tokenEPA2_PKcjS3_jS3_jRNSt7__cxx1112basic_stringIcSt11char_traitsIcESaIcEEE+0x5cd>
    d3f3:	90                   	nop
    d3f4:	66 90                	xchg   %ax,%ax
    d3f6:	66 2e 0f 1f 84 00 00 	nopw   %cs:0x0(%rax,%rax,1)
    d3fd:	00 00 00 

000000000000d400 <_ZN9XMLParser10next_tokenERNSt7__cxx1112basic_stringIcSt11char_traitsIcESaIcEEE>:
    d400:	48 83 ec 08          	sub    $0x8,%rsp
    d404:	45 31 c9             	xor    %r9d,%r9d
    d407:	45 31 c0             	xor    %r8d,%r8d
    d40a:	56                   	push   %rsi
    d40b:	48 8d 35 0e 7c 20 00 	lea    0x207c0e(%rip),%rsi        # 215020 <_ZL11__PATTERN__>
    d412:	6a 00                	pushq  $0x0
    d414:	31 c9                	xor    %ecx,%ecx
    d416:	ba 03 00 00 00       	mov    $0x3,%edx
    d41b:	e8 b0 f8 ff ff       	callq  ccd0 <_ZN9XMLParser10next_tokenEPA2_PKcjS3_jS3_jRNSt7__cxx1112basic_stringIcSt11char_traitsIcESaIcEEE>
    d420:	48 83 c4 18          	add    $0x18,%rsp
    d424:	c3                   	retq   
    d425:	90                   	nop
    d426:	66 2e 0f 1f 84 00 00 	nopw   %cs:0x0(%rax,%rax,1)
    d42d:	00 00 00 

000000000000d430 <_ZN9XMLParser9get_word2EPA2_PKcjRKNSt7__cxx1112basic_stringIcSt11char_traitsIcESaIcEEE>:
    d430:	41 57                	push   %r15
    d432:	41 56                	push   %r14
    d434:	49 89 d6             	mov    %rdx,%r14
    d437:	41 55                	push   %r13
    d439:	4c 8d 6f 10          	lea    0x10(%rdi),%r13
    d43d:	41 54                	push   %r12
    d43f:	55                   	push   %rbp
    d440:	53                   	push   %rbx
    d441:	89 cb                	mov    %ecx,%ebx
    d443:	48 89 fd             	mov    %rdi,%rbp
    d446:	48 83 ec 08          	sub    $0x8,%rsp
    d44a:	4c 89 2f             	mov    %r13,(%rdi)
    d44d:	49 8b 30             	mov    (%r8),%rsi
    d450:	49 8b 50 08          	mov    0x8(%r8),%rdx
    d454:	48 01 f2             	add    %rsi,%rdx
    d457:	e8 84 f6 ff ff       	callq  cae0 <_ZNSt7__cxx1112basic_stringIcSt11char_traitsIcESaIcEE12_M_constructIPKcEEvT_S8_St20forward_iterator_tag.isra.20>
    d45c:	85 db                	test   %ebx,%ebx
    d45e:	0f 84 c9 00 00 00    	je     d52d <_ZN9XMLParser9get_word2EPA2_PKcjRKNSt7__cxx1112basic_stringIcSt11char_traitsIcESaIcEEE+0xfd>
    d464:	8d 43 ff             	lea    -0x1(%rbx),%eax
    d467:	4d 8d 66 08          	lea    0x8(%r14),%r12
    d46b:	48 c1 e0 04          	shl    $0x4,%rax
    d46f:	4d 8d 74 06 18       	lea    0x18(%r14,%rax,1),%r14
    d474:	0f 1f 40 00          	nopl   0x0(%rax)
    d478:	49 8b 5c 24 f8       	mov    -0x8(%r12),%rbx
    d47d:	48 89 df             	mov    %rbx,%rdi
    d480:	e8 6b 72 ff ff       	callq  46f0 <strlen@plt>
    d485:	31 d2                	xor    %edx,%edx
    d487:	48 89 de             	mov    %rbx,%rsi
    d48a:	48 89 c1             	mov    %rax,%rcx
    d48d:	48 89 ef             	mov    %rbp,%rdi
    d490:	e8 6b 76 ff ff       	callq  4b00 <_ZNKSt7__cxx1112basic_stringIcSt11char_traitsIcESaIcEE4findEPKcmm@plt>
    d495:	48 83 f8 ff          	cmp    $0xffffffffffffffff,%rax
    d499:	48 89 c3             	mov    %rax,%rbx
    d49c:	0f 84 7e 00 00 00    	je     d520 <_ZN9XMLParser9get_word2EPA2_PKcjRKNSt7__cxx1112basic_stringIcSt11char_traitsIcESaIcEEE+0xf0>
    d4a2:	4d 8b 3c 24          	mov    (%r12),%r15
    d4a6:	4c 89 ff             	mov    %r15,%rdi
    d4a9:	e8 42 72 ff ff       	callq  46f0 <strlen@plt>
    d4ae:	4c 89 fe             	mov    %r15,%rsi
    d4b1:	48 89 c1             	mov    %rax,%rcx
    d4b4:	48 89 da             	mov    %rbx,%rdx
    d4b7:	48 89 ef             	mov    %rbp,%rdi
    d4ba:	e8 41 76 ff ff       	callq  4b00 <_ZNKSt7__cxx1112basic_stringIcSt11char_traitsIcESaIcEE4findEPKcmm@plt>
    d4bf:	48 83 f8 ff          	cmp    $0xffffffffffffffff,%rax
    d4c3:	49 89 c7             	mov    %rax,%r15
    d4c6:	74 65                	je     d52d <_ZN9XMLParser9get_word2EPA2_PKcjRKNSt7__cxx1112basic_stringIcSt11char_traitsIcESaIcEEE+0xfd>
    d4c8:	49 8b 3c 24          	mov    (%r12),%rdi
    d4cc:	49 29 df             	sub    %rbx,%r15
    d4cf:	e8 1c 72 ff ff       	callq  46f0 <strlen@plt>
    d4d4:	48 8b 55 08          	mov    0x8(%rbp),%rdx
    d4d8:	4c 01 f8             	add    %r15,%rax
    d4db:	48 39 d3             	cmp    %rdx,%rbx
    d4de:	77 5f                	ja     d53f <_ZN9XMLParser9get_word2EPA2_PKcjRKNSt7__cxx1112basic_stringIcSt11char_traitsIcESaIcEEE+0x10f>
    d4e0:	48 83 f8 ff          	cmp    $0xffffffffffffffff,%rax
    d4e4:	74 22                	je     d508 <_ZN9XMLParser9get_word2EPA2_PKcjRKNSt7__cxx1112basic_stringIcSt11char_traitsIcESaIcEEE+0xd8>
    d4e6:	48 85 c0             	test   %rax,%rax
    d4e9:	74 8d                	je     d478 <_ZN9XMLParser9get_word2EPA2_PKcjRKNSt7__cxx1112basic_stringIcSt11char_traitsIcESaIcEEE+0x48>
    d4eb:	48 29 da             	sub    %rbx,%rdx
    d4ee:	48 89 de             	mov    %rbx,%rsi
    d4f1:	48 89 ef             	mov    %rbp,%rdi
    d4f4:	48 39 c2             	cmp    %rax,%rdx
    d4f7:	48 0f 47 d0          	cmova  %rax,%rdx
    d4fb:	e8 40 74 ff ff       	callq  4940 <_ZNSt7__cxx1112basic_stringIcSt11char_traitsIcESaIcEE8_M_eraseEmm@plt>
    d500:	e9 73 ff ff ff       	jmpq   d478 <_ZN9XMLParser9get_word2EPA2_PKcjRKNSt7__cxx1112basic_stringIcSt11char_traitsIcESaIcEEE+0x48>
    d505:	0f 1f 00             	nopl   (%rax)
    d508:	48 8b 45 00          	mov    0x0(%rbp),%rax
    d50c:	48 89 5d 08          	mov    %rbx,0x8(%rbp)
    d510:	c6 04 18 00          	movb   $0x0,(%rax,%rbx,1)
    d514:	e9 5f ff ff ff       	jmpq   d478 <_ZN9XMLParser9get_word2EPA2_PKcjRKNSt7__cxx1112basic_stringIcSt11char_traitsIcESaIcEEE+0x48>
    d519:	0f 1f 80 00 00 00 00 	nopl   0x0(%rax)
    d520:	49 83 c4 10          	add    $0x10,%r12
    d524:	4d 39 f4             	cmp    %r14,%r12
    d527:	0f 85 4b ff ff ff    	jne    d478 <_ZN9XMLParser9get_word2EPA2_PKcjRKNSt7__cxx1112basic_stringIcSt11char_traitsIcESaIcEEE+0x48>
    d52d:	48 83 c4 08          	add    $0x8,%rsp
    d531:	48 89 e8             	mov    %rbp,%rax
    d534:	5b                   	pop    %rbx
    d535:	5d                   	pop    %rbp
    d536:	41 5c                	pop    %r12
    d538:	41 5d                	pop    %r13
    d53a:	41 5e                	pop    %r14
    d53c:	41 5f                	pop    %r15
    d53e:	c3                   	retq   
    d53f:	48 8d 35 bb 3c 00 00 	lea    0x3cbb(%rip),%rsi        # 11201 <_IO_stdin_used+0xe01>
    d546:	48 8d 3d eb 2e 00 00 	lea    0x2eeb(%rip),%rdi        # 10438 <_IO_stdin_used+0x38>
    d54d:	48 89 d1             	mov    %rdx,%rcx
    d550:	31 c0                	xor    %eax,%eax
    d552:	48 89 da             	mov    %rbx,%rdx
    d555:	e8 e6 74 ff ff       	callq  4a40 <_ZSt24__throw_out_of_range_fmtPKcz@plt>
    d55a:	48 8b 7d 00          	mov    0x0(%rbp),%rdi
    d55e:	48 89 c3             	mov    %rax,%rbx
    d561:	49 39 fd             	cmp    %rdi,%r13
    d564:	74 05                	je     d56b <_ZN9XMLParser9get_word2EPA2_PKcjRKNSt7__cxx1112basic_stringIcSt11char_traitsIcESaIcEEE+0x13b>
    d566:	e8 95 72 ff ff       	callq  4800 <_ZdlPv@plt>
    d56b:	48 89 df             	mov    %rbx,%rdi
    d56e:	e8 9d 75 ff ff       	callq  4b10 <_Unwind_Resume@plt>
    d573:	90                   	nop
    d574:	66 90                	xchg   %ax,%ax
    d576:	66 2e 0f 1f 84 00 00 	nopw   %cs:0x0(%rax,%rax,1)
    d57d:	00 00 00 

000000000000d580 <_ZN9XMLParser12change_tokenEPKc>:
    d580:	41 55                	push   %r13
    d582:	41 54                	push   %r12
    d584:	49 89 fd             	mov    %rdi,%r13
    d587:	55                   	push   %rbp
    d588:	53                   	push   %rbx
    d589:	48 89 f3             	mov    %rsi,%rbx
    d58c:	48 89 df             	mov    %rbx,%rdi
    d58f:	be 27 00 00 00       	mov    $0x27,%esi
    d594:	48 81 ec 88 00 00 00 	sub    $0x88,%rsp
    d59b:	64 48 8b 04 25 28 00 	mov    %fs:0x28,%rax
    d5a2:	00 00 
    d5a4:	48 89 44 24 78       	mov    %rax,0x78(%rsp)
    d5a9:	31 c0                	xor    %eax,%eax
    d5ab:	e8 10 71 ff ff       	callq  46c0 <strchr@plt>
    d5b0:	48 85 c0             	test   %rax,%rax
    d5b3:	0f 84 07 03 00 00    	je     d8c0 <_ZN9XMLParser12change_tokenEPKc+0x340>
    d5b9:	4c 8d 64 24 10       	lea    0x10(%rsp),%r12
    d5be:	48 89 df             	mov    %rbx,%rdi
    d5c1:	49 8d 44 24 10       	lea    0x10(%r12),%rax
    d5c6:	48 89 44 24 10       	mov    %rax,0x10(%rsp)
    d5cb:	e8 20 71 ff ff       	callq  46f0 <strlen@plt>
    d5d0:	48 8d 14 03          	lea    (%rbx,%rax,1),%rdx
    d5d4:	48 89 de             	mov    %rbx,%rsi
    d5d7:	4c 89 e7             	mov    %r12,%rdi
    d5da:	48 8d 5c 24 50       	lea    0x50(%rsp),%rbx
    d5df:	e8 fc f4 ff ff       	callq  cae0 <_ZNSt7__cxx1112basic_stringIcSt11char_traitsIcESaIcEE12_M_constructIPKcEEvT_S8_St20forward_iterator_tag.isra.20>
    d5e4:	48 8d 15 c6 40 00 00 	lea    0x40c6(%rip),%rdx        # 116b1 <_ZTS11FirstParser+0x21>
    d5eb:	48 8d 43 10          	lea    0x10(%rbx),%rax
    d5ef:	48 89 df             	mov    %rbx,%rdi
    d5f2:	48 8d 72 f7          	lea    -0x9(%rdx),%rsi
    d5f6:	48 89 44 24 50       	mov    %rax,0x50(%rsp)
    d5fb:	e8 e0 f4 ff ff       	callq  cae0 <_ZNSt7__cxx1112basic_stringIcSt11char_traitsIcESaIcEE12_M_constructIPKcEEvT_S8_St20forward_iterator_tag.isra.20>
    d600:	48 8d 6c 24 30       	lea    0x30(%rsp),%rbp
    d605:	48 8d 15 95 40 00 00 	lea    0x4095(%rip),%rdx        # 116a1 <_ZTS11FirstParser+0x11>
    d60c:	48 8d 45 10          	lea    0x10(%rbp),%rax
    d610:	48 8d 72 ff          	lea    -0x1(%rdx),%rsi
    d614:	48 89 ef             	mov    %rbp,%rdi
    d617:	48 89 44 24 30       	mov    %rax,0x30(%rsp)
    d61c:	e8 bf f4 ff ff       	callq  cae0 <_ZNSt7__cxx1112basic_stringIcSt11char_traitsIcESaIcEE12_M_constructIPKcEEvT_S8_St20forward_iterator_tag.isra.20>
    d621:	48 89 da             	mov    %rbx,%rdx
    d624:	48 89 ee             	mov    %rbp,%rsi
    d627:	4c 89 e7             	mov    %r12,%rdi
    d62a:	e8 91 72 ff ff       	callq  48c0 <_Z8mystrrepRNSt7__cxx1112basic_stringIcSt11char_traitsIcESaIcEEERKS4_S7_@plt>
    d62f:	48 8b 7c 24 30       	mov    0x30(%rsp),%rdi
    d634:	48 8d 45 10          	lea    0x10(%rbp),%rax
    d638:	48 39 c7             	cmp    %rax,%rdi
    d63b:	74 05                	je     d642 <_ZN9XMLParser12change_tokenEPKc+0xc2>
    d63d:	e8 be 71 ff ff       	callq  4800 <_ZdlPv@plt>
    d642:	48 8b 7c 24 50       	mov    0x50(%rsp),%rdi
    d647:	48 8d 43 10          	lea    0x10(%rbx),%rax
    d64b:	48 39 c7             	cmp    %rax,%rdi
    d64e:	74 05                	je     d655 <_ZN9XMLParser12change_tokenEPKc+0xd5>
    d650:	e8 ab 71 ff ff       	callq  4800 <_ZdlPv@plt>
    d655:	48 8d 15 4b 40 00 00 	lea    0x404b(%rip),%rdx        # 116a7 <_ZTS11FirstParser+0x17>
    d65c:	48 8d 43 10          	lea    0x10(%rbx),%rax
    d660:	48 89 df             	mov    %rbx,%rdi
    d663:	48 8d 72 fb          	lea    -0x5(%rdx),%rsi
    d667:	48 89 44 24 50       	mov    %rax,0x50(%rsp)
    d66c:	e8 6f f4 ff ff       	callq  cae0 <_ZNSt7__cxx1112basic_stringIcSt11char_traitsIcESaIcEE12_M_constructIPKcEEvT_S8_St20forward_iterator_tag.isra.20>
    d671:	48 8d 15 39 40 00 00 	lea    0x4039(%rip),%rdx        # 116b1 <_ZTS11FirstParser+0x21>
    d678:	48 8d 45 10          	lea    0x10(%rbp),%rax
    d67c:	48 89 ef             	mov    %rbp,%rdi
    d67f:	48 8d 72 f7          	lea    -0x9(%rdx),%rsi
    d683:	48 89 44 24 30       	mov    %rax,0x30(%rsp)
    d688:	e8 53 f4 ff ff       	callq  cae0 <_ZNSt7__cxx1112basic_stringIcSt11char_traitsIcESaIcEE12_M_constructIPKcEEvT_S8_St20forward_iterator_tag.isra.20>
    d68d:	48 89 da             	mov    %rbx,%rdx
    d690:	48 89 ee             	mov    %rbp,%rsi
    d693:	4c 89 e7             	mov    %r12,%rdi
    d696:	e8 25 72 ff ff       	callq  48c0 <_Z8mystrrepRNSt7__cxx1112basic_stringIcSt11char_traitsIcESaIcEEERKS4_S7_@plt>
    d69b:	48 8b 7c 24 30       	mov    0x30(%rsp),%rdi
    d6a0:	48 8d 45 10          	lea    0x10(%rbp),%rax
    d6a4:	48 39 c7             	cmp    %rax,%rdi
    d6a7:	74 05                	je     d6ae <_ZN9XMLParser12change_tokenEPKc+0x12e>
    d6a9:	e8 52 71 ff ff       	callq  4800 <_ZdlPv@plt>
    d6ae:	48 8b 7c 24 50       	mov    0x50(%rsp),%rdi
    d6b3:	48 8d 43 10          	lea    0x10(%rbx),%rax
    d6b7:	48 39 c7             	cmp    %rax,%rdi
    d6ba:	74 05                	je     d6c1 <_ZN9XMLParser12change_tokenEPKc+0x141>
    d6bc:	e8 3f 71 ff ff       	callq  4800 <_ZdlPv@plt>
    d6c1:	48 8d 15 19 3b 00 00 	lea    0x3b19(%rip),%rdx        # 111e1 <_IO_stdin_used+0xde1>
    d6c8:	48 8d 43 10          	lea    0x10(%rbx),%rax
    d6cc:	48 89 df             	mov    %rbx,%rdi
    d6cf:	48 8d 72 fa          	lea    -0x6(%rdx),%rsi
    d6d3:	48 89 44 24 50       	mov    %rax,0x50(%rsp)
    d6d8:	e8 03 f4 ff ff       	callq  cae0 <_ZNSt7__cxx1112basic_stringIcSt11char_traitsIcESaIcEE12_M_constructIPKcEEvT_S8_St20forward_iterator_tag.isra.20>
    d6dd:	48 8d 15 71 43 00 00 	lea    0x4371(%rip),%rdx        # 11a55 <_ZTS9XMLParser+0x35d>
    d6e4:	48 8d 45 10          	lea    0x10(%rbp),%rax
    d6e8:	48 89 ef             	mov    %rbp,%rdi
    d6eb:	48 8d 72 ff          	lea    -0x1(%rdx),%rsi
    d6ef:	48 89 44 24 30       	mov    %rax,0x30(%rsp)
    d6f4:	e8 e7 f3 ff ff       	callq  cae0 <_ZNSt7__cxx1112basic_stringIcSt11char_traitsIcESaIcEE12_M_constructIPKcEEvT_S8_St20forward_iterator_tag.isra.20>
    d6f9:	48 89 da             	mov    %rbx,%rdx
    d6fc:	48 89 ee             	mov    %rbp,%rsi
    d6ff:	4c 89 e7             	mov    %r12,%rdi
    d702:	e8 b9 71 ff ff       	callq  48c0 <_Z8mystrrepRNSt7__cxx1112basic_stringIcSt11char_traitsIcESaIcEEERKS4_S7_@plt>
    d707:	48 8b 7c 24 30       	mov    0x30(%rsp),%rdi
    d70c:	48 8d 45 10          	lea    0x10(%rbp),%rax
    d710:	48 39 c7             	cmp    %rax,%rdi
    d713:	74 05                	je     d71a <_ZN9XMLParser12change_tokenEPKc+0x19a>
    d715:	e8 e6 70 ff ff       	callq  4800 <_ZdlPv@plt>
    d71a:	48 8b 7c 24 50       	mov    0x50(%rsp),%rdi
    d71f:	48 8d 43 10          	lea    0x10(%rbx),%rax
    d723:	48 39 c7             	cmp    %rax,%rdi
    d726:	74 05                	je     d72d <_ZN9XMLParser12change_tokenEPKc+0x1ad>
    d728:	e8 d3 70 ff ff       	callq  4800 <_ZdlPv@plt>
    d72d:	48 8d 15 84 3f 00 00 	lea    0x3f84(%rip),%rdx        # 116b8 <_ZTS11FirstParser+0x28>
    d734:	48 8d 43 10          	lea    0x10(%rbx),%rax
    d738:	48 89 df             	mov    %rbx,%rdi
    d73b:	48 8d 72 fa          	lea    -0x6(%rdx),%rsi
    d73f:	48 89 44 24 50       	mov    %rax,0x50(%rsp)
    d744:	e8 97 f3 ff ff       	callq  cae0 <_ZNSt7__cxx1112basic_stringIcSt11char_traitsIcESaIcEE12_M_constructIPKcEEvT_S8_St20forward_iterator_tag.isra.20>
    d749:	48 8d 15 15 3b 00 00 	lea    0x3b15(%rip),%rdx        # 11265 <_IO_stdin_used+0xe65>
    d750:	48 8d 45 10          	lea    0x10(%rbp),%rax
    d754:	48 89 ef             	mov    %rbp,%rdi
    d757:	48 8d 72 ff          	lea    -0x1(%rdx),%rsi
    d75b:	48 89 44 24 30       	mov    %rax,0x30(%rsp)
    d760:	e8 7b f3 ff ff       	callq  cae0 <_ZNSt7__cxx1112basic_stringIcSt11char_traitsIcESaIcEE12_M_constructIPKcEEvT_S8_St20forward_iterator_tag.isra.20>
    d765:	48 89 da             	mov    %rbx,%rdx
    d768:	48 89 ee             	mov    %rbp,%rsi
    d76b:	4c 89 e7             	mov    %r12,%rdi
    d76e:	e8 4d 71 ff ff       	callq  48c0 <_Z8mystrrepRNSt7__cxx1112basic_stringIcSt11char_traitsIcESaIcEEERKS4_S7_@plt>
    d773:	48 8b 7c 24 30       	mov    0x30(%rsp),%rdi
    d778:	48 8d 45 10          	lea    0x10(%rbp),%rax
    d77c:	48 39 c7             	cmp    %rax,%rdi
    d77f:	74 05                	je     d786 <_ZN9XMLParser12change_tokenEPKc+0x206>
    d781:	e8 7a 70 ff ff       	callq  4800 <_ZdlPv@plt>
    d786:	48 8b 7c 24 50       	mov    0x50(%rsp),%rdi
    d78b:	48 8d 43 10          	lea    0x10(%rbx),%rax
    d78f:	48 39 c7             	cmp    %rax,%rdi
    d792:	74 05                	je     d799 <_ZN9XMLParser12change_tokenEPKc+0x219>
    d794:	e8 67 70 ff ff       	callq  4800 <_ZdlPv@plt>
    d799:	48 8d 15 1d 3f 00 00 	lea    0x3f1d(%rip),%rdx        # 116bd <_ZTS11FirstParser+0x2d>
    d7a0:	48 8d 43 10          	lea    0x10(%rbx),%rax
    d7a4:	48 89 df             	mov    %rbx,%rdi
    d7a7:	48 8d 72 fc          	lea    -0x4(%rdx),%rsi
    d7ab:	48 89 44 24 50       	mov    %rax,0x50(%rsp)
    d7b0:	e8 2b f3 ff ff       	callq  cae0 <_ZNSt7__cxx1112basic_stringIcSt11char_traitsIcESaIcEE12_M_constructIPKcEEvT_S8_St20forward_iterator_tag.isra.20>
    d7b5:	48 8d 15 0f 3f 00 00 	lea    0x3f0f(%rip),%rdx        # 116cb <_ZTS11FirstParser+0x3b>
    d7bc:	48 8d 45 10          	lea    0x10(%rbp),%rax
    d7c0:	48 89 ef             	mov    %rbp,%rdi
    d7c3:	48 8d 72 ff          	lea    -0x1(%rdx),%rsi
    d7c7:	48 89 44 24 30       	mov    %rax,0x30(%rsp)
    d7cc:	e8 0f f3 ff ff       	callq  cae0 <_ZNSt7__cxx1112basic_stringIcSt11char_traitsIcESaIcEE12_M_constructIPKcEEvT_S8_St20forward_iterator_tag.isra.20>
    d7d1:	48 89 da             	mov    %rbx,%rdx
    d7d4:	48 89 ee             	mov    %rbp,%rsi
    d7d7:	4c 89 e7             	mov    %r12,%rdi
    d7da:	e8 e1 70 ff ff       	callq  48c0 <_Z8mystrrepRNSt7__cxx1112basic_stringIcSt11char_traitsIcESaIcEEERKS4_S7_@plt>
    d7df:	48 8b 7c 24 30       	mov    0x30(%rsp),%rdi
    d7e4:	48 8d 45 10          	lea    0x10(%rbp),%rax
    d7e8:	48 39 c7             	cmp    %rax,%rdi
    d7eb:	74 05                	je     d7f2 <_ZN9XMLParser12change_tokenEPKc+0x272>
    d7ed:	e8 0e 70 ff ff       	callq  4800 <_ZdlPv@plt>
    d7f2:	48 8b 7c 24 50       	mov    0x50(%rsp),%rdi
    d7f7:	48 8d 43 10          	lea    0x10(%rbx),%rax
    d7fb:	48 39 c7             	cmp    %rax,%rdi
    d7fe:	74 05                	je     d805 <_ZN9XMLParser12change_tokenEPKc+0x285>
    d800:	e8 fb 6f ff ff       	callq  4800 <_ZdlPv@plt>
    d805:	48 8d 15 b6 3e 00 00 	lea    0x3eb6(%rip),%rdx        # 116c2 <_ZTS11FirstParser+0x32>
    d80c:	48 8d 43 10          	lea    0x10(%rbx),%rax
    d810:	48 89 df             	mov    %rbx,%rdi
    d813:	48 8d 72 fc          	lea    -0x4(%rdx),%rsi
    d817:	48 89 44 24 50       	mov    %rax,0x50(%rsp)
    d81c:	e8 bf f2 ff ff       	callq  cae0 <_ZNSt7__cxx1112basic_stringIcSt11char_traitsIcESaIcEE12_M_constructIPKcEEvT_S8_St20forward_iterator_tag.isra.20>
    d821:	48 8d 15 77 3e 00 00 	lea    0x3e77(%rip),%rdx        # 1169f <_ZTS11FirstParser+0xf>
    d828:	48 8d 45 10          	lea    0x10(%rbp),%rax
    d82c:	48 89 ef             	mov    %rbp,%rdi
    d82f:	48 8d 72 ff          	lea    -0x1(%rdx),%rsi
    d833:	48 89 44 24 30       	mov    %rax,0x30(%rsp)
    d838:	e8 a3 f2 ff ff       	callq  cae0 <_ZNSt7__cxx1112basic_stringIcSt11char_traitsIcESaIcEE12_M_constructIPKcEEvT_S8_St20forward_iterator_tag.isra.20>
    d83d:	48 89 da             	mov    %rbx,%rdx
    d840:	48 89 ee             	mov    %rbp,%rsi
    d843:	4c 89 e7             	mov    %r12,%rdi
    d846:	e8 75 70 ff ff       	callq  48c0 <_Z8mystrrepRNSt7__cxx1112basic_stringIcSt11char_traitsIcESaIcEEERKS4_S7_@plt>
    d84b:	48 8b 7c 24 30       	mov    0x30(%rsp),%rdi
    d850:	48 83 c5 10          	add    $0x10,%rbp
    d854:	48 39 ef             	cmp    %rbp,%rdi
    d857:	74 05                	je     d85e <_ZN9XMLParser12change_tokenEPKc+0x2de>
    d859:	e8 a2 6f ff ff       	callq  4800 <_ZdlPv@plt>
    d85e:	48 8b 7c 24 50       	mov    0x50(%rsp),%rdi
    d863:	48 83 c3 10          	add    $0x10,%rbx
    d867:	48 39 df             	cmp    %rbx,%rdi
    d86a:	74 05                	je     d871 <_ZN9XMLParser12change_tokenEPKc+0x2f1>
    d86c:	e8 8f 6f ff ff       	callq  4800 <_ZdlPv@plt>
    d871:	48 8b 74 24 10       	mov    0x10(%rsp),%rsi
    d876:	4c 89 ef             	mov    %r13,%rdi
    d879:	e8 a2 0c 00 00       	callq  e520 <_ZN10TextParser12change_tokenEPKc>
    d87e:	48 8b 7c 24 10       	mov    0x10(%rsp),%rdi
    d883:	49 83 c4 10          	add    $0x10,%r12
    d887:	4c 39 e7             	cmp    %r12,%rdi
    d88a:	74 0d                	je     d899 <_ZN9XMLParser12change_tokenEPKc+0x319>
    d88c:	89 44 24 0c          	mov    %eax,0xc(%rsp)
    d890:	e8 6b 6f ff ff       	callq  4800 <_ZdlPv@plt>
    d895:	8b 44 24 0c          	mov    0xc(%rsp),%eax
    d899:	48 8b 4c 24 78       	mov    0x78(%rsp),%rcx
    d89e:	64 48 33 0c 25 28 00 	xor    %fs:0x28,%rcx
    d8a5:	00 00 
    d8a7:	75 7f                	jne    d928 <_ZN9XMLParser12change_tokenEPKc+0x3a8>
    d8a9:	48 81 c4 88 00 00 00 	add    $0x88,%rsp
    d8b0:	5b                   	pop    %rbx
    d8b1:	5d                   	pop    %rbp
    d8b2:	41 5c                	pop    %r12
    d8b4:	41 5d                	pop    %r13
    d8b6:	c3                   	retq   
    d8b7:	66 0f 1f 84 00 00 00 	nopw   0x0(%rax,%rax,1)
    d8be:	00 00 
    d8c0:	be 22 00 00 00       	mov    $0x22,%esi
    d8c5:	48 89 df             	mov    %rbx,%rdi
    d8c8:	e8 f3 6d ff ff       	callq  46c0 <strchr@plt>
    d8cd:	48 85 c0             	test   %rax,%rax
    d8d0:	0f 85 e3 fc ff ff    	jne    d5b9 <_ZN9XMLParser12change_tokenEPKc+0x39>
    d8d6:	be 26 00 00 00       	mov    $0x26,%esi
    d8db:	48 89 df             	mov    %rbx,%rdi
    d8de:	e8 dd 6d ff ff       	callq  46c0 <strchr@plt>
    d8e3:	48 85 c0             	test   %rax,%rax
    d8e6:	0f 85 cd fc ff ff    	jne    d5b9 <_ZN9XMLParser12change_tokenEPKc+0x39>
    d8ec:	be 3c 00 00 00       	mov    $0x3c,%esi
    d8f1:	48 89 df             	mov    %rbx,%rdi
    d8f4:	e8 c7 6d ff ff       	callq  46c0 <strchr@plt>
    d8f9:	48 85 c0             	test   %rax,%rax
    d8fc:	0f 85 b7 fc ff ff    	jne    d5b9 <_ZN9XMLParser12change_tokenEPKc+0x39>
    d902:	be 3e 00 00 00       	mov    $0x3e,%esi
    d907:	48 89 df             	mov    %rbx,%rdi
    d90a:	e8 b1 6d ff ff       	callq  46c0 <strchr@plt>
    d90f:	48 85 c0             	test   %rax,%rax
    d912:	0f 85 a1 fc ff ff    	jne    d5b9 <_ZN9XMLParser12change_tokenEPKc+0x39>
    d918:	48 89 de             	mov    %rbx,%rsi
    d91b:	4c 89 ef             	mov    %r13,%rdi
    d91e:	e8 fd 0b 00 00       	callq  e520 <_ZN10TextParser12change_tokenEPKc>
    d923:	e9 71 ff ff ff       	jmpq   d899 <_ZN9XMLParser12change_tokenEPKc+0x319>
    d928:	e8 63 6f ff ff       	callq  4890 <__stack_chk_fail@plt>
    d92d:	48 8b 7c 24 30       	mov    0x30(%rsp),%rdi
    d932:	48 83 c5 10          	add    $0x10,%rbp
    d936:	49 89 c5             	mov    %rax,%r13
    d939:	48 39 ef             	cmp    %rbp,%rdi
    d93c:	74 05                	je     d943 <_ZN9XMLParser12change_tokenEPKc+0x3c3>
    d93e:	e8 bd 6e ff ff       	callq  4800 <_ZdlPv@plt>
    d943:	4c 89 ed             	mov    %r13,%rbp
    d946:	48 8b 7c 24 50       	mov    0x50(%rsp),%rdi
    d94b:	48 83 c3 10          	add    $0x10,%rbx
    d94f:	48 39 df             	cmp    %rbx,%rdi
    d952:	74 05                	je     d959 <_ZN9XMLParser12change_tokenEPKc+0x3d9>
    d954:	e8 a7 6e ff ff       	callq  4800 <_ZdlPv@plt>
    d959:	48 8b 7c 24 10       	mov    0x10(%rsp),%rdi
    d95e:	49 83 c4 10          	add    $0x10,%r12
    d962:	4c 39 e7             	cmp    %r12,%rdi
    d965:	74 05                	je     d96c <_ZN9XMLParser12change_tokenEPKc+0x3ec>
    d967:	e8 94 6e ff ff       	callq  4800 <_ZdlPv@plt>
    d96c:	48 89 ef             	mov    %rbp,%rdi
    d96f:	e8 9c 71 ff ff       	callq  4b10 <_Unwind_Resume@plt>
    d974:	48 89 c5             	mov    %rax,%rbp
    d977:	eb cd                	jmp    d946 <_ZN9XMLParser12change_tokenEPKc+0x3c6>
    d979:	eb b2                	jmp    d92d <_ZN9XMLParser12change_tokenEPKc+0x3ad>
    d97b:	eb f7                	jmp    d974 <_ZN9XMLParser12change_tokenEPKc+0x3f4>
    d97d:	eb ae                	jmp    d92d <_ZN9XMLParser12change_tokenEPKc+0x3ad>
    d97f:	eb f3                	jmp    d974 <_ZN9XMLParser12change_tokenEPKc+0x3f4>
    d981:	eb aa                	jmp    d92d <_ZN9XMLParser12change_tokenEPKc+0x3ad>
    d983:	eb ef                	jmp    d974 <_ZN9XMLParser12change_tokenEPKc+0x3f4>
    d985:	eb a6                	jmp    d92d <_ZN9XMLParser12change_tokenEPKc+0x3ad>
    d987:	eb eb                	jmp    d974 <_ZN9XMLParser12change_tokenEPKc+0x3f4>
    d989:	48 89 c5             	mov    %rax,%rbp
    d98c:	eb cb                	jmp    d959 <_ZN9XMLParser12change_tokenEPKc+0x3d9>
    d98e:	eb e4                	jmp    d974 <_ZN9XMLParser12change_tokenEPKc+0x3f4>
    d990:	eb 9b                	jmp    d92d <_ZN9XMLParser12change_tokenEPKc+0x3ad>
    d992:	66 2e 0f 1f 84 00 00 	nopw   %cs:0x0(%rax,%rax,1)
    d999:	00 00 00 
    d99c:	0f 1f 40 00          	nopl   0x0(%rax)

000000000000d9a0 <_ZN11LaTeXParserD1Ev>:
    d9a0:	48 8d 05 a9 6f 20 00 	lea    0x206fa9(%rip),%rax        # 214950 <_ZTV11LaTeXParser+0x10>
    d9a7:	48 89 07             	mov    %rax,(%rdi)
    d9aa:	e9 f1 0c 00 00       	jmpq   e6a0 <_ZN10TextParserD1Ev>
    d9af:	90                   	nop

000000000000d9b0 <_ZN11LaTeXParserD0Ev>:
    d9b0:	48 8d 05 99 6f 20 00 	lea    0x206f99(%rip),%rax        # 214950 <_ZTV11LaTeXParser+0x10>
    d9b7:	53                   	push   %rbx
    d9b8:	48 89 fb             	mov    %rdi,%rbx
    d9bb:	48 89 07             	mov    %rax,(%rdi)
    d9be:	e8 dd 0c 00 00       	callq  e6a0 <_ZN10TextParserD1Ev>
    d9c3:	48 89 df             	mov    %rbx,%rdi
    d9c6:	be 08 01 00 00       	mov    $0x108,%esi
    d9cb:	5b                   	pop    %rbx
    d9cc:	e9 8f 6e ff ff       	jmpq   4860 <_ZdlPvm@plt>
    d9d1:	90                   	nop
    d9d2:	0f 1f 40 00          	nopl   0x0(%rax)
    d9d6:	66 2e 0f 1f 84 00 00 	nopw   %cs:0x0(%rax,%rax,1)
    d9dd:	00 00 00 

000000000000d9e0 <_ZN11LaTeXParserC1EPKc>:
    d9e0:	53                   	push   %rbx
    d9e1:	48 89 fb             	mov    %rdi,%rbx
    d9e4:	e8 87 18 00 00       	callq  f270 <_ZN10TextParserC1EPKc>
    d9e9:	48 8d 05 60 6f 20 00 	lea    0x206f60(%rip),%rax        # 214950 <_ZTV11LaTeXParser+0x10>
    d9f0:	48 c7 83 f4 00 00 00 	movq   $0x0,0xf4(%rbx)
    d9f7:	00 00 00 00 
    d9fb:	48 c7 83 fc 00 00 00 	movq   $0x0,0xfc(%rbx)
    da02:	00 00 00 00 
    da06:	48 89 03             	mov    %rax,(%rbx)
    da09:	5b                   	pop    %rbx
    da0a:	c3                   	retq   
    da0b:	90                   	nop
    da0c:	0f 1f 40 00          	nopl   0x0(%rax)

000000000000da10 <_ZN11LaTeXParserC1EPK6w_chari>:
    da10:	53                   	push   %rbx
    da11:	48 89 fb             	mov    %rdi,%rbx
    da14:	e8 27 0d 00 00       	callq  e740 <_ZN10TextParserC1EPK6w_chari>
    da19:	48 8d 05 30 6f 20 00 	lea    0x206f30(%rip),%rax        # 214950 <_ZTV11LaTeXParser+0x10>
    da20:	48 c7 83 f4 00 00 00 	movq   $0x0,0xf4(%rbx)
    da27:	00 00 00 00 
    da2b:	48 c7 83 fc 00 00 00 	movq   $0x0,0xfc(%rbx)
    da32:	00 00 00 00 
    da36:	48 89 03             	mov    %rax,(%rbx)
    da39:	5b                   	pop    %rbx
    da3a:	c3                   	retq   
    da3b:	90                   	nop
    da3c:	0f 1f 40 00          	nopl   0x0(%rax)

000000000000da40 <_ZN11LaTeXParser12look_patternEi>:
    da40:	41 57                	push   %r15
    da42:	41 56                	push   %r14
    da44:	48 8d 15 f5 63 20 00 	lea    0x2063f5(%rip),%rdx        # 213e40 <_ZL7PATTERN>
    da4b:	41 55                	push   %r13
    da4d:	41 54                	push   %r12
    da4f:	45 31 e4             	xor    %r12d,%r12d
    da52:	55                   	push   %rbp
    da53:	53                   	push   %rbx
    da54:	48 83 ec 08          	sub    $0x8,%rsp
    da58:	48 63 87 cc 00 00 00 	movslq 0xcc(%rdi),%rax
    da5f:	4c 8b b7 d0 00 00 00 	mov    0xd0(%rdi),%r14
    da66:	48 83 c0 01          	add    $0x1,%rax
    da6a:	48 c1 e0 05          	shl    $0x5,%rax
    da6e:	4c 03 34 07          	add    (%rdi,%rax,1),%r14
    da72:	48 63 c6             	movslq %esi,%rax
    da75:	4c 8d 2c c2          	lea    (%rdx,%rax,8),%r13
    da79:	0f 1f 80 00 00 00 00 	nopl   0x0(%rax)
    da80:	49 8b 6d 00          	mov    0x0(%r13),%rbp
    da84:	48 85 ed             	test   %rbp,%rbp
    da87:	74 34                	je     dabd <_ZN11LaTeXParser12look_patternEi+0x7d>
    da89:	0f be 5d 00          	movsbl 0x0(%rbp),%ebx
    da8d:	84 db                	test   %bl,%bl
    da8f:	74 40                	je     dad1 <_ZN11LaTeXParser12look_patternEi+0x91>
    da91:	4d 89 f7             	mov    %r14,%r15
    da94:	eb 1a                	jmp    dab0 <_ZN11LaTeXParser12look_patternEi+0x70>
    da96:	66 2e 0f 1f 84 00 00 	nopw   %cs:0x0(%rax,%rax,1)
    da9d:	00 00 00 
    daa0:	48 83 c5 01          	add    $0x1,%rbp
    daa4:	0f be 5d 00          	movsbl 0x0(%rbp),%ebx
    daa8:	49 83 c7 01          	add    $0x1,%r15
    daac:	84 db                	test   %bl,%bl
    daae:	74 21                	je     dad1 <_ZN11LaTeXParser12look_patternEi+0x91>
    dab0:	41 0f be 3f          	movsbl (%r15),%edi
    dab4:	e8 47 6f ff ff       	callq  4a00 <tolower@plt>
    dab9:	39 d8                	cmp    %ebx,%eax
    dabb:	74 e3                	je     daa0 <_ZN11LaTeXParser12look_patternEi+0x60>
    dabd:	41 83 c4 01          	add    $0x1,%r12d
    dac1:	49 83 c5 18          	add    $0x18,%r13
    dac5:	41 83 fc 47          	cmp    $0x47,%r12d
    dac9:	75 b5                	jne    da80 <_ZN11LaTeXParser12look_patternEi+0x40>
    dacb:	41 bc ff ff ff ff    	mov    $0xffffffff,%r12d
    dad1:	48 83 c4 08          	add    $0x8,%rsp
    dad5:	44 89 e0             	mov    %r12d,%eax
    dad8:	5b                   	pop    %rbx
    dad9:	5d                   	pop    %rbp
    dada:	41 5c                	pop    %r12
    dadc:	41 5d                	pop    %r13
    dade:	41 5e                	pop    %r14
    dae0:	41 5f                	pop    %r15
    dae2:	c3                   	retq   
    dae3:	90                   	nop
    dae4:	66 90                	xchg   %ax,%ax
    dae6:	66 2e 0f 1f 84 00 00 	nopw   %cs:0x0(%rax,%rax,1)
    daed:	00 00 00 

000000000000daf0 <_ZN11LaTeXParser10next_tokenERNSt7__cxx1112basic_stringIcSt11char_traitsIcESaIcEEE>:
    daf0:	41 57                	push   %r15
    daf2:	41 56                	push   %r14
    daf4:	49 89 f7             	mov    %rsi,%r15
    daf7:	41 55                	push   %r13
    daf9:	41 54                	push   %r12
    dafb:	4c 8d 2d 3e 63 20 00 	lea    0x20633e(%rip),%r13        # 213e40 <_ZL7PATTERN>
    db02:	55                   	push   %rbp
    db03:	53                   	push   %rbx
    db04:	4c 8d a7 d0 00 00 00 	lea    0xd0(%rdi),%r12
    db0b:	48 8d 1d 46 3f 00 00 	lea    0x3f46(%rip),%rbx        # 11a58 <_ZTS9XMLParser+0x360>
    db12:	49 89 fe             	mov    %rdi,%r14
    db15:	48 83 ec 28          	sub    $0x28,%rsp
    db19:	48 8b 06             	mov    (%rsi),%rax
    db1c:	48 c7 46 08 00 00 00 	movq   $0x0,0x8(%rsi)
    db23:	00 
    db24:	c7 44 24 0c 00 00 00 	movl   $0x0,0xc(%rsp)
    db2b:	00 
    db2c:	c6 00 00             	movb   $0x0,(%rax)
    db2f:	90                   	nop
    db30:	41 83 be e0 00 00 00 	cmpl   $0x4,0xe0(%r14)
    db37:	04 
    db38:	0f 87 f2 01 00 00    	ja     dd30 <_ZN11LaTeXParser10next_tokenERNSt7__cxx1112basic_stringIcSt11char_traitsIcESaIcEEE+0x240>
    db3e:	41 8b 86 e0 00 00 00 	mov    0xe0(%r14),%eax
    db45:	48 63 04 83          	movslq (%rbx,%rax,4),%rax
    db49:	48 01 d8             	add    %rbx,%rax
    db4c:	ff e0                	jmpq   *%rax
    db4e:	66 90                	xchg   %ax,%ax
    db50:	49 63 ae cc 00 00 00 	movslq 0xcc(%r14),%rbp
    db57:	49 8b 96 d0 00 00 00 	mov    0xd0(%r14),%rdx
    db5e:	48 89 54 24 18       	mov    %rdx,0x18(%rsp)
    db63:	48 83 c5 01          	add    $0x1,%rbp
    db67:	48 c1 e5 05          	shl    $0x5,%rbp
    db6b:	4c 01 f5             	add    %r14,%rbp
    db6e:	48 8b 75 00          	mov    0x0(%rbp),%rsi
    db72:	0f be 3c 16          	movsbl (%rsi,%rdx,1),%edi
    db76:	48 89 74 24 10       	mov    %rsi,0x10(%rsp)
    db7b:	e8 80 6e ff ff       	callq  4a00 <tolower@plt>
    db80:	83 e8 61             	sub    $0x61,%eax
    db83:	48 8b 74 24 10       	mov    0x10(%rsp),%rsi
    db88:	83 f8 19             	cmp    $0x19,%eax
    db8b:	76 23                	jbe    dbb0 <_ZN11LaTeXParser10next_tokenERNSt7__cxx1112basic_stringIcSt11char_traitsIcESaIcEEE+0xc0>
    db8d:	48 8b 54 24 18       	mov    0x18(%rsp),%rdx
    db92:	41 c7 86 e0 00 00 00 	movl   $0x0,0xe0(%r14)
    db99:	00 00 00 00 
    db9d:	48 83 ea 01          	sub    $0x1,%rdx
    dba1:	49 89 96 d0 00 00 00 	mov    %rdx,0xd0(%r14)
    dba8:	48 8b 75 00          	mov    0x0(%rbp),%rsi
    dbac:	0f 1f 40 00          	nopl   0x0(%rax)
    dbb0:	4c 89 e2             	mov    %r12,%rdx
    dbb3:	4c 89 f7             	mov    %r14,%rdi
    dbb6:	e8 b5 0e 00 00       	callq  ea70 <_ZN10TextParser9next_charEPKcPm>
    dbbb:	85 c0                	test   %eax,%eax
    dbbd:	0f 84 6d ff ff ff    	je     db30 <_ZN11LaTeXParser10next_tokenERNSt7__cxx1112basic_stringIcSt11char_traitsIcESaIcEEE+0x40>
    dbc3:	31 c0                	xor    %eax,%eax
    dbc5:	41 83 be e0 00 00 00 	cmpl   $0x5,0xe0(%r14)
    dbcc:	05 
    dbcd:	75 0b                	jne    dbda <_ZN11LaTeXParser10next_tokenERNSt7__cxx1112basic_stringIcSt11char_traitsIcESaIcEEE+0xea>
    dbcf:	41 c7 86 e0 00 00 00 	movl   $0x0,0xe0(%r14)
    dbd6:	00 00 00 00 
    dbda:	48 83 c4 28          	add    $0x28,%rsp
    dbde:	5b                   	pop    %rbx
    dbdf:	5d                   	pop    %rbp
    dbe0:	41 5c                	pop    %r12
    dbe2:	41 5d                	pop    %r13
    dbe4:	41 5e                	pop    %r14
    dbe6:	41 5f                	pop    %r15
    dbe8:	c3                   	retq   
    dbe9:	0f 1f 80 00 00 00 00 	nopl   0x0(%rax)
    dbf0:	be 01 00 00 00       	mov    $0x1,%esi
    dbf5:	4c 89 f7             	mov    %r14,%rdi
    dbf8:	e8 43 fe ff ff       	callq  da40 <_ZN11LaTeXParser12look_patternEi>
    dbfd:	49 63 ae cc 00 00 00 	movslq 0xcc(%r14),%rbp
    dc04:	48 83 c5 01          	add    $0x1,%rbp
    dc08:	48 c1 e5 05          	shl    $0x5,%rbp
    dc0c:	4c 01 f5             	add    %r14,%rbp
    dc0f:	83 f8 ff             	cmp    $0xffffffff,%eax
    dc12:	74 57                	je     dc6b <_ZN11LaTeXParser10next_tokenERNSt7__cxx1112basic_stringIcSt11char_traitsIcESaIcEEE+0x17b>
    dc14:	49 63 96 f4 00 00 00 	movslq 0xf4(%r14),%rdx
    dc1b:	48 98                	cltq   
    dc1d:	48 8d 04 40          	lea    (%rax,%rax,2),%rax
    dc21:	49 8b 7c c5 08       	mov    0x8(%r13,%rax,8),%rdi
    dc26:	48 8d 14 52          	lea    (%rdx,%rdx,2),%rdx
    dc2a:	49 8b 54 d5 08       	mov    0x8(%r13,%rdx,8),%rdx
    dc2f:	48 89 d6             	mov    %rdx,%rsi
    dc32:	48 89 54 24 10       	mov    %rdx,0x10(%rsp)
    dc37:	e8 94 6d ff ff       	callq  49d0 <strcmp@plt>
    dc3c:	85 c0                	test   %eax,%eax
    dc3e:	48 8b 54 24 10       	mov    0x10(%rsp),%rdx
    dc43:	75 26                	jne    dc6b <_ZN11LaTeXParser10next_tokenERNSt7__cxx1112basic_stringIcSt11char_traitsIcESaIcEEE+0x17b>
    dc45:	48 89 d7             	mov    %rdx,%rdi
    dc48:	41 c7 86 e0 00 00 00 	movl   $0x0,0xe0(%r14)
    dc4f:	00 00 00 00 
    dc53:	e8 98 6a ff ff       	callq  46f0 <strlen@plt>
    dc58:	49 8b 96 d0 00 00 00 	mov    0xd0(%r14),%rdx
    dc5f:	48 8d 44 10 ff       	lea    -0x1(%rax,%rdx,1),%rax
    dc64:	49 89 86 d0 00 00 00 	mov    %rax,0xd0(%r14)
    dc6b:	48 8b 75 00          	mov    0x0(%rbp),%rsi
    dc6f:	e9 3c ff ff ff       	jmpq   dbb0 <_ZN11LaTeXParser10next_tokenERNSt7__cxx1112basic_stringIcSt11char_traitsIcESaIcEEE+0xc0>
    dc74:	0f 1f 40 00          	nopl   0x0(%rax)
    dc78:	48 8d 35 d5 3d 00 00 	lea    0x3dd5(%rip),%rsi        # 11a54 <_ZTS9XMLParser+0x35c>
    dc7f:	4c 89 f7             	mov    %r14,%rdi
    dc82:	e8 79 0b 00 00       	callq  e800 <_ZN10TextParser11is_wordcharEPKc>
    dc87:	85 c0                	test   %eax,%eax
    dc89:	0f 85 a9 01 00 00    	jne    de38 <_ZN11LaTeXParser10next_tokenERNSt7__cxx1112basic_stringIcSt11char_traitsIcESaIcEEE+0x348>
    dc8f:	45 8b 8e e4 00 00 00 	mov    0xe4(%r14),%r9d
    dc96:	45 85 c9             	test   %r9d,%r9d
    dc99:	0f 85 81 01 00 00    	jne    de20 <_ZN11LaTeXParser10next_tokenERNSt7__cxx1112basic_stringIcSt11char_traitsIcESaIcEEE+0x330>
    dc9f:	49 63 96 cc 00 00 00 	movslq 0xcc(%r14),%rdx
    dca6:	49 8b 86 d0 00 00 00 	mov    0xd0(%r14),%rax
    dcad:	48 83 c2 01          	add    $0x1,%rdx
    dcb1:	48 c1 e2 05          	shl    $0x5,%rdx
    dcb5:	49 03 04 16          	add    (%r14,%rdx,1),%rax
    dcb9:	48 89 c6             	mov    %rax,%rsi
    dcbc:	4c 89 f7             	mov    %r14,%rdi
    dcbf:	e8 3c 0b 00 00       	callq  e800 <_ZN10TextParser11is_wordcharEPKc>
    dcc4:	85 c0                	test   %eax,%eax
    dcc6:	0f 84 6c 02 00 00    	je     df38 <_ZN11LaTeXParser10next_tokenERNSt7__cxx1112basic_stringIcSt11char_traitsIcESaIcEEE+0x448>
    dccc:	49 63 86 cc 00 00 00 	movslq 0xcc(%r14),%rax
    dcd3:	49 8b 96 d0 00 00 00 	mov    0xd0(%r14),%rdx
    dcda:	48 83 c0 01          	add    $0x1,%rax
    dcde:	48 c1 e0 05          	shl    $0x5,%rax
    dce2:	49 8b 34 06          	mov    (%r14,%rax,1),%rsi
    dce6:	80 3c 16 27          	cmpb   $0x27,(%rsi,%rdx,1)
    dcea:	0f 85 c0 fe ff ff    	jne    dbb0 <_ZN11LaTeXParser10next_tokenERNSt7__cxx1112basic_stringIcSt11char_traitsIcESaIcEEE+0xc0>
    dcf0:	80 7c 16 01 27       	cmpb   $0x27,0x1(%rsi,%rdx,1)
    dcf5:	0f 85 b5 fe ff ff    	jne    dbb0 <_ZN11LaTeXParser10next_tokenERNSt7__cxx1112basic_stringIcSt11char_traitsIcESaIcEEE+0xc0>
    dcfb:	49 8b b6 d8 00 00 00 	mov    0xd8(%r14),%rsi
    dd02:	41 c7 86 e0 00 00 00 	movl   $0x0,0xe0(%r14)
    dd09:	00 00 00 00 
    dd0d:	4c 89 f9             	mov    %r15,%rcx
    dd10:	4c 89 e2             	mov    %r12,%rdx
    dd13:	4c 89 f7             	mov    %r14,%rdi
    dd16:	e8 45 0f 00 00       	callq  ec60 <_ZN10TextParser11alloc_tokenEmPmRNSt7__cxx1112basic_stringIcSt11char_traitsIcESaIcEEE>
    dd1b:	49 83 86 d0 00 00 00 	addq   $0x2,0xd0(%r14)
    dd22:	02 
    dd23:	84 c0                	test   %al,%al
    dd25:	0f 85 af fe ff ff    	jne    dbda <_ZN11LaTeXParser10next_tokenERNSt7__cxx1112basic_stringIcSt11char_traitsIcESaIcEEE+0xea>
    dd2b:	0f 1f 44 00 00       	nopl   0x0(%rax,%rax,1)
    dd30:	49 63 86 cc 00 00 00 	movslq 0xcc(%r14),%rax
    dd37:	48 83 c0 01          	add    $0x1,%rax
    dd3b:	48 c1 e0 05          	shl    $0x5,%rax
    dd3f:	49 8b 34 06          	mov    (%r14,%rax,1),%rsi
    dd43:	e9 68 fe ff ff       	jmpq   dbb0 <_ZN11LaTeXParser10next_tokenERNSt7__cxx1112basic_stringIcSt11char_traitsIcESaIcEEE+0xc0>
    dd48:	0f 1f 84 00 00 00 00 	nopl   0x0(%rax,%rax,1)
    dd4f:	00 
    dd50:	31 f6                	xor    %esi,%esi
    dd52:	4c 89 f7             	mov    %r14,%rdi
    dd55:	e8 e6 fc ff ff       	callq  da40 <_ZN11LaTeXParser12look_patternEi>
    dd5a:	49 63 ae cc 00 00 00 	movslq 0xcc(%r14),%rbp
    dd61:	41 89 86 f4 00 00 00 	mov    %eax,0xf4(%r14)
    dd68:	49 8b b6 d0 00 00 00 	mov    0xd0(%r14),%rsi
    dd6f:	48 83 c5 01          	add    $0x1,%rbp
    dd73:	48 c1 e5 05          	shl    $0x5,%rbp
    dd77:	4c 01 f5             	add    %r14,%rbp
    dd7a:	83 f8 ff             	cmp    $0xffffffff,%eax
    dd7d:	0f 84 95 01 00 00    	je     df18 <_ZN11LaTeXParser10next_tokenERNSt7__cxx1112basic_stringIcSt11char_traitsIcESaIcEEE+0x428>
    dd83:	48 98                	cltq   
    dd85:	48 8d 14 40          	lea    (%rax,%rax,2),%rdx
    dd89:	49 83 7c d5 08 00    	cmpq   $0x0,0x8(%r13,%rdx,8)
    dd8f:	0f 84 5b 02 00 00    	je     dff0 <_ZN11LaTeXParser10next_tokenERNSt7__cxx1112basic_stringIcSt11char_traitsIcESaIcEEE+0x500>
    dd95:	41 c7 86 e0 00 00 00 	movl   $0x2,0xe0(%r14)
    dd9c:	02 00 00 00 
    dda0:	48 8d 04 40          	lea    (%rax,%rax,2),%rax
    dda4:	48 89 74 24 10       	mov    %rsi,0x10(%rsp)
    dda9:	49 8b 7c c5 00       	mov    0x0(%r13,%rax,8),%rdi
    ddae:	e8 3d 69 ff ff       	callq  46f0 <strlen@plt>
    ddb3:	48 8b 74 24 10       	mov    0x10(%rsp),%rsi
    ddb8:	48 8d 44 06 ff       	lea    -0x1(%rsi,%rax,1),%rax
    ddbd:	49 89 86 d0 00 00 00 	mov    %rax,0xd0(%r14)
    ddc4:	48 8b 75 00          	mov    0x0(%rbp),%rsi
    ddc8:	e9 e3 fd ff ff       	jmpq   dbb0 <_ZN11LaTeXParser10next_tokenERNSt7__cxx1112basic_stringIcSt11char_traitsIcESaIcEEE+0xc0>
    ddcd:	0f 1f 00             	nopl   (%rax)
    ddd0:	49 63 86 cc 00 00 00 	movslq 0xcc(%r14),%rax
    ddd7:	8b 7c 24 0c          	mov    0xc(%rsp),%edi
    dddb:	49 8b 96 d0 00 00 00 	mov    0xd0(%r14),%rdx
    dde2:	48 83 c0 01          	add    $0x1,%rax
    dde6:	48 c1 e0 05          	shl    $0x5,%rax
    ddea:	4c 01 f0             	add    %r14,%rax
    dded:	85 ff                	test   %edi,%edi
    ddef:	48 8b 30             	mov    (%rax),%rsi
    ddf2:	0f b6 0c 16          	movzbl (%rsi,%rdx,1),%ecx
    ddf6:	0f 84 04 01 00 00    	je     df00 <_ZN11LaTeXParser10next_tokenERNSt7__cxx1112basic_stringIcSt11char_traitsIcESaIcEEE+0x410>
    ddfc:	84 c9                	test   %cl,%cl
    ddfe:	0f 84 ac fd ff ff    	je     dbb0 <_ZN11LaTeXParser10next_tokenERNSt7__cxx1112basic_stringIcSt11char_traitsIcESaIcEEE+0xc0>
    de04:	48 83 c2 01          	add    $0x1,%rdx
    de08:	c7 44 24 0c 00 00 00 	movl   $0x0,0xc(%rsp)
    de0f:	00 
    de10:	49 89 96 d0 00 00 00 	mov    %rdx,0xd0(%r14)
    de17:	48 8b 30             	mov    (%rax),%rsi
    de1a:	e9 91 fd ff ff       	jmpq   dbb0 <_ZN11LaTeXParser10next_tokenERNSt7__cxx1112basic_stringIcSt11char_traitsIcESaIcEEE+0xc0>
    de1f:	90                   	nop
    de20:	48 8d 35 c1 33 00 00 	lea    0x33c1(%rip),%rsi        # 111e8 <_IO_stdin_used+0xde8>
    de27:	4c 89 f7             	mov    %r14,%rdi
    de2a:	e8 d1 09 00 00       	callq  e800 <_ZN10TextParser11is_wordcharEPKc>
    de2f:	85 c0                	test   %eax,%eax
    de31:	74 32                	je     de65 <_ZN11LaTeXParser10next_tokenERNSt7__cxx1112basic_stringIcSt11char_traitsIcESaIcEEE+0x375>
    de33:	0f 1f 44 00 00       	nopl   0x0(%rax,%rax,1)
    de38:	49 63 86 cc 00 00 00 	movslq 0xcc(%r14),%rax
    de3f:	48 83 c0 01          	add    $0x1,%rax
    de43:	48 c1 e0 05          	shl    $0x5,%rax
    de47:	4c 01 f0             	add    %r14,%rax
    de4a:	48 83 78 08 00       	cmpq   $0x0,0x8(%rax)
    de4f:	74 14                	je     de65 <_ZN11LaTeXParser10next_tokenERNSt7__cxx1112basic_stringIcSt11char_traitsIcESaIcEEE+0x375>
    de51:	49 8b 96 d0 00 00 00 	mov    0xd0(%r14),%rdx
    de58:	48 8b 00             	mov    (%rax),%rax
    de5b:	80 3c 10 27          	cmpb   $0x27,(%rax,%rdx,1)
    de5f:	0f 84 40 02 00 00    	je     e0a5 <_ZN11LaTeXParser10next_tokenERNSt7__cxx1112basic_stringIcSt11char_traitsIcESaIcEEE+0x5b5>
    de65:	45 8b 86 e4 00 00 00 	mov    0xe4(%r14),%r8d
    de6c:	45 85 c0             	test   %r8d,%r8d
    de6f:	0f 84 2a fe ff ff    	je     dc9f <_ZN11LaTeXParser10next_tokenERNSt7__cxx1112basic_stringIcSt11char_traitsIcESaIcEEE+0x1af>
    de75:	48 8d 35 d8 3b 00 00 	lea    0x3bd8(%rip),%rsi        # 11a54 <_ZTS9XMLParser+0x35c>
    de7c:	4c 89 f7             	mov    %r14,%rdi
    de7f:	e8 7c 09 00 00       	callq  e800 <_ZN10TextParser11is_wordcharEPKc>
    de84:	85 c0                	test   %eax,%eax
    de86:	0f 84 13 fe ff ff    	je     dc9f <_ZN11LaTeXParser10next_tokenERNSt7__cxx1112basic_stringIcSt11char_traitsIcESaIcEEE+0x1af>
    de8c:	49 63 86 cc 00 00 00 	movslq 0xcc(%r14),%rax
    de93:	4d 8b 8e d0 00 00 00 	mov    0xd0(%r14),%r9
    de9a:	48 8d 3d 47 33 00 00 	lea    0x3347(%rip),%rdi        # 111e8 <_IO_stdin_used+0xde8>
    dea1:	b9 03 00 00 00       	mov    $0x3,%ecx
    dea6:	48 83 c0 01          	add    $0x1,%rax
    deaa:	48 c1 e0 05          	shl    $0x5,%rax
    deae:	4d 8b 14 06          	mov    (%r14,%rax,1),%r10
    deb2:	4b 8d 04 0a          	lea    (%r10,%r9,1),%rax
    deb6:	48 89 c6             	mov    %rax,%rsi
    deb9:	f3 a6                	repz cmpsb %es:(%rdi),%ds:(%rsi)
    debb:	0f 97 c2             	seta   %dl
    debe:	80 da 00             	sbb    $0x0,%dl
    dec1:	84 d2                	test   %dl,%dl
    dec3:	0f 85 f0 fd ff ff    	jne    dcb9 <_ZN11LaTeXParser10next_tokenERNSt7__cxx1112basic_stringIcSt11char_traitsIcESaIcEEE+0x1c9>
    dec9:	4b 8d 74 0a 03       	lea    0x3(%r10,%r9,1),%rsi
    dece:	4c 89 f7             	mov    %r14,%rdi
    ded1:	e8 2a 09 00 00       	callq  e800 <_ZN10TextParser11is_wordcharEPKc>
    ded6:	85 c0                	test   %eax,%eax
    ded8:	0f 84 c1 fd ff ff    	je     dc9f <_ZN11LaTeXParser10next_tokenERNSt7__cxx1112basic_stringIcSt11char_traitsIcESaIcEEE+0x1af>
    dede:	49 63 86 cc 00 00 00 	movslq 0xcc(%r14),%rax
    dee5:	49 83 86 d0 00 00 00 	addq   $0x2,0xd0(%r14)
    deec:	02 
    deed:	48 83 c0 01          	add    $0x1,%rax
    def1:	48 c1 e0 05          	shl    $0x5,%rax
    def5:	49 8b 34 06          	mov    (%r14,%rax,1),%rsi
    def9:	e9 b2 fc ff ff       	jmpq   dbb0 <_ZN11LaTeXParser10next_tokenERNSt7__cxx1112basic_stringIcSt11char_traitsIcESaIcEEE+0xc0>
    defe:	66 90                	xchg   %ax,%ax
    df00:	80 f9 5c             	cmp    $0x5c,%cl
    df03:	75 63                	jne    df68 <_ZN11LaTeXParser10next_tokenERNSt7__cxx1112basic_stringIcSt11char_traitsIcESaIcEEE+0x478>
    df05:	c7 44 24 0c 01 00 00 	movl   $0x1,0xc(%rsp)
    df0c:	00 
    df0d:	e9 9e fc ff ff       	jmpq   dbb0 <_ZN11LaTeXParser10next_tokenERNSt7__cxx1112basic_stringIcSt11char_traitsIcESaIcEEE+0xc0>
    df12:	66 0f 1f 44 00 00    	nopw   0x0(%rax,%rax,1)
    df18:	48 03 75 00          	add    0x0(%rbp),%rsi
    df1c:	80 3e 25             	cmpb   $0x25,(%rsi)
    df1f:	75 6f                	jne    df90 <_ZN11LaTeXParser10next_tokenERNSt7__cxx1112basic_stringIcSt11char_traitsIcESaIcEEE+0x4a0>
    df21:	41 c7 86 e0 00 00 00 	movl   $0x5,0xe0(%r14)
    df28:	05 00 00 00 
    df2c:	48 8b 75 00          	mov    0x0(%rbp),%rsi
    df30:	e9 7b fc ff ff       	jmpq   dbb0 <_ZN11LaTeXParser10next_tokenERNSt7__cxx1112basic_stringIcSt11char_traitsIcESaIcEEE+0xc0>
    df35:	0f 1f 00             	nopl   (%rax)
    df38:	49 8b b6 d8 00 00 00 	mov    0xd8(%r14),%rsi
    df3f:	41 c7 86 e0 00 00 00 	movl   $0x0,0xe0(%r14)
    df46:	00 00 00 00 
    df4a:	4c 89 f9             	mov    %r15,%rcx
    df4d:	4c 89 e2             	mov    %r12,%rdx
    df50:	4c 89 f7             	mov    %r14,%rdi
    df53:	e8 08 0d 00 00       	callq  ec60 <_ZN10TextParser11alloc_tokenEmPmRNSt7__cxx1112basic_stringIcSt11char_traitsIcESaIcEEE>
    df58:	84 c0                	test   %al,%al
    df5a:	0f 84 d0 fd ff ff    	je     dd30 <_ZN11LaTeXParser10next_tokenERNSt7__cxx1112basic_stringIcSt11char_traitsIcESaIcEEE+0x240>
    df60:	e9 75 fc ff ff       	jmpq   dbda <_ZN11LaTeXParser10next_tokenERNSt7__cxx1112basic_stringIcSt11char_traitsIcESaIcEEE+0xea>
    df65:	0f 1f 00             	nopl   (%rax)
    df68:	80 f9 7b             	cmp    $0x7b,%cl
    df6b:	0f 85 cf 00 00 00    	jne    e040 <_ZN11LaTeXParser10next_tokenERNSt7__cxx1112basic_stringIcSt11char_traitsIcESaIcEEE+0x550>
    df71:	41 83 86 f8 00 00 00 	addl   $0x1,0xf8(%r14)
    df78:	01 
    df79:	41 c7 86 00 01 00 00 	movl   $0x0,0x100(%r14)
    df80:	00 00 00 00 
    df84:	48 8b 30             	mov    (%rax),%rsi
    df87:	e9 24 fc ff ff       	jmpq   dbb0 <_ZN11LaTeXParser10next_tokenERNSt7__cxx1112basic_stringIcSt11char_traitsIcESaIcEEE+0xc0>
    df8c:	0f 1f 40 00          	nopl   0x0(%rax)
    df90:	4c 89 f7             	mov    %r14,%rdi
    df93:	e8 68 08 00 00       	callq  e800 <_ZN10TextParser11is_wordcharEPKc>
    df98:	85 c0                	test   %eax,%eax
    df9a:	0f 85 80 00 00 00    	jne    e020 <_ZN11LaTeXParser10next_tokenERNSt7__cxx1112basic_stringIcSt11char_traitsIcESaIcEEE+0x530>
    dfa0:	49 63 86 cc 00 00 00 	movslq 0xcc(%r14),%rax
    dfa7:	49 8b 96 d0 00 00 00 	mov    0xd0(%r14),%rdx
    dfae:	48 83 c0 01          	add    $0x1,%rax
    dfb2:	48 c1 e0 05          	shl    $0x5,%rax
    dfb6:	4c 01 f0             	add    %r14,%rax
    dfb9:	48 8b 30             	mov    (%rax),%rsi
    dfbc:	80 3c 16 5c          	cmpb   $0x5c,(%rsi,%rdx,1)
    dfc0:	0f 85 ea fb ff ff    	jne    dbb0 <_ZN11LaTeXParser10next_tokenERNSt7__cxx1112basic_stringIcSt11char_traitsIcESaIcEEE+0xc0>
    dfc6:	48 8d 7a 01          	lea    0x1(%rdx),%rdi
    dfca:	0f b6 54 16 01       	movzbl 0x1(%rsi,%rdx,1),%edx
    dfcf:	8d 4a dc             	lea    -0x24(%rdx),%ecx
    dfd2:	80 f9 01             	cmp    $0x1,%cl
    dfd5:	76 09                	jbe    dfe0 <_ZN11LaTeXParser10next_tokenERNSt7__cxx1112basic_stringIcSt11char_traitsIcESaIcEEE+0x4f0>
    dfd7:	80 fa 5c             	cmp    $0x5c,%dl
    dfda:	0f 85 30 01 00 00    	jne    e110 <_ZN11LaTeXParser10next_tokenERNSt7__cxx1112basic_stringIcSt11char_traitsIcESaIcEEE+0x620>
    dfe0:	49 89 be d0 00 00 00 	mov    %rdi,0xd0(%r14)
    dfe7:	48 8b 30             	mov    (%rax),%rsi
    dfea:	e9 c1 fb ff ff       	jmpq   dbb0 <_ZN11LaTeXParser10next_tokenERNSt7__cxx1112basic_stringIcSt11char_traitsIcESaIcEEE+0xc0>
    dfef:	90                   	nop
    dff0:	41 c7 86 e0 00 00 00 	movl   $0x4,0xe0(%r14)
    dff7:	04 00 00 00 
    dffb:	49 c7 86 f8 00 00 00 	movq   $0x0,0xf8(%r14)
    e002:	00 00 00 00 
    e006:	41 c7 86 00 01 00 00 	movl   $0x1,0x100(%r14)
    e00d:	01 00 00 00 
    e011:	e9 8a fd ff ff       	jmpq   dda0 <_ZN11LaTeXParser10next_tokenERNSt7__cxx1112basic_stringIcSt11char_traitsIcESaIcEEE+0x2b0>
    e016:	66 2e 0f 1f 84 00 00 	nopw   %cs:0x0(%rax,%rax,1)
    e01d:	00 00 00 
    e020:	49 8b 86 d0 00 00 00 	mov    0xd0(%r14),%rax
    e027:	41 c7 86 e0 00 00 00 	movl   $0x1,0xe0(%r14)
    e02e:	01 00 00 00 
    e032:	49 89 86 d8 00 00 00 	mov    %rax,0xd8(%r14)
    e039:	e9 f2 fc ff ff       	jmpq   dd30 <_ZN11LaTeXParser10next_tokenERNSt7__cxx1112basic_stringIcSt11char_traitsIcESaIcEEE+0x240>
    e03e:	66 90                	xchg   %ax,%ax
    e040:	41 8b 96 00 01 00 00 	mov    0x100(%r14),%edx
    e047:	85 d2                	test   %edx,%edx
    e049:	74 09                	je     e054 <_ZN11LaTeXParser10next_tokenERNSt7__cxx1112basic_stringIcSt11char_traitsIcESaIcEEE+0x564>
    e04b:	80 f9 5b             	cmp    $0x5b,%cl
    e04e:	0f 84 1d ff ff ff    	je     df71 <_ZN11LaTeXParser10next_tokenERNSt7__cxx1112basic_stringIcSt11char_traitsIcESaIcEEE+0x481>
    e054:	80 f9 7d             	cmp    $0x7d,%cl
    e057:	0f 85 92 00 00 00    	jne    e0ef <_ZN11LaTeXParser10next_tokenERNSt7__cxx1112basic_stringIcSt11char_traitsIcESaIcEEE+0x5ff>
    e05d:	41 83 ae f8 00 00 00 	subl   $0x1,0xf8(%r14)
    e064:	01 
    e065:	75 73                	jne    e0da <_ZN11LaTeXParser10next_tokenERNSt7__cxx1112basic_stringIcSt11char_traitsIcESaIcEEE+0x5ea>
    e067:	41 8b 8e fc 00 00 00 	mov    0xfc(%r14),%ecx
    e06e:	41 c7 86 00 01 00 00 	movl   $0x1,0x100(%r14)
    e075:	01 00 00 00 
    e079:	8d 51 01             	lea    0x1(%rcx),%edx
    e07c:	49 63 8e f4 00 00 00 	movslq 0xf4(%r14),%rcx
    e083:	41 89 96 fc 00 00 00 	mov    %edx,0xfc(%r14)
    e08a:	48 8d 0c 49          	lea    (%rcx,%rcx,2),%rcx
    e08e:	41 3b 54 cd 10       	cmp    0x10(%r13,%rcx,8),%edx
    e093:	74 47                	je     e0dc <_ZN11LaTeXParser10next_tokenERNSt7__cxx1112basic_stringIcSt11char_traitsIcESaIcEEE+0x5ec>
    e095:	48 8b 30             	mov    (%rax),%rsi
    e098:	c7 44 24 0c 00 00 00 	movl   $0x0,0xc(%rsp)
    e09f:	00 
    e0a0:	e9 0b fb ff ff       	jmpq   dbb0 <_ZN11LaTeXParser10next_tokenERNSt7__cxx1112basic_stringIcSt11char_traitsIcESaIcEEE+0xc0>
    e0a5:	48 8d 74 10 01       	lea    0x1(%rax,%rdx,1),%rsi
    e0aa:	4c 89 f7             	mov    %r14,%rdi
    e0ad:	e8 4e 07 00 00       	callq  e800 <_ZN10TextParser11is_wordcharEPKc>
    e0b2:	85 c0                	test   %eax,%eax
    e0b4:	0f 84 ab fd ff ff    	je     de65 <_ZN11LaTeXParser10next_tokenERNSt7__cxx1112basic_stringIcSt11char_traitsIcESaIcEEE+0x375>
    e0ba:	49 63 86 cc 00 00 00 	movslq 0xcc(%r14),%rax
    e0c1:	49 83 86 d0 00 00 00 	addq   $0x1,0xd0(%r14)
    e0c8:	01 
    e0c9:	48 83 c0 01          	add    $0x1,%rax
    e0cd:	48 c1 e0 05          	shl    $0x5,%rax
    e0d1:	49 8b 34 06          	mov    (%r14,%rax,1),%rsi
    e0d5:	e9 d6 fa ff ff       	jmpq   dbb0 <_ZN11LaTeXParser10next_tokenERNSt7__cxx1112basic_stringIcSt11char_traitsIcESaIcEEE+0xc0>
    e0da:	79 2c                	jns    e108 <_ZN11LaTeXParser10next_tokenERNSt7__cxx1112basic_stringIcSt11char_traitsIcESaIcEEE+0x618>
    e0dc:	41 c7 86 e0 00 00 00 	movl   $0x0,0xe0(%r14)
    e0e3:	00 00 00 00 
    e0e7:	48 8b 30             	mov    (%rax),%rsi
    e0ea:	e9 c1 fa ff ff       	jmpq   dbb0 <_ZN11LaTeXParser10next_tokenERNSt7__cxx1112basic_stringIcSt11char_traitsIcESaIcEEE+0xc0>
    e0ef:	80 f9 5d             	cmp    $0x5d,%cl
    e0f2:	0f 85 b8 fa ff ff    	jne    dbb0 <_ZN11LaTeXParser10next_tokenERNSt7__cxx1112basic_stringIcSt11char_traitsIcESaIcEEE+0xc0>
    e0f8:	41 83 ae f8 00 00 00 	subl   $0x1,0xf8(%r14)
    e0ff:	01 
    e100:	48 8b 30             	mov    (%rax),%rsi
    e103:	e9 a8 fa ff ff       	jmpq   dbb0 <_ZN11LaTeXParser10next_tokenERNSt7__cxx1112basic_stringIcSt11char_traitsIcESaIcEEE+0xc0>
    e108:	48 8b 30             	mov    (%rax),%rsi
    e10b:	e9 a0 fa ff ff       	jmpq   dbb0 <_ZN11LaTeXParser10next_tokenERNSt7__cxx1112basic_stringIcSt11char_traitsIcESaIcEEE+0xc0>
    e110:	41 c7 86 e0 00 00 00 	movl   $0x3,0xe0(%r14)
    e117:	03 00 00 00 
    e11b:	48 8b 30             	mov    (%rax),%rsi
    e11e:	e9 8d fa ff ff       	jmpq   dbb0 <_ZN11LaTeXParser10next_tokenERNSt7__cxx1112basic_stringIcSt11char_traitsIcESaIcEEE+0xc0>
    e123:	66 2e 0f 1f 84 00 00 	nopw   %cs:0x0(%rax,%rax,1)
    e12a:	00 00 00 
    e12d:	0f 1f 00             	nopl   (%rax)

000000000000e130 <_ZN9ManParserD1Ev>:
    e130:	48 8d 05 69 68 20 00 	lea    0x206869(%rip),%rax        # 2149a0 <_ZTV9ManParser+0x10>
    e137:	48 89 07             	mov    %rax,(%rdi)
    e13a:	e9 61 05 00 00       	jmpq   e6a0 <_ZN10TextParserD1Ev>
    e13f:	90                   	nop

000000000000e140 <_ZN9ManParserD0Ev>:
    e140:	48 8d 05 59 68 20 00 	lea    0x206859(%rip),%rax        # 2149a0 <_ZTV9ManParser+0x10>
    e147:	53                   	push   %rbx
    e148:	48 89 fb             	mov    %rdi,%rbx
    e14b:	48 89 07             	mov    %rax,(%rdi)
    e14e:	e8 4d 05 00 00       	callq  e6a0 <_ZN10TextParserD1Ev>
    e153:	48 89 df             	mov    %rbx,%rdi
    e156:	be f8 00 00 00       	mov    $0xf8,%esi
    e15b:	5b                   	pop    %rbx
    e15c:	e9 ff 66 ff ff       	jmpq   4860 <_ZdlPvm@plt>
    e161:	90                   	nop
    e162:	0f 1f 40 00          	nopl   0x0(%rax)
    e166:	66 2e 0f 1f 84 00 00 	nopw   %cs:0x0(%rax,%rax,1)
    e16d:	00 00 00 

000000000000e170 <_ZN9ManParser10next_tokenERNSt7__cxx1112basic_stringIcSt11char_traitsIcESaIcEEE>:
    e170:	41 54                	push   %r12
    e172:	49 89 fc             	mov    %rdi,%r12
    e175:	55                   	push   %rbp
    e176:	48 89 f5             	mov    %rsi,%rbp
    e179:	53                   	push   %rbx
    e17a:	48 8d 9f d0 00 00 00 	lea    0xd0(%rdi),%rbx
    e181:	eb 52                	jmp    e1d5 <_ZN9ManParser10next_tokenERNSt7__cxx1112basic_stringIcSt11char_traitsIcESaIcEEE+0x65>
    e183:	0f 1f 44 00 00       	nopl   0x0(%rax,%rax,1)
    e188:	83 fa 02             	cmp    $0x2,%edx
    e18b:	0f 84 89 00 00 00    	je     e21a <_ZN9ManParser10next_tokenERNSt7__cxx1112basic_stringIcSt11char_traitsIcESaIcEEE+0xaa>
    e191:	83 fa 03             	cmp    $0x3,%edx
    e194:	75 2c                	jne    e1c2 <_ZN9ManParser10next_tokenERNSt7__cxx1112basic_stringIcSt11char_traitsIcESaIcEEE+0x52>
    e196:	49 03 b4 24 d0 00 00 	add    0xd0(%r12),%rsi
    e19d:	00 
    e19e:	4c 89 e7             	mov    %r12,%rdi
    e1a1:	e8 5a 06 00 00       	callq  e800 <_ZN10TextParser11is_wordcharEPKc>
    e1a6:	85 c0                	test   %eax,%eax
    e1a8:	0f 84 82 01 00 00    	je     e330 <_ZN9ManParser10next_tokenERNSt7__cxx1112basic_stringIcSt11char_traitsIcESaIcEEE+0x1c0>
    e1ae:	49 63 84 24 cc 00 00 	movslq 0xcc(%r12),%rax
    e1b5:	00 
    e1b6:	48 83 c0 01          	add    $0x1,%rax
    e1ba:	48 c1 e0 05          	shl    $0x5,%rax
    e1be:	49 8b 34 04          	mov    (%r12,%rax,1),%rsi
    e1c2:	48 89 da             	mov    %rbx,%rdx
    e1c5:	4c 89 e7             	mov    %r12,%rdi
    e1c8:	e8 a3 08 00 00       	callq  ea70 <_ZN10TextParser9next_charEPKcPm>
    e1cd:	85 c0                	test   %eax,%eax
    e1cf:	0f 85 a3 00 00 00    	jne    e278 <_ZN9ManParser10next_tokenERNSt7__cxx1112basic_stringIcSt11char_traitsIcESaIcEEE+0x108>
    e1d5:	49 63 84 24 cc 00 00 	movslq 0xcc(%r12),%rax
    e1dc:	00 
    e1dd:	41 8b 94 24 e0 00 00 	mov    0xe0(%r12),%edx
    e1e4:	00 
    e1e5:	48 83 c0 01          	add    $0x1,%rax
    e1e9:	48 c1 e0 05          	shl    $0x5,%rax
    e1ed:	4c 01 e0             	add    %r12,%rax
    e1f0:	83 fa 01             	cmp    $0x1,%edx
    e1f3:	48 8b 30             	mov    (%rax),%rsi
    e1f6:	0f 84 94 00 00 00    	je     e290 <_ZN9ManParser10next_tokenERNSt7__cxx1112basic_stringIcSt11char_traitsIcESaIcEEE+0x120>
    e1fc:	7f 8a                	jg     e188 <_ZN9ManParser10next_tokenERNSt7__cxx1112basic_stringIcSt11char_traitsIcESaIcEEE+0x18>
    e1fe:	85 d2                	test   %edx,%edx
    e200:	75 c0                	jne    e1c2 <_ZN9ManParser10next_tokenERNSt7__cxx1112basic_stringIcSt11char_traitsIcESaIcEEE+0x52>
    e202:	80 3e 2e             	cmpb   $0x2e,(%rsi)
    e205:	0f 84 0d 01 00 00    	je     e318 <_ZN9ManParser10next_tokenERNSt7__cxx1112basic_stringIcSt11char_traitsIcESaIcEEE+0x1a8>
    e20b:	41 c7 84 24 e0 00 00 	movl   $0x2,0xe0(%r12)
    e212:	00 02 00 00 00 
    e217:	48 8b 30             	mov    (%rax),%rsi
    e21a:	49 03 b4 24 d0 00 00 	add    0xd0(%r12),%rsi
    e221:	00 
    e222:	4c 89 e7             	mov    %r12,%rdi
    e225:	e8 d6 05 00 00       	callq  e800 <_ZN10TextParser11is_wordcharEPKc>
    e22a:	85 c0                	test   %eax,%eax
    e22c:	0f 84 8e 00 00 00    	je     e2c0 <_ZN9ManParser10next_tokenERNSt7__cxx1112basic_stringIcSt11char_traitsIcESaIcEEE+0x150>
    e232:	49 8b 84 24 d0 00 00 	mov    0xd0(%r12),%rax
    e239:	00 
    e23a:	41 c7 84 24 e0 00 00 	movl   $0x3,0xe0(%r12)
    e241:	00 03 00 00 00 
    e246:	48 89 da             	mov    %rbx,%rdx
    e249:	4c 89 e7             	mov    %r12,%rdi
    e24c:	49 89 84 24 d8 00 00 	mov    %rax,0xd8(%r12)
    e253:	00 
    e254:	49 63 84 24 cc 00 00 	movslq 0xcc(%r12),%rax
    e25b:	00 
    e25c:	48 83 c0 01          	add    $0x1,%rax
    e260:	48 c1 e0 05          	shl    $0x5,%rax
    e264:	49 8b 34 04          	mov    (%r12,%rax,1),%rsi
    e268:	e8 03 08 00 00       	callq  ea70 <_ZN10TextParser9next_charEPKcPm>
    e26d:	85 c0                	test   %eax,%eax
    e26f:	0f 84 60 ff ff ff    	je     e1d5 <_ZN9ManParser10next_tokenERNSt7__cxx1112basic_stringIcSt11char_traitsIcESaIcEEE+0x65>
    e275:	0f 1f 00             	nopl   (%rax)
    e278:	41 c7 84 24 e0 00 00 	movl   $0x0,0xe0(%r12)
    e27f:	00 00 00 00 00 
    e284:	31 c0                	xor    %eax,%eax
    e286:	5b                   	pop    %rbx
    e287:	5d                   	pop    %rbp
    e288:	41 5c                	pop    %r12
    e28a:	c3                   	retq   
    e28b:	0f 1f 44 00 00       	nopl   0x0(%rax,%rax,1)
    e290:	49 8b 94 24 d0 00 00 	mov    0xd0(%r12),%rdx
    e297:	00 
    e298:	80 3c 16 20          	cmpb   $0x20,(%rsi,%rdx,1)
    e29c:	0f 85 20 ff ff ff    	jne    e1c2 <_ZN9ManParser10next_tokenERNSt7__cxx1112basic_stringIcSt11char_traitsIcESaIcEEE+0x52>
    e2a2:	41 c7 84 24 e0 00 00 	movl   $0x2,0xe0(%r12)
    e2a9:	00 02 00 00 00 
    e2ae:	48 8b 30             	mov    (%rax),%rsi
    e2b1:	e9 0c ff ff ff       	jmpq   e1c2 <_ZN9ManParser10next_tokenERNSt7__cxx1112basic_stringIcSt11char_traitsIcESaIcEEE+0x52>
    e2b6:	66 2e 0f 1f 84 00 00 	nopw   %cs:0x0(%rax,%rax,1)
    e2bd:	00 00 00 
    e2c0:	49 63 84 24 cc 00 00 	movslq 0xcc(%r12),%rax
    e2c7:	00 
    e2c8:	49 8b 94 24 d0 00 00 	mov    0xd0(%r12),%rdx
    e2cf:	00 
    e2d0:	48 83 c0 01          	add    $0x1,%rax
    e2d4:	48 c1 e0 05          	shl    $0x5,%rax
    e2d8:	4c 01 e0             	add    %r12,%rax
    e2db:	48 8b 30             	mov    (%rax),%rsi
    e2de:	80 3c 16 5c          	cmpb   $0x5c,(%rsi,%rdx,1)
    e2e2:	0f 85 da fe ff ff    	jne    e1c2 <_ZN9ManParser10next_tokenERNSt7__cxx1112basic_stringIcSt11char_traitsIcESaIcEEE+0x52>
    e2e8:	80 7c 16 01 66       	cmpb   $0x66,0x1(%rsi,%rdx,1)
    e2ed:	0f 85 cf fe ff ff    	jne    e1c2 <_ZN9ManParser10next_tokenERNSt7__cxx1112basic_stringIcSt11char_traitsIcESaIcEEE+0x52>
    e2f3:	80 7c 16 02 00       	cmpb   $0x0,0x2(%rsi,%rdx,1)
    e2f8:	48 8d 4a 02          	lea    0x2(%rdx),%rcx
    e2fc:	0f 84 c0 fe ff ff    	je     e1c2 <_ZN9ManParser10next_tokenERNSt7__cxx1112basic_stringIcSt11char_traitsIcESaIcEEE+0x52>
    e302:	49 89 8c 24 d0 00 00 	mov    %rcx,0xd0(%r12)
    e309:	00 
    e30a:	48 8b 30             	mov    (%rax),%rsi
    e30d:	e9 b0 fe ff ff       	jmpq   e1c2 <_ZN9ManParser10next_tokenERNSt7__cxx1112basic_stringIcSt11char_traitsIcESaIcEEE+0x52>
    e312:	66 0f 1f 44 00 00    	nopw   0x0(%rax,%rax,1)
    e318:	41 c7 84 24 e0 00 00 	movl   $0x1,0xe0(%r12)
    e31f:	00 01 00 00 00 
    e324:	48 8b 30             	mov    (%rax),%rsi
    e327:	e9 96 fe ff ff       	jmpq   e1c2 <_ZN9ManParser10next_tokenERNSt7__cxx1112basic_stringIcSt11char_traitsIcESaIcEEE+0x52>
    e32c:	0f 1f 40 00          	nopl   0x0(%rax)
    e330:	49 8b b4 24 d8 00 00 	mov    0xd8(%r12),%rsi
    e337:	00 
    e338:	41 c7 84 24 e0 00 00 	movl   $0x2,0xe0(%r12)
    e33f:	00 02 00 00 00 
    e344:	48 89 e9             	mov    %rbp,%rcx
    e347:	48 89 da             	mov    %rbx,%rdx
    e34a:	4c 89 e7             	mov    %r12,%rdi
    e34d:	e8 0e 09 00 00       	callq  ec60 <_ZN10TextParser11alloc_tokenEmPmRNSt7__cxx1112basic_stringIcSt11char_traitsIcESaIcEEE>
    e352:	84 c0                	test   %al,%al
    e354:	0f 84 54 fe ff ff    	je     e1ae <_ZN9ManParser10next_tokenERNSt7__cxx1112basic_stringIcSt11char_traitsIcESaIcEEE+0x3e>
    e35a:	e9 27 ff ff ff       	jmpq   e286 <_ZN9ManParser10next_tokenERNSt7__cxx1112basic_stringIcSt11char_traitsIcESaIcEEE+0x116>
    e35f:	90                   	nop

000000000000e360 <_ZN9ManParserC1EPKc>:
    e360:	53                   	push   %rbx
    e361:	48 89 fb             	mov    %rdi,%rbx
    e364:	e8 07 0f 00 00       	callq  f270 <_ZN10TextParserC1EPKc>
    e369:	48 8d 05 30 66 20 00 	lea    0x206630(%rip),%rax        # 2149a0 <_ZTV9ManParser+0x10>
    e370:	48 89 03             	mov    %rax,(%rbx)
    e373:	5b                   	pop    %rbx
    e374:	c3                   	retq   
    e375:	90                   	nop
    e376:	66 2e 0f 1f 84 00 00 	nopw   %cs:0x0(%rax,%rax,1)
    e37d:	00 00 00 

000000000000e380 <_ZN9ManParserC1EPK6w_chari>:
    e380:	53                   	push   %rbx
    e381:	48 89 fb             	mov    %rdi,%rbx
    e384:	e8 b7 03 00 00       	callq  e740 <_ZN10TextParserC1EPK6w_chari>
    e389:	48 8d 05 10 66 20 00 	lea    0x206610(%rip),%rax        # 2149a0 <_ZTV9ManParser+0x10>
    e390:	48 89 03             	mov    %rax,(%rbx)
    e393:	5b                   	pop    %rbx
    e394:	c3                   	retq   
    e395:	66 2e 0f 1f 84 00 00 	nopw   %cs:0x0(%rax,%rax,1)
    e39c:	00 00 00 
    e39f:	90                   	nop

000000000000e3a0 <_ZN10TextParser10get_latin1EPKc.part.14>:
    e3a0:	41 55                	push   %r13
    e3a2:	41 54                	push   %r12
    e3a4:	ba 08 00 00 00       	mov    $0x8,%edx
    e3a9:	55                   	push   %rbp
    e3aa:	53                   	push   %rbx
    e3ab:	48 8d 1d 76 61 20 00 	lea    0x206176(%rip),%rbx        # 214528 <_ZL6LATIN1+0x8>
    e3b2:	49 89 fc             	mov    %rdi,%r12
    e3b5:	48 8d 2d cf 36 00 00 	lea    0x36cf(%rip),%rbp        # 11a8b <_ZTS9ManParser+0xb>
    e3bc:	48 83 ec 08          	sub    $0x8,%rsp
    e3c0:	4c 8d ab e0 00 00 00 	lea    0xe0(%rbx),%r13
    e3c7:	eb 1e                	jmp    e3e7 <_ZN10TextParser10get_latin1EPKc.part.14+0x47>
    e3c9:	0f 1f 80 00 00 00 00 	nopl   0x0(%rax)
    e3d0:	4c 39 eb             	cmp    %r13,%rbx
    e3d3:	74 33                	je     e408 <_ZN10TextParser10get_latin1EPKc.part.14+0x68>
    e3d5:	48 8b 2b             	mov    (%rbx),%rbp
    e3d8:	48 83 c3 08          	add    $0x8,%rbx
    e3dc:	48 89 ef             	mov    %rbp,%rdi
    e3df:	e8 0c 63 ff ff       	callq  46f0 <strlen@plt>
    e3e4:	48 89 c2             	mov    %rax,%rdx
    e3e7:	4c 89 e6             	mov    %r12,%rsi
    e3ea:	48 89 ef             	mov    %rbp,%rdi
    e3ed:	e8 1e 63 ff ff       	callq  4710 <strncmp@plt>
    e3f2:	85 c0                	test   %eax,%eax
    e3f4:	75 da                	jne    e3d0 <_ZN10TextParser10get_latin1EPKc.part.14+0x30>
    e3f6:	48 83 c4 08          	add    $0x8,%rsp
    e3fa:	48 89 e8             	mov    %rbp,%rax
    e3fd:	5b                   	pop    %rbx
    e3fe:	5d                   	pop    %rbp
    e3ff:	41 5c                	pop    %r12
    e401:	41 5d                	pop    %r13
    e403:	c3                   	retq   
    e404:	0f 1f 40 00          	nopl   0x0(%rax)
    e408:	48 83 c4 08          	add    $0x8,%rsp
    e40c:	31 ed                	xor    %ebp,%ebp
    e40e:	5b                   	pop    %rbx
    e40f:	48 89 e8             	mov    %rbp,%rax
    e412:	5d                   	pop    %rbp
    e413:	41 5c                	pop    %r12
    e415:	41 5d                	pop    %r13
    e417:	c3                   	retq   
    e418:	0f 1f 84 00 00 00 00 	nopl   0x0(%rax,%rax,1)
    e41f:	00 

000000000000e420 <_ZNSt7__cxx1112basic_stringIcSt11char_traitsIcESaIcEE12_M_constructIPKcEEvT_S8_St20forward_iterator_tag.isra.53>:
    e420:	41 54                	push   %r12
    e422:	55                   	push   %rbp
    e423:	49 89 f4             	mov    %rsi,%r12
    e426:	53                   	push   %rbx
    e427:	48 89 fd             	mov    %rdi,%rbp
    e42a:	48 83 ec 10          	sub    $0x10,%rsp
    e42e:	64 48 8b 04 25 28 00 	mov    %fs:0x28,%rax
    e435:	00 00 
    e437:	48 89 44 24 08       	mov    %rax,0x8(%rsp)
    e43c:	31 c0                	xor    %eax,%eax
    e43e:	48 85 f6             	test   %rsi,%rsi
    e441:	75 09                	jne    e44c <_ZNSt7__cxx1112basic_stringIcSt11char_traitsIcESaIcEE12_M_constructIPKcEEvT_S8_St20forward_iterator_tag.isra.53+0x2c>
    e443:	48 85 d2             	test   %rdx,%rdx
    e446:	0f 85 8b 00 00 00    	jne    e4d7 <_ZNSt7__cxx1112basic_stringIcSt11char_traitsIcESaIcEE12_M_constructIPKcEEvT_S8_St20forward_iterator_tag.isra.53+0xb7>
    e44c:	48 89 d3             	mov    %rdx,%rbx
    e44f:	4c 29 e3             	sub    %r12,%rbx
    e452:	48 83 fb 0f          	cmp    $0xf,%rbx
    e456:	48 89 1c 24          	mov    %rbx,(%rsp)
    e45a:	77 44                	ja     e4a0 <_ZNSt7__cxx1112basic_stringIcSt11char_traitsIcESaIcEE12_M_constructIPKcEEvT_S8_St20forward_iterator_tag.isra.53+0x80>
    e45c:	48 8b 55 00          	mov    0x0(%rbp),%rdx
    e460:	48 83 fb 01          	cmp    $0x1,%rbx
    e464:	48 89 d0             	mov    %rdx,%rax
    e467:	75 67                	jne    e4d0 <_ZNSt7__cxx1112basic_stringIcSt11char_traitsIcESaIcEE12_M_constructIPKcEEvT_S8_St20forward_iterator_tag.isra.53+0xb0>
    e469:	41 0f b6 04 24       	movzbl (%r12),%eax
    e46e:	88 02                	mov    %al,(%rdx)
    e470:	48 8b 55 00          	mov    0x0(%rbp),%rdx
    e474:	48 8b 04 24          	mov    (%rsp),%rax
    e478:	48 89 45 08          	mov    %rax,0x8(%rbp)
    e47c:	c6 04 02 00          	movb   $0x0,(%rdx,%rax,1)
    e480:	48 8b 44 24 08       	mov    0x8(%rsp),%rax
    e485:	64 48 33 04 25 28 00 	xor    %fs:0x28,%rax
    e48c:	00 00 
    e48e:	75 53                	jne    e4e3 <_ZNSt7__cxx1112basic_stringIcSt11char_traitsIcESaIcEE12_M_constructIPKcEEvT_S8_St20forward_iterator_tag.isra.53+0xc3>
    e490:	48 83 c4 10          	add    $0x10,%rsp
    e494:	5b                   	pop    %rbx
    e495:	5d                   	pop    %rbp
    e496:	41 5c                	pop    %r12
    e498:	c3                   	retq   
    e499:	0f 1f 80 00 00 00 00 	nopl   0x0(%rax)
    e4a0:	31 d2                	xor    %edx,%edx
    e4a2:	48 89 e6             	mov    %rsp,%rsi
    e4a5:	48 89 ef             	mov    %rbp,%rdi
    e4a8:	e8 83 66 ff ff       	callq  4b30 <_ZNSt7__cxx1112basic_stringIcSt11char_traitsIcESaIcEE9_M_createERmm@plt>
    e4ad:	48 8b 14 24          	mov    (%rsp),%rdx
    e4b1:	48 89 45 00          	mov    %rax,0x0(%rbp)
    e4b5:	48 89 55 10          	mov    %rdx,0x10(%rbp)
    e4b9:	48 89 da             	mov    %rbx,%rdx
    e4bc:	4c 89 e6             	mov    %r12,%rsi
    e4bf:	48 89 c7             	mov    %rax,%rdi
    e4c2:	e8 c9 62 ff ff       	callq  4790 <memcpy@plt>
    e4c7:	48 8b 55 00          	mov    0x0(%rbp),%rdx
    e4cb:	eb a7                	jmp    e474 <_ZNSt7__cxx1112basic_stringIcSt11char_traitsIcESaIcEE12_M_constructIPKcEEvT_S8_St20forward_iterator_tag.isra.53+0x54>
    e4cd:	0f 1f 00             	nopl   (%rax)
    e4d0:	48 85 db             	test   %rbx,%rbx
    e4d3:	74 9f                	je     e474 <_ZNSt7__cxx1112basic_stringIcSt11char_traitsIcESaIcEE12_M_constructIPKcEEvT_S8_St20forward_iterator_tag.isra.53+0x54>
    e4d5:	eb e2                	jmp    e4b9 <_ZNSt7__cxx1112basic_stringIcSt11char_traitsIcESaIcEE12_M_constructIPKcEEvT_S8_St20forward_iterator_tag.isra.53+0x99>
    e4d7:	48 8d 3d 2a 1f 00 00 	lea    0x1f2a(%rip),%rdi        # 10408 <_IO_stdin_used+0x8>
    e4de:	e8 6d 62 ff ff       	callq  4750 <_ZSt19__throw_logic_errorPKc@plt>
    e4e3:	e8 a8 63 ff ff       	callq  4890 <__stack_chk_fail@plt>
    e4e8:	0f 1f 84 00 00 00 00 	nopl   0x0(%rax,%rax,1)
    e4ef:	00 

000000000000e4f0 <_ZN10TextParser8get_wordERKNSt7__cxx1112basic_stringIcSt11char_traitsIcESaIcEEE>:
    e4f0:	48 8d 47 10          	lea    0x10(%rdi),%rax
    e4f4:	53                   	push   %rbx
    e4f5:	48 89 fb             	mov    %rdi,%rbx
    e4f8:	48 89 07             	mov    %rax,(%rdi)
    e4fb:	48 8b 32             	mov    (%rdx),%rsi
    e4fe:	48 8b 42 08          	mov    0x8(%rdx),%rax
    e502:	48 01 f0             	add    %rsi,%rax
    e505:	48 89 c2             	mov    %rax,%rdx
    e508:	e8 13 ff ff ff       	callq  e420 <_ZNSt7__cxx1112basic_stringIcSt11char_traitsIcESaIcEE12_M_constructIPKcEEvT_S8_St20forward_iterator_tag.isra.53>
    e50d:	48 89 d8             	mov    %rbx,%rax
    e510:	5b                   	pop    %rbx
    e511:	c3                   	retq   
    e512:	0f 1f 40 00          	nopl   0x0(%rax)
    e516:	66 2e 0f 1f 84 00 00 	nopw   %cs:0x0(%rax,%rax,1)
    e51d:	00 00 00 

000000000000e520 <_ZN10TextParser12change_tokenEPKc>:
    e520:	41 55                	push   %r13
    e522:	41 54                	push   %r12
    e524:	55                   	push   %rbp
    e525:	53                   	push   %rbx
    e526:	48 83 ec 38          	sub    $0x38,%rsp
    e52a:	64 48 8b 04 25 28 00 	mov    %fs:0x28,%rax
    e531:	00 00 
    e533:	48 89 44 24 28       	mov    %rax,0x28(%rsp)
    e538:	31 c0                	xor    %eax,%eax
    e53a:	48 85 f6             	test   %rsi,%rsi
    e53d:	0f 84 0d 01 00 00    	je     e650 <_ZN10TextParser12change_tokenEPKc+0x130>
    e543:	48 63 87 cc 00 00 00 	movslq 0xcc(%rdi),%rax
    e54a:	48 89 fb             	mov    %rdi,%rbx
    e54d:	48 83 c0 01          	add    $0x1,%rax
    e551:	48 c1 e0 05          	shl    $0x5,%rax
    e555:	48 01 f8             	add    %rdi,%rax
    e558:	48 8b bf d0 00 00 00 	mov    0xd0(%rdi),%rdi
    e55f:	48 8b 50 08          	mov    0x8(%rax),%rdx
    e563:	48 39 d7             	cmp    %rdx,%rdi
    e566:	0f 87 16 01 00 00    	ja     e682 <_ZN10TextParser12change_tokenEPKc+0x162>
    e56c:	48 89 f5             	mov    %rsi,%rbp
    e56f:	48 8b 30             	mov    (%rax),%rsi
    e572:	49 89 e5             	mov    %rsp,%r13
    e575:	49 8d 4d 10          	lea    0x10(%r13),%rcx
    e579:	48 01 f2             	add    %rsi,%rdx
    e57c:	48 01 fe             	add    %rdi,%rsi
    e57f:	4c 89 ef             	mov    %r13,%rdi
    e582:	48 89 0c 24          	mov    %rcx,(%rsp)
    e586:	e8 95 fe ff ff       	callq  e420 <_ZNSt7__cxx1112basic_stringIcSt11char_traitsIcESaIcEE12_M_constructIPKcEEvT_S8_St20forward_iterator_tag.isra.53>
    e58b:	48 63 bb cc 00 00 00 	movslq 0xcc(%rbx),%rdi
    e592:	48 8b b3 d8 00 00 00 	mov    0xd8(%rbx),%rsi
    e599:	31 d2                	xor    %edx,%edx
    e59b:	48 83 c7 01          	add    $0x1,%rdi
    e59f:	48 c1 e7 05          	shl    $0x5,%rdi
    e5a3:	48 01 df             	add    %rbx,%rdi
    e5a6:	e8 e5 60 ff ff       	callq  4690 <_ZNSt7__cxx1112basic_stringIcSt11char_traitsIcESaIcEE6resizeEmc@plt>
    e5ab:	4c 63 a3 cc 00 00 00 	movslq 0xcc(%rbx),%r12
    e5b2:	48 89 ef             	mov    %rbp,%rdi
    e5b5:	e8 36 61 ff ff       	callq  46f0 <strlen@plt>
    e5ba:	48 b9 ff ff ff ff ff 	movabs $0x7fffffffffffffff,%rcx
    e5c1:	ff ff 7f 
    e5c4:	49 83 c4 01          	add    $0x1,%r12
    e5c8:	49 c1 e4 05          	shl    $0x5,%r12
    e5cc:	49 01 dc             	add    %rbx,%r12
    e5cf:	49 2b 4c 24 08       	sub    0x8(%r12),%rcx
    e5d4:	48 39 c8             	cmp    %rcx,%rax
    e5d7:	0f 87 7c 00 00 00    	ja     e659 <_ZN10TextParser12change_tokenEPKc+0x139>
    e5dd:	48 89 c2             	mov    %rax,%rdx
    e5e0:	48 89 ee             	mov    %rbp,%rsi
    e5e3:	4c 89 e7             	mov    %r12,%rdi
    e5e6:	e8 b5 60 ff ff       	callq  46a0 <_ZNSt7__cxx1112basic_stringIcSt11char_traitsIcESaIcEE9_M_appendEPKcm@plt>
    e5eb:	48 63 bb cc 00 00 00 	movslq 0xcc(%rbx),%rdi
    e5f2:	48 8b 54 24 08       	mov    0x8(%rsp),%rdx
    e5f7:	48 8b 34 24          	mov    (%rsp),%rsi
    e5fb:	48 83 c7 01          	add    $0x1,%rdi
    e5ff:	48 c1 e7 05          	shl    $0x5,%rdi
    e603:	48 01 df             	add    %rbx,%rdi
    e606:	e8 95 60 ff ff       	callq  46a0 <_ZNSt7__cxx1112basic_stringIcSt11char_traitsIcESaIcEE9_M_appendEPKcm@plt>
    e60b:	48 8b 3c 24          	mov    (%rsp),%rdi
    e60f:	48 8b 83 d8 00 00 00 	mov    0xd8(%rbx),%rax
    e616:	49 83 c5 10          	add    $0x10,%r13
    e61a:	4c 39 ef             	cmp    %r13,%rdi
    e61d:	48 89 83 d0 00 00 00 	mov    %rax,0xd0(%rbx)
    e624:	74 05                	je     e62b <_ZN10TextParser12change_tokenEPKc+0x10b>
    e626:	e8 d5 61 ff ff       	callq  4800 <_ZdlPv@plt>
    e62b:	b8 01 00 00 00       	mov    $0x1,%eax
    e630:	48 8b 4c 24 28       	mov    0x28(%rsp),%rcx
    e635:	64 48 33 0c 25 28 00 	xor    %fs:0x28,%rcx
    e63c:	00 00 
    e63e:	75 14                	jne    e654 <_ZN10TextParser12change_tokenEPKc+0x134>
    e640:	48 83 c4 38          	add    $0x38,%rsp
    e644:	5b                   	pop    %rbx
    e645:	5d                   	pop    %rbp
    e646:	41 5c                	pop    %r12
    e648:	41 5d                	pop    %r13
    e64a:	c3                   	retq   
    e64b:	0f 1f 44 00 00       	nopl   0x0(%rax,%rax,1)
    e650:	31 c0                	xor    %eax,%eax
    e652:	eb dc                	jmp    e630 <_ZN10TextParser12change_tokenEPKc+0x110>
    e654:	e8 37 62 ff ff       	callq  4890 <__stack_chk_fail@plt>
    e659:	48 8d 3d 8c 2b 00 00 	lea    0x2b8c(%rip),%rdi        # 111ec <_IO_stdin_used+0xdec>
    e660:	e8 bb 60 ff ff       	callq  4720 <_ZSt20__throw_length_errorPKc@plt>
    e665:	48 8b 3c 24          	mov    (%rsp),%rdi
    e669:	49 83 c5 10          	add    $0x10,%r13
    e66d:	48 89 c3             	mov    %rax,%rbx
    e670:	4c 39 ef             	cmp    %r13,%rdi
    e673:	74 05                	je     e67a <_ZN10TextParser12change_tokenEPKc+0x15a>
    e675:	e8 86 61 ff ff       	callq  4800 <_ZdlPv@plt>
    e67a:	48 89 df             	mov    %rbx,%rdi
    e67d:	e8 8e 64 ff ff       	callq  4b10 <_Unwind_Resume@plt>
    e682:	48 89 d1             	mov    %rdx,%rcx
    e685:	48 8d 35 3a 2b 00 00 	lea    0x2b3a(%rip),%rsi        # 111c6 <_IO_stdin_used+0xdc6>
    e68c:	48 89 fa             	mov    %rdi,%rdx
    e68f:	48 8d 3d a2 1d 00 00 	lea    0x1da2(%rip),%rdi        # 10438 <_IO_stdin_used+0x38>
    e696:	31 c0                	xor    %eax,%eax
    e698:	e8 a3 63 ff ff       	callq  4a40 <_ZSt24__throw_out_of_range_fmtPKcz@plt>
    e69d:	90                   	nop
    e69e:	66 90                	xchg   %ax,%ax

000000000000e6a0 <_ZN10TextParserD1Ev>:
    e6a0:	48 8d 05 51 5e 20 00 	lea    0x205e51(%rip),%rax        # 2144f8 <_ZTV10TextParser+0x10>
    e6a7:	41 54                	push   %r12
    e6a9:	49 89 fc             	mov    %rdi,%r12
    e6ac:	55                   	push   %rbp
    e6ad:	48 8d af a0 00 00 00 	lea    0xa0(%rdi),%rbp
    e6b4:	53                   	push   %rbx
    e6b5:	48 89 07             	mov    %rax,(%rdi)
    e6b8:	48 8b bf a0 00 00 00 	mov    0xa0(%rdi),%rdi
    e6bf:	48 85 ff             	test   %rdi,%rdi
    e6c2:	74 05                	je     e6c9 <_ZN10TextParserD1Ev+0x29>
    e6c4:	e8 37 61 ff ff       	callq  4800 <_ZdlPv@plt>
    e6c9:	49 8d 9c 24 80 00 00 	lea    0x80(%r12),%rbx
    e6d0:	00 
    e6d1:	48 81 ed a0 00 00 00 	sub    $0xa0,%rbp
    e6d8:	0f 1f 84 00 00 00 00 	nopl   0x0(%rax,%rax,1)
    e6df:	00 
    e6e0:	48 8b 3b             	mov    (%rbx),%rdi
    e6e3:	48 8d 43 10          	lea    0x10(%rbx),%rax
    e6e7:	48 39 c7             	cmp    %rax,%rdi
    e6ea:	74 05                	je     e6f1 <_ZN10TextParserD1Ev+0x51>
    e6ec:	e8 0f 61 ff ff       	callq  4800 <_ZdlPv@plt>
    e6f1:	48 83 eb 20          	sub    $0x20,%rbx
    e6f5:	48 39 eb             	cmp    %rbp,%rbx
    e6f8:	75 e6                	jne    e6e0 <_ZN10TextParserD1Ev+0x40>
    e6fa:	49 8b 7c 24 08       	mov    0x8(%r12),%rdi
    e6ff:	48 85 ff             	test   %rdi,%rdi
    e702:	74 0c                	je     e710 <_ZN10TextParserD1Ev+0x70>
    e704:	5b                   	pop    %rbx
    e705:	5d                   	pop    %rbp
    e706:	41 5c                	pop    %r12
    e708:	e9 f3 60 ff ff       	jmpq   4800 <_ZdlPv@plt>
    e70d:	0f 1f 00             	nopl   (%rax)
    e710:	5b                   	pop    %rbx
    e711:	5d                   	pop    %rbp
    e712:	41 5c                	pop    %r12
    e714:	c3                   	retq   
    e715:	90                   	nop
    e716:	66 2e 0f 1f 84 00 00 	nopw   %cs:0x0(%rax,%rax,1)
    e71d:	00 00 00 

000000000000e720 <_ZN10TextParserD0Ev>:
    e720:	53                   	push   %rbx
    e721:	48 89 fb             	mov    %rdi,%rbx
    e724:	e8 77 ff ff ff       	callq  e6a0 <_ZN10TextParserD1Ev>
    e729:	48 89 df             	mov    %rbx,%rdi
    e72c:	be f8 00 00 00       	mov    $0xf8,%esi
    e731:	5b                   	pop    %rbx
    e732:	e9 29 61 ff ff       	jmpq   4860 <_ZdlPvm@plt>
    e737:	90                   	nop
    e738:	0f 1f 84 00 00 00 00 	nopl   0x0(%rax,%rax,1)
    e73f:	00 

000000000000e740 <_ZN10TextParserC1EPK6w_chari>:
    e740:	48 8d 05 b1 5d 20 00 	lea    0x205db1(%rip),%rax        # 2144f8 <_ZTV10TextParser+0x10>
    e747:	4c 8d 87 a0 00 00 00 	lea    0xa0(%rdi),%r8
    e74e:	48 c7 47 08 00 00 00 	movq   $0x0,0x8(%rdi)
    e755:	00 
    e756:	48 c7 47 10 00 00 00 	movq   $0x0,0x10(%rdi)
    e75d:	00 
    e75e:	48 c7 47 18 00 00 00 	movq   $0x0,0x18(%rdi)
    e765:	00 
    e766:	48 89 07             	mov    %rax,(%rdi)
    e769:	48 8d 47 20          	lea    0x20(%rdi),%rax
    e76d:	48 8d 48 10          	lea    0x10(%rax),%rcx
    e771:	48 c7 40 08 00 00 00 	movq   $0x0,0x8(%rax)
    e778:	00 
    e779:	c6 40 10 00          	movb   $0x0,0x10(%rax)
    e77d:	48 83 c0 20          	add    $0x20,%rax
    e781:	48 89 48 e0          	mov    %rcx,-0x20(%rax)
    e785:	4c 39 c0             	cmp    %r8,%rax
    e788:	75 e3                	jne    e76d <_ZN10TextParserC1EPK6w_chari+0x2d>
    e78a:	48 b8 00 00 00 00 01 	movabs $0x100000000,%rax
    e791:	00 00 00 
    e794:	48 c7 87 a0 00 00 00 	movq   $0x0,0xa0(%rdi)
    e79b:	00 00 00 00 
    e79f:	c7 87 a8 00 00 00 00 	movl   $0x0,0xa8(%rdi)
    e7a6:	00 00 00 
    e7a9:	48 c7 87 b0 00 00 00 	movq   $0x0,0xb0(%rdi)
    e7b0:	00 00 00 00 
    e7b4:	c7 87 b8 00 00 00 00 	movl   $0x0,0xb8(%rdi)
    e7bb:	00 00 00 
    e7be:	48 c7 87 c0 00 00 00 	movq   $0x0,0xc0(%rdi)
    e7c5:	00 00 00 00 
    e7c9:	48 c7 87 c8 00 00 00 	movq   $0x0,0xc8(%rdi)
    e7d0:	00 00 00 00 
    e7d4:	48 c7 87 d0 00 00 00 	movq   $0x0,0xd0(%rdi)
    e7db:	00 00 00 00 
    e7df:	48 c7 87 d8 00 00 00 	movq   $0x0,0xd8(%rdi)
    e7e6:	00 00 00 00 
    e7ea:	48 89 87 e0 00 00 00 	mov    %rax,0xe0(%rdi)
    e7f1:	48 89 b7 e8 00 00 00 	mov    %rsi,0xe8(%rdi)
    e7f8:	89 97 f0 00 00 00    	mov    %edx,0xf0(%rdi)
    e7fe:	c3                   	retq   
    e7ff:	90                   	nop

000000000000e800 <_ZN10TextParser11is_wordcharEPKc>:
    e800:	55                   	push   %rbp
    e801:	53                   	push   %rbx
    e802:	48 83 ec 68          	sub    $0x68,%rsp
    e806:	64 48 8b 04 25 28 00 	mov    %fs:0x28,%rax
    e80d:	00 00 
    e80f:	48 89 44 24 58       	mov    %rax,0x58(%rsp)
    e814:	31 c0                	xor    %eax,%eax
    e816:	0f b6 06             	movzbl (%rsi),%eax
    e819:	84 c0                	test   %al,%al
    e81b:	74 33                	je     e850 <_ZN10TextParser11is_wordcharEPKc+0x50>
    e81d:	8b 97 e4 00 00 00    	mov    0xe4(%rdi),%edx
    e823:	48 89 fb             	mov    %rdi,%rbx
    e826:	85 d2                	test   %edx,%edx
    e828:	75 2e                	jne    e858 <_ZN10TextParser11is_wordcharEPKc+0x58>
    e82a:	48 8b 57 08          	mov    0x8(%rdi),%rdx
    e82e:	8b 04 82             	mov    (%rdx,%rax,4),%eax
    e831:	48 8b 4c 24 58       	mov    0x58(%rsp),%rcx
    e836:	64 48 33 0c 25 28 00 	xor    %fs:0x28,%rcx
    e83d:	00 00 
    e83f:	0f 85 9b 01 00 00    	jne    e9e0 <_ZN10TextParser11is_wordcharEPKc+0x1e0>
    e845:	48 83 c4 68          	add    $0x68,%rsp
    e849:	5b                   	pop    %rbx
    e84a:	5d                   	pop    %rbp
    e84b:	c3                   	retq   
    e84c:	0f 1f 40 00          	nopl   0x0(%rax)
    e850:	31 c0                	xor    %eax,%eax
    e852:	eb dd                	jmp    e831 <_ZN10TextParser11is_wordcharEPKc+0x31>
    e854:	0f 1f 40 00          	nopl   0x0(%rax)
    e858:	48 8d 6c 24 30       	lea    0x30(%rsp),%rbp
    e85d:	48 89 f7             	mov    %rsi,%rdi
    e860:	48 89 74 24 08       	mov    %rsi,0x8(%rsp)
    e865:	48 c7 44 24 10 00 00 	movq   $0x0,0x10(%rsp)
    e86c:	00 00 
    e86e:	48 c7 44 24 18 00 00 	movq   $0x0,0x18(%rsp)
    e875:	00 00 
    e877:	48 8d 45 10          	lea    0x10(%rbp),%rax
    e87b:	48 c7 44 24 20 00 00 	movq   $0x0,0x20(%rsp)
    e882:	00 00 
    e884:	48 89 44 24 30       	mov    %rax,0x30(%rsp)
    e889:	e8 62 5e ff ff       	callq  46f0 <strlen@plt>
    e88e:	48 8b 74 24 08       	mov    0x8(%rsp),%rsi
    e893:	48 89 ef             	mov    %rbp,%rdi
    e896:	48 8d 14 06          	lea    (%rsi,%rax,1),%rdx
    e89a:	e8 81 fb ff ff       	callq  e420 <_ZNSt7__cxx1112basic_stringIcSt11char_traitsIcESaIcEE12_M_constructIPKcEEvT_S8_St20forward_iterator_tag.isra.53>
    e89f:	48 8d 7c 24 10       	lea    0x10(%rsp),%rdi
    e8a4:	48 89 ee             	mov    %rbp,%rsi
    e8a7:	e8 24 63 ff ff       	callq  4bd0 <_Z6u8_u16RSt6vectorI6w_charSaIS0_EERKNSt7__cxx1112basic_stringIcSt11char_traitsIcESaIcEEE@plt>
    e8ac:	48 8b 7c 24 30       	mov    0x30(%rsp),%rdi
    e8b1:	48 83 c5 10          	add    $0x10,%rbp
    e8b5:	48 39 ef             	cmp    %rbp,%rdi
    e8b8:	74 05                	je     e8bf <_ZN10TextParser11is_wordcharEPKc+0xbf>
    e8ba:	e8 41 5f ff ff       	callq  4800 <_ZdlPv@plt>
    e8bf:	48 8b 7c 24 18       	mov    0x18(%rsp),%rdi
    e8c4:	48 8b 44 24 10       	mov    0x10(%rsp),%rax
    e8c9:	48 39 f8             	cmp    %rdi,%rax
    e8cc:	0f 84 ce 00 00 00    	je     e9a0 <_ZN10TextParser11is_wordcharEPKc+0x1a0>
    e8d2:	0f b6 78 01          	movzbl 0x1(%rax),%edi
    e8d6:	0f b6 00             	movzbl (%rax),%eax
    e8d9:	c1 e7 08             	shl    $0x8,%edi
    e8dc:	01 c7                	add    %eax,%edi
    e8de:	0f b7 ff             	movzwl %di,%edi
    e8e1:	e8 8a 5e ff ff       	callq  4770 <_Z14unicodeisalphat@plt>
    e8e6:	85 c0                	test   %eax,%eax
    e8e8:	48 8b 7c 24 10       	mov    0x10(%rsp),%rdi
    e8ed:	0f 85 cd 00 00 00    	jne    e9c0 <_ZN10TextParser11is_wordcharEPKc+0x1c0>
    e8f3:	4c 8b 9b e8 00 00 00 	mov    0xe8(%rbx),%r11
    e8fa:	4d 85 db             	test   %r11,%r11
    e8fd:	0f 84 9f 00 00 00    	je     e9a2 <_ZN10TextParser11is_wordcharEPKc+0x1a2>
    e903:	48 63 8b f0 00 00 00 	movslq 0xf0(%rbx),%rcx
    e90a:	48 01 c9             	add    %rcx,%rcx
    e90d:	49 8d 1c 0b          	lea    (%r11,%rcx,1),%rbx
    e911:	48 d1 f9             	sar    %rcx
    e914:	48 89 ca             	mov    %rcx,%rdx
    e917:	48 85 d2             	test   %rdx,%rdx
    e91a:	7e 5a                	jle    e976 <_ZN10TextParser11is_wordcharEPKc+0x176>
    e91c:	44 0f b6 4f 01       	movzbl 0x1(%rdi),%r9d
    e921:	44 0f b6 07          	movzbl (%rdi),%r8d
    e925:	48 89 d1             	mov    %rdx,%rcx
    e928:	48 d1 f9             	sar    %rcx
    e92b:	49 8d 34 4b          	lea    (%r11,%rcx,2),%rsi
    e92f:	41 c1 e1 08          	shl    $0x8,%r9d
    e933:	44 0f b6 16          	movzbl (%rsi),%r10d
    e937:	45 01 c1             	add    %r8d,%r9d
    e93a:	44 0f b6 46 01       	movzbl 0x1(%rsi),%r8d
    e93f:	41 c1 e0 08          	shl    $0x8,%r8d
    e943:	45 01 d0             	add    %r10d,%r8d
    e946:	66 45 39 c1          	cmp    %r8w,%r9w
    e94a:	76 25                	jbe    e971 <_ZN10TextParser11is_wordcharEPKc+0x171>
    e94c:	eb 79                	jmp    e9c7 <_ZN10TextParser11is_wordcharEPKc+0x1c7>
    e94e:	66 90                	xchg   %ax,%ax
    e950:	49 89 c8             	mov    %rcx,%r8
    e953:	49 d1 f8             	sar    %r8
    e956:	4b 8d 34 43          	lea    (%r11,%r8,2),%rsi
    e95a:	0f b6 56 01          	movzbl 0x1(%rsi),%edx
    e95e:	44 0f b6 16          	movzbl (%rsi),%r10d
    e962:	c1 e2 08             	shl    $0x8,%edx
    e965:	44 01 d2             	add    %r10d,%edx
    e968:	66 44 39 ca          	cmp    %r9w,%dx
    e96c:	72 62                	jb     e9d0 <_ZN10TextParser11is_wordcharEPKc+0x1d0>
    e96e:	4c 89 c1             	mov    %r8,%rcx
    e971:	48 85 c9             	test   %rcx,%rcx
    e974:	75 da                	jne    e950 <_ZN10TextParser11is_wordcharEPKc+0x150>
    e976:	4c 39 db             	cmp    %r11,%rbx
    e979:	74 27                	je     e9a2 <_ZN10TextParser11is_wordcharEPKc+0x1a2>
    e97b:	0f b6 57 01          	movzbl 0x1(%rdi),%edx
    e97f:	0f b6 07             	movzbl (%rdi),%eax
    e982:	41 0f b6 0b          	movzbl (%r11),%ecx
    e986:	c1 e2 08             	shl    $0x8,%edx
    e989:	01 c2                	add    %eax,%edx
    e98b:	41 0f b6 43 01       	movzbl 0x1(%r11),%eax
    e990:	c1 e0 08             	shl    $0x8,%eax
    e993:	01 c8                	add    %ecx,%eax
    e995:	66 39 c2             	cmp    %ax,%dx
    e998:	0f 93 c0             	setae  %al
    e99b:	0f b6 c0             	movzbl %al,%eax
    e99e:	eb 02                	jmp    e9a2 <_ZN10TextParser11is_wordcharEPKc+0x1a2>
    e9a0:	31 c0                	xor    %eax,%eax
    e9a2:	48 85 ff             	test   %rdi,%rdi
    e9a5:	0f 84 86 fe ff ff    	je     e831 <_ZN10TextParser11is_wordcharEPKc+0x31>
    e9ab:	89 44 24 08          	mov    %eax,0x8(%rsp)
    e9af:	e8 4c 5e ff ff       	callq  4800 <_ZdlPv@plt>
    e9b4:	8b 44 24 08          	mov    0x8(%rsp),%eax
    e9b8:	e9 74 fe ff ff       	jmpq   e831 <_ZN10TextParser11is_wordcharEPKc+0x31>
    e9bd:	0f 1f 00             	nopl   (%rax)
    e9c0:	b8 01 00 00 00       	mov    $0x1,%eax
    e9c5:	eb db                	jmp    e9a2 <_ZN10TextParser11is_wordcharEPKc+0x1a2>
    e9c7:	49 89 c8             	mov    %rcx,%r8
    e9ca:	48 89 d1             	mov    %rdx,%rcx
    e9cd:	0f 1f 00             	nopl   (%rax)
    e9d0:	4c 29 c1             	sub    %r8,%rcx
    e9d3:	4c 8d 5e 02          	lea    0x2(%rsi),%r11
    e9d7:	48 8d 51 ff          	lea    -0x1(%rcx),%rdx
    e9db:	e9 37 ff ff ff       	jmpq   e917 <_ZN10TextParser11is_wordcharEPKc+0x117>
    e9e0:	e8 ab 5e ff ff       	callq  4890 <__stack_chk_fail@plt>
    e9e5:	48 8b 7c 24 30       	mov    0x30(%rsp),%rdi
    e9ea:	48 83 c5 10          	add    $0x10,%rbp
    e9ee:	48 89 c3             	mov    %rax,%rbx
    e9f1:	48 39 ef             	cmp    %rbp,%rdi
    e9f4:	74 05                	je     e9fb <_ZN10TextParser11is_wordcharEPKc+0x1fb>
    e9f6:	e8 05 5e ff ff       	callq  4800 <_ZdlPv@plt>
    e9fb:	48 8b 7c 24 10       	mov    0x10(%rsp),%rdi
    ea00:	48 85 ff             	test   %rdi,%rdi
    ea03:	74 05                	je     ea0a <_ZN10TextParser11is_wordcharEPKc+0x20a>
    ea05:	e8 f6 5d ff ff       	callq  4800 <_ZdlPv@plt>
    ea0a:	48 89 df             	mov    %rbx,%rdi
    ea0d:	e8 fe 60 ff ff       	callq  4b10 <_Unwind_Resume@plt>
    ea12:	48 89 c3             	mov    %rax,%rbx
    ea15:	eb e4                	jmp    e9fb <_ZN10TextParser11is_wordcharEPKc+0x1fb>
    ea17:	90                   	nop
    ea18:	0f 1f 84 00 00 00 00 	nopl   0x0(%rax,%rax,1)
    ea1f:	00 

000000000000ea20 <_ZN10TextParser10get_latin1EPKc>:
    ea20:	80 3e 26             	cmpb   $0x26,(%rsi)
    ea23:	48 89 f7             	mov    %rsi,%rdi
    ea26:	75 05                	jne    ea2d <_ZN10TextParser10get_latin1EPKc+0xd>
    ea28:	e9 73 f9 ff ff       	jmpq   e3a0 <_ZN10TextParser10get_latin1EPKc.part.14>
    ea2d:	31 c0                	xor    %eax,%eax
    ea2f:	c3                   	retq   

000000000000ea30 <_ZN10TextParser4initEPK6w_chari>:
    ea30:	48 b8 00 00 00 00 01 	movabs $0x100000000,%rax
    ea37:	00 00 00 
    ea3a:	48 c7 87 c8 00 00 00 	movq   $0x0,0xc8(%rdi)
    ea41:	00 00 00 00 
    ea45:	48 c7 87 d0 00 00 00 	movq   $0x0,0xd0(%rdi)
    ea4c:	00 00 00 00 
    ea50:	48 c7 87 d8 00 00 00 	movq   $0x0,0xd8(%rdi)
    ea57:	00 00 00 00 
    ea5b:	48 89 87 e0 00 00 00 	mov    %rax,0xe0(%rdi)
    ea62:	48 89 b7 e8 00 00 00 	mov    %rsi,0xe8(%rdi)
    ea69:	89 97 f0 00 00 00    	mov    %edx,0xf0(%rdi)
    ea6f:	c3                   	retq   

000000000000ea70 <_ZN10TextParser9next_charEPKcPm>:
    ea70:	48 8b 0a             	mov    (%rdx),%rcx
    ea73:	b8 01 00 00 00       	mov    $0x1,%eax
    ea78:	44 0f b6 04 0e       	movzbl (%rsi,%rcx,1),%r8d
    ea7d:	45 84 c0             	test   %r8b,%r8b
    ea80:	74 59                	je     eadb <_ZN10TextParser9next_charEPKcPm+0x6b>
    ea82:	8b 87 e4 00 00 00    	mov    0xe4(%rdi),%eax
    ea88:	48 8d 79 01          	lea    0x1(%rcx),%rdi
    ea8c:	85 c0                	test   %eax,%eax
    ea8e:	74 48                	je     ead8 <_ZN10TextParser9next_charEPKcPm+0x68>
    ea90:	41 0f be c0          	movsbl %r8b,%eax
    ea94:	48 89 3a             	mov    %rdi,(%rdx)
    ea97:	c1 f8 07             	sar    $0x7,%eax
    ea9a:	85 c0                	test   %eax,%eax
    ea9c:	74 42                	je     eae0 <_ZN10TextParser9next_charEPKcPm+0x70>
    ea9e:	0f be 7c 0e 01       	movsbl 0x1(%rsi,%rcx,1),%edi
    eaa3:	48 8d 41 02          	lea    0x2(%rcx),%rax
    eaa7:	81 e7 c0 00 00 00    	and    $0xc0,%edi
    eaad:	83 c7 80             	add    $0xffffff80,%edi
    eab0:	75 1c                	jne    eace <_ZN10TextParser9next_charEPKcPm+0x5e>
    eab2:	66 0f 1f 44 00 00    	nopw   0x0(%rax,%rax,1)
    eab8:	48 89 02             	mov    %rax,(%rdx)
    eabb:	0f be 0c 06          	movsbl (%rsi,%rax,1),%ecx
    eabf:	48 83 c0 01          	add    $0x1,%rax
    eac3:	81 e1 c0 00 00 00    	and    $0xc0,%ecx
    eac9:	83 c1 80             	add    $0xffffff80,%ecx
    eacc:	74 ea                	je     eab8 <_ZN10TextParser9next_charEPKcPm+0x48>
    eace:	31 c0                	xor    %eax,%eax
    ead0:	c3                   	retq   
    ead1:	0f 1f 80 00 00 00 00 	nopl   0x0(%rax)
    ead8:	48 89 3a             	mov    %rdi,(%rdx)
    eadb:	f3 c3                	repz retq 
    eadd:	0f 1f 00             	nopl   (%rax)
    eae0:	f3 c3                	repz retq 
    eae2:	0f 1f 40 00          	nopl   0x0(%rax)
    eae6:	66 2e 0f 1f 84 00 00 	nopw   %cs:0x0(%rax,%rax,1)
    eaed:	00 00 00 

000000000000eaf0 <_ZNK10TextParser12get_prevlineB5cxx11Ei>:
    eaf0:	53                   	push   %rbx
    eaf1:	8b 86 cc 00 00 00    	mov    0xcc(%rsi),%eax
    eaf7:	48 89 fb             	mov    %rdi,%rbx
    eafa:	8d 48 04             	lea    0x4(%rax),%ecx
    eafd:	29 d1                	sub    %edx,%ecx
    eaff:	89 c8                	mov    %ecx,%eax
    eb01:	89 ca                	mov    %ecx,%edx
    eb03:	c1 f8 1f             	sar    $0x1f,%eax
    eb06:	c1 e8 1e             	shr    $0x1e,%eax
    eb09:	01 c2                	add    %eax,%edx
    eb0b:	83 e2 03             	and    $0x3,%edx
    eb0e:	29 c2                	sub    %eax,%edx
    eb10:	48 8d 47 10          	lea    0x10(%rdi),%rax
    eb14:	48 63 d2             	movslq %edx,%rdx
    eb17:	48 83 c2 01          	add    $0x1,%rdx
    eb1b:	48 89 07             	mov    %rax,(%rdi)
    eb1e:	48 c1 e2 05          	shl    $0x5,%rdx
    eb22:	48 01 f2             	add    %rsi,%rdx
    eb25:	48 8b 32             	mov    (%rdx),%rsi
    eb28:	48 8b 42 08          	mov    0x8(%rdx),%rax
    eb2c:	48 01 f0             	add    %rsi,%rax
    eb2f:	48 89 c2             	mov    %rax,%rdx
    eb32:	e8 e9 f8 ff ff       	callq  e420 <_ZNSt7__cxx1112basic_stringIcSt11char_traitsIcESaIcEE12_M_constructIPKcEEvT_S8_St20forward_iterator_tag.isra.53>
    eb37:	48 89 d8             	mov    %rbx,%rax
    eb3a:	5b                   	pop    %rbx
    eb3b:	c3                   	retq   
    eb3c:	0f 1f 40 00          	nopl   0x0(%rax)

000000000000eb40 <_ZNK10TextParser8get_lineB5cxx11Ev>:
    eb40:	53                   	push   %rbx
    eb41:	8b 86 cc 00 00 00    	mov    0xcc(%rsi),%eax
    eb47:	48 89 fb             	mov    %rdi,%rbx
    eb4a:	8d 50 04             	lea    0x4(%rax),%edx
    eb4d:	89 d0                	mov    %edx,%eax
    eb4f:	c1 f8 1f             	sar    $0x1f,%eax
    eb52:	c1 e8 1e             	shr    $0x1e,%eax
    eb55:	01 c2                	add    %eax,%edx
    eb57:	83 e2 03             	and    $0x3,%edx
    eb5a:	29 c2                	sub    %eax,%edx
    eb5c:	48 8d 47 10          	lea    0x10(%rdi),%rax
    eb60:	48 63 d2             	movslq %edx,%rdx
    eb63:	48 83 c2 01          	add    $0x1,%rdx
    eb67:	48 89 07             	mov    %rax,(%rdi)
    eb6a:	48 c1 e2 05          	shl    $0x5,%rdx
    eb6e:	48 01 f2             	add    %rsi,%rdx
    eb71:	48 8b 32             	mov    (%rdx),%rsi
    eb74:	48 8b 42 08          	mov    0x8(%rdx),%rax
    eb78:	48 01 f0             	add    %rsi,%rax
    eb7b:	48 89 c2             	mov    %rax,%rdx
    eb7e:	e8 9d f8 ff ff       	callq  e420 <_ZNSt7__cxx1112basic_stringIcSt11char_traitsIcESaIcEE12_M_constructIPKcEEvT_S8_St20forward_iterator_tag.isra.53>
    eb83:	48 89 d8             	mov    %rbx,%rax
    eb86:	5b                   	pop    %rbx
    eb87:	c3                   	retq   
    eb88:	0f 1f 84 00 00 00 00 	nopl   0x0(%rax,%rax,1)
    eb8f:	00 

000000000000eb90 <_ZN10TextParser12get_tokenposEv>:
    eb90:	48 8b 87 d8 00 00 00 	mov    0xd8(%rdi),%rax
    eb97:	c3                   	retq   
    eb98:	0f 1f 84 00 00 00 00 	nopl   0x0(%rax,%rax,1)
    eb9f:	00 

000000000000eba0 <_ZN10TextParser7get_urlEmPm>:
    eba0:	48 63 87 cc 00 00 00 	movslq 0xcc(%rdi),%rax
    eba7:	48 8b 0a             	mov    (%rdx),%rcx
    ebaa:	48 83 c0 01          	add    $0x1,%rax
    ebae:	48 c1 e0 05          	shl    $0x5,%rax
    ebb2:	48 39 4c 07 08       	cmp    %rcx,0x8(%rdi,%rax,1)
    ebb7:	76 57                	jbe    ec10 <_ZN10TextParser7get_urlEmPm+0x70>
    ebb9:	4c 8b 8f a0 00 00 00 	mov    0xa0(%rdi),%r9
    ebc0:	49 89 c8             	mov    %rcx,%r8
    ebc3:	b8 01 00 00 00       	mov    $0x1,%eax
    ebc8:	49 c1 e8 06          	shr    $0x6,%r8
    ebcc:	48 d3 e0             	shl    %cl,%rax
    ebcf:	41 ba 01 00 00 00    	mov    $0x1,%r10d
    ebd5:	4b 85 04 c1          	test   %rax,(%r9,%r8,8)
    ebd9:	75 18                	jne    ebf3 <_ZN10TextParser7get_urlEmPm+0x53>
    ebdb:	eb 33                	jmp    ec10 <_ZN10TextParser7get_urlEmPm+0x70>
    ebdd:	0f 1f 00             	nopl   (%rax)
    ebe0:	48 89 c8             	mov    %rcx,%rax
    ebe3:	4d 89 d0             	mov    %r10,%r8
    ebe6:	48 c1 e8 06          	shr    $0x6,%rax
    ebea:	49 d3 e0             	shl    %cl,%r8
    ebed:	4d 85 04 c1          	test   %r8,(%r9,%rax,8)
    ebf1:	74 1d                	je     ec10 <_ZN10TextParser7get_urlEmPm+0x70>
    ebf3:	48 83 c1 01          	add    $0x1,%rcx
    ebf7:	48 89 0a             	mov    %rcx,(%rdx)
    ebfa:	48 63 87 cc 00 00 00 	movslq 0xcc(%rdi),%rax
    ec01:	48 83 c0 01          	add    $0x1,%rax
    ec05:	48 c1 e0 05          	shl    $0x5,%rax
    ec09:	48 3b 4c 07 08       	cmp    0x8(%rdi,%rax,1),%rcx
    ec0e:	72 d0                	jb     ebe0 <_ZN10TextParser7get_urlEmPm+0x40>
    ec10:	8b 87 c8 00 00 00    	mov    0xc8(%rdi),%eax
    ec16:	85 c0                	test   %eax,%eax
    ec18:	75 26                	jne    ec40 <_ZN10TextParser7get_urlEmPm+0xa0>
    ec1a:	48 8b 97 a0 00 00 00 	mov    0xa0(%rdi),%rdx
    ec21:	49 89 f0             	mov    %rsi,%r8
    ec24:	89 f1                	mov    %esi,%ecx
    ec26:	49 c1 e8 06          	shr    $0x6,%r8
    ec2a:	b8 01 00 00 00       	mov    $0x1,%eax
    ec2f:	48 d3 e0             	shl    %cl,%rax
    ec32:	4a 85 04 c2          	test   %rax,(%rdx,%r8,8)
    ec36:	0f 95 c0             	setne  %al
    ec39:	0f b6 c0             	movzbl %al,%eax
    ec3c:	c3                   	retq   
    ec3d:	0f 1f 00             	nopl   (%rax)
    ec40:	31 c0                	xor    %eax,%eax
    ec42:	c3                   	retq   
    ec43:	90                   	nop
    ec44:	66 90                	xchg   %ax,%ax
    ec46:	66 2e 0f 1f 84 00 00 	nopw   %cs:0x0(%rax,%rax,1)
    ec4d:	00 00 00 

000000000000ec50 <_ZN10TextParser16set_url_checkingEi>:
    ec50:	89 b7 c8 00 00 00    	mov    %esi,0xc8(%rdi)
    ec56:	c3                   	retq   
    ec57:	90                   	nop
    ec58:	0f 1f 84 00 00 00 00 	nopl   0x0(%rax,%rax,1)
    ec5f:	00 

000000000000ec60 <_ZN10TextParser11alloc_tokenEmPmRNSt7__cxx1112basic_stringIcSt11char_traitsIcESaIcEEE>:
    ec60:	41 55                	push   %r13
    ec62:	41 54                	push   %r12
    ec64:	49 89 d4             	mov    %rdx,%r12
    ec67:	55                   	push   %rbp
    ec68:	53                   	push   %rbx
    ec69:	48 89 cd             	mov    %rcx,%rbp
    ec6c:	48 89 f3             	mov    %rsi,%rbx
    ec6f:	48 83 ec 48          	sub    $0x48,%rsp
    ec73:	64 48 8b 04 25 28 00 	mov    %fs:0x28,%rax
    ec7a:	00 00 
    ec7c:	48 89 44 24 38       	mov    %rax,0x38(%rsp)
    ec81:	31 c0                	xor    %eax,%eax
    ec83:	48 8b 02             	mov    (%rdx),%rax
    ec86:	48 8d 54 24 08       	lea    0x8(%rsp),%rdx
    ec8b:	48 89 44 24 08       	mov    %rax,0x8(%rsp)
    ec90:	e8 0b ff ff ff       	callq  eba0 <_ZN10TextParser7get_urlEmPm>
    ec95:	31 d2                	xor    %edx,%edx
    ec97:	85 c0                	test   %eax,%eax
    ec99:	74 25                	je     ecc0 <_ZN10TextParser11alloc_tokenEmPmRNSt7__cxx1112basic_stringIcSt11char_traitsIcESaIcEEE+0x60>
    ec9b:	48 8b 5c 24 38       	mov    0x38(%rsp),%rbx
    eca0:	64 48 33 1c 25 28 00 	xor    %fs:0x28,%rbx
    eca7:	00 00 
    eca9:	89 d0                	mov    %edx,%eax
    ecab:	0f 85 67 01 00 00    	jne    ee18 <_ZN10TextParser11alloc_tokenEmPmRNSt7__cxx1112basic_stringIcSt11char_traitsIcESaIcEEE+0x1b8>
    ecb1:	48 83 c4 48          	add    $0x48,%rsp
    ecb5:	5b                   	pop    %rbx
    ecb6:	5d                   	pop    %rbp
    ecb7:	41 5c                	pop    %r12
    ecb9:	41 5d                	pop    %r13
    ecbb:	c3                   	retq   
    ecbc:	0f 1f 40 00          	nopl   0x0(%rax)
    ecc0:	48 63 87 cc 00 00 00 	movslq 0xcc(%rdi),%rax
    ecc7:	49 8b 14 24          	mov    (%r12),%rdx
    eccb:	49 89 fb             	mov    %rdi,%r11
    ecce:	48 89 d1             	mov    %rdx,%rcx
    ecd1:	48 83 c0 01          	add    $0x1,%rax
    ecd5:	48 29 f1             	sub    %rsi,%rcx
    ecd8:	48 c1 e0 05          	shl    $0x5,%rax
    ecdc:	49 01 c3             	add    %rax,%r11
    ecdf:	49 8b 53 08          	mov    0x8(%r11),%rdx
    ece3:	48 39 d6             	cmp    %rdx,%rsi
    ece6:	0f 87 31 01 00 00    	ja     ee1d <_ZN10TextParser11alloc_tokenEmPmRNSt7__cxx1112basic_stringIcSt11char_traitsIcESaIcEEE+0x1bd>
    ecec:	49 8b 33             	mov    (%r11),%rsi
    ecef:	4c 8d 64 24 10       	lea    0x10(%rsp),%r12
    ecf4:	48 29 da             	sub    %rbx,%rdx
    ecf7:	4d 8d 6c 24 10       	lea    0x10(%r12),%r13
    ecfc:	4c 89 e7             	mov    %r12,%rdi
    ecff:	48 01 de             	add    %rbx,%rsi
    ed02:	48 39 ca             	cmp    %rcx,%rdx
    ed05:	48 0f 47 d1          	cmova  %rcx,%rdx
    ed09:	4c 89 6c 24 10       	mov    %r13,0x10(%rsp)
    ed0e:	48 01 f2             	add    %rsi,%rdx
    ed11:	e8 0a f7 ff ff       	callq  e420 <_ZNSt7__cxx1112basic_stringIcSt11char_traitsIcESaIcEE12_M_constructIPKcEEvT_S8_St20forward_iterator_tag.isra.53>
    ed16:	48 8b 74 24 10       	mov    0x10(%rsp),%rsi
    ed1b:	48 8b 7d 00          	mov    0x0(%rbp),%rdi
    ed1f:	4c 39 ee             	cmp    %r13,%rsi
    ed22:	0f 84 a8 00 00 00    	je     edd0 <_ZN10TextParser11alloc_tokenEmPmRNSt7__cxx1112basic_stringIcSt11char_traitsIcESaIcEEE+0x170>
    ed28:	48 8d 45 10          	lea    0x10(%rbp),%rax
    ed2c:	48 8b 54 24 20       	mov    0x20(%rsp),%rdx
    ed31:	48 8b 4c 24 18       	mov    0x18(%rsp),%rcx
    ed36:	48 39 c7             	cmp    %rax,%rdi
    ed39:	74 7d                	je     edb8 <_ZN10TextParser11alloc_tokenEmPmRNSt7__cxx1112basic_stringIcSt11char_traitsIcESaIcEEE+0x158>
    ed3b:	48 85 ff             	test   %rdi,%rdi
    ed3e:	48 8b 45 10          	mov    0x10(%rbp),%rax
    ed42:	48 89 75 00          	mov    %rsi,0x0(%rbp)
    ed46:	48 89 4d 08          	mov    %rcx,0x8(%rbp)
    ed4a:	48 89 55 10          	mov    %rdx,0x10(%rbp)
    ed4e:	74 74                	je     edc4 <_ZN10TextParser11alloc_tokenEmPmRNSt7__cxx1112basic_stringIcSt11char_traitsIcESaIcEEE+0x164>
    ed50:	48 89 7c 24 10       	mov    %rdi,0x10(%rsp)
    ed55:	48 89 44 24 20       	mov    %rax,0x20(%rsp)
    ed5a:	48 c7 44 24 18 00 00 	movq   $0x0,0x18(%rsp)
    ed61:	00 00 
    ed63:	c6 07 00             	movb   $0x0,(%rdi)
    ed66:	49 83 c4 10          	add    $0x10,%r12
    ed6a:	48 8b 7c 24 10       	mov    0x10(%rsp),%rdi
    ed6f:	4c 39 e7             	cmp    %r12,%rdi
    ed72:	74 05                	je     ed79 <_ZN10TextParser11alloc_tokenEmPmRNSt7__cxx1112basic_stringIcSt11char_traitsIcESaIcEEE+0x119>
    ed74:	e8 87 5a ff ff       	callq  4800 <_ZdlPv@plt>
    ed79:	48 8b 45 08          	mov    0x8(%rbp),%rax
    ed7d:	ba 01 00 00 00       	mov    $0x1,%edx
    ed82:	48 85 c0             	test   %rax,%rax
    ed85:	0f 84 10 ff ff ff    	je     ec9b <_ZN10TextParser11alloc_tokenEmPmRNSt7__cxx1112basic_stringIcSt11char_traitsIcESaIcEEE+0x3b>
    ed8b:	48 8b 4d 00          	mov    0x0(%rbp),%rcx
    ed8f:	48 8d 70 ff          	lea    -0x1(%rax),%rsi
    ed93:	80 7c 01 ff 3a       	cmpb   $0x3a,-0x1(%rcx,%rax,1)
    ed98:	0f 85 fd fe ff ff    	jne    ec9b <_ZN10TextParser11alloc_tokenEmPmRNSt7__cxx1112basic_stringIcSt11char_traitsIcESaIcEEE+0x3b>
    ed9e:	31 d2                	xor    %edx,%edx
    eda0:	48 89 ef             	mov    %rbp,%rdi
    eda3:	e8 e8 58 ff ff       	callq  4690 <_ZNSt7__cxx1112basic_stringIcSt11char_traitsIcESaIcEE6resizeEmc@plt>
    eda8:	48 83 7d 08 00       	cmpq   $0x0,0x8(%rbp)
    edad:	0f 95 c2             	setne  %dl
    edb0:	e9 e6 fe ff ff       	jmpq   ec9b <_ZN10TextParser11alloc_tokenEmPmRNSt7__cxx1112basic_stringIcSt11char_traitsIcESaIcEEE+0x3b>
    edb5:	0f 1f 00             	nopl   (%rax)
    edb8:	48 89 75 00          	mov    %rsi,0x0(%rbp)
    edbc:	48 89 4d 08          	mov    %rcx,0x8(%rbp)
    edc0:	48 89 55 10          	mov    %rdx,0x10(%rbp)
    edc4:	49 8d 7c 24 10       	lea    0x10(%r12),%rdi
    edc9:	48 89 7c 24 10       	mov    %rdi,0x10(%rsp)
    edce:	eb 8a                	jmp    ed5a <_ZN10TextParser11alloc_tokenEmPmRNSt7__cxx1112basic_stringIcSt11char_traitsIcESaIcEEE+0xfa>
    edd0:	48 8b 54 24 18       	mov    0x18(%rsp),%rdx
    edd5:	48 85 d2             	test   %rdx,%rdx
    edd8:	74 16                	je     edf0 <_ZN10TextParser11alloc_tokenEmPmRNSt7__cxx1112basic_stringIcSt11char_traitsIcESaIcEEE+0x190>
    edda:	48 83 fa 01          	cmp    $0x1,%rdx
    edde:	75 28                	jne    ee08 <_ZN10TextParser11alloc_tokenEmPmRNSt7__cxx1112basic_stringIcSt11char_traitsIcESaIcEEE+0x1a8>
    ede0:	0f b6 44 24 20       	movzbl 0x20(%rsp),%eax
    ede5:	88 07                	mov    %al,(%rdi)
    ede7:	48 8b 54 24 18       	mov    0x18(%rsp),%rdx
    edec:	48 8b 7d 00          	mov    0x0(%rbp),%rdi
    edf0:	48 89 55 08          	mov    %rdx,0x8(%rbp)
    edf4:	c6 04 17 00          	movb   $0x0,(%rdi,%rdx,1)
    edf8:	48 8b 7c 24 10       	mov    0x10(%rsp),%rdi
    edfd:	e9 58 ff ff ff       	jmpq   ed5a <_ZN10TextParser11alloc_tokenEmPmRNSt7__cxx1112basic_stringIcSt11char_traitsIcESaIcEEE+0xfa>
    ee02:	66 0f 1f 44 00 00    	nopw   0x0(%rax,%rax,1)
    ee08:	e8 83 59 ff ff       	callq  4790 <memcpy@plt>
    ee0d:	48 8b 54 24 18       	mov    0x18(%rsp),%rdx
    ee12:	48 8b 7d 00          	mov    0x0(%rbp),%rdi
    ee16:	eb d8                	jmp    edf0 <_ZN10TextParser11alloc_tokenEmPmRNSt7__cxx1112basic_stringIcSt11char_traitsIcESaIcEEE+0x190>
    ee18:	e8 73 5a ff ff       	callq  4890 <__stack_chk_fail@plt>
    ee1d:	48 89 d1             	mov    %rdx,%rcx
    ee20:	48 8d 3d 11 16 00 00 	lea    0x1611(%rip),%rdi        # 10438 <_IO_stdin_used+0x38>
    ee27:	48 89 f2             	mov    %rsi,%rdx
    ee2a:	48 8d 35 95 23 00 00 	lea    0x2395(%rip),%rsi        # 111c6 <_IO_stdin_used+0xdc6>
    ee31:	31 c0                	xor    %eax,%eax
    ee33:	e8 08 5c ff ff       	callq  4a40 <_ZSt24__throw_out_of_range_fmtPKcz@plt>
    ee38:	0f 1f 84 00 00 00 00 	nopl   0x0(%rax,%rax,1)
    ee3f:	00 

000000000000ee40 <_ZN10TextParser10next_tokenERNSt7__cxx1112basic_stringIcSt11char_traitsIcESaIcEEE>:
    ee40:	41 57                	push   %r15
    ee42:	41 56                	push   %r14
    ee44:	49 89 f6             	mov    %rsi,%r14
    ee47:	41 55                	push   %r13
    ee49:	41 54                	push   %r12
    ee4b:	4c 8d 2d 96 23 00 00 	lea    0x2396(%rip),%r13        # 111e8 <_IO_stdin_used+0xde8>
    ee52:	55                   	push   %rbp
    ee53:	53                   	push   %rbx
    ee54:	4c 8d a7 d0 00 00 00 	lea    0xd0(%rdi),%r12
    ee5b:	48 89 fb             	mov    %rdi,%rbx
    ee5e:	48 83 ec 18          	sub    $0x18,%rsp
    ee62:	eb 53                	jmp    eeb7 <_ZN10TextParser10next_tokenERNSt7__cxx1112basic_stringIcSt11char_traitsIcESaIcEEE+0x77>
    ee64:	0f 1f 40 00          	nopl   0x0(%rax)
    ee68:	83 f8 01             	cmp    $0x1,%eax
    ee6b:	75 3b                	jne    eea8 <_ZN10TextParser10next_tokenERNSt7__cxx1112basic_stringIcSt11char_traitsIcESaIcEEE+0x68>
    ee6d:	4c 8b bb d0 00 00 00 	mov    0xd0(%rbx),%r15
    ee74:	4a 8d 3c 3e          	lea    (%rsi,%r15,1),%rdi
    ee78:	80 3f 26             	cmpb   $0x26,(%rdi)
    ee7b:	0f 85 c7 00 00 00    	jne    ef48 <_ZN10TextParser10next_tokenERNSt7__cxx1112basic_stringIcSt11char_traitsIcESaIcEEE+0x108>
    ee81:	e8 1a f5 ff ff       	callq  e3a0 <_ZN10TextParser10get_latin1EPKc.part.14>
    ee86:	48 85 c0             	test   %rax,%rax
    ee89:	0f 84 b9 00 00 00    	je     ef48 <_ZN10TextParser10next_tokenERNSt7__cxx1112basic_stringIcSt11char_traitsIcESaIcEEE+0x108>
    ee8f:	48 89 c7             	mov    %rax,%rdi
    ee92:	e8 59 58 ff ff       	callq  46f0 <strlen@plt>
    ee97:	49 01 c7             	add    %rax,%r15
    ee9a:	4c 89 bb d0 00 00 00 	mov    %r15,0xd0(%rbx)
    eea1:	48 8b 75 00          	mov    0x0(%rbp),%rsi
    eea5:	0f 1f 00             	nopl   (%rax)
    eea8:	4c 89 e2             	mov    %r12,%rdx
    eeab:	48 89 df             	mov    %rbx,%rdi
    eeae:	e8 bd fb ff ff       	callq  ea70 <_ZN10TextParser9next_charEPKcPm>
    eeb3:	85 c0                	test   %eax,%eax
    eeb5:	75 79                	jne    ef30 <_ZN10TextParser10next_tokenERNSt7__cxx1112basic_stringIcSt11char_traitsIcESaIcEEE+0xf0>
    eeb7:	48 63 ab cc 00 00 00 	movslq 0xcc(%rbx),%rbp
    eebe:	8b 83 e0 00 00 00    	mov    0xe0(%rbx),%eax
    eec4:	48 83 c5 01          	add    $0x1,%rbp
    eec8:	48 c1 e5 05          	shl    $0x5,%rbp
    eecc:	48 01 dd             	add    %rbx,%rbp
    eecf:	85 c0                	test   %eax,%eax
    eed1:	48 8b 75 00          	mov    0x0(%rbp),%rsi
    eed5:	75 91                	jne    ee68 <_ZN10TextParser10next_tokenERNSt7__cxx1112basic_stringIcSt11char_traitsIcESaIcEEE+0x28>
    eed7:	48 03 b3 d0 00 00 00 	add    0xd0(%rbx),%rsi
    eede:	48 89 df             	mov    %rbx,%rdi
    eee1:	e8 1a f9 ff ff       	callq  e800 <_ZN10TextParser11is_wordcharEPKc>
    eee6:	85 c0                	test   %eax,%eax
    eee8:	0f 84 ca 00 00 00    	je     efb8 <_ZN10TextParser10next_tokenERNSt7__cxx1112basic_stringIcSt11char_traitsIcESaIcEEE+0x178>
    eeee:	48 8b 83 d0 00 00 00 	mov    0xd0(%rbx),%rax
    eef5:	c7 83 e0 00 00 00 01 	movl   $0x1,0xe0(%rbx)
    eefc:	00 00 00 
    eeff:	4c 89 e2             	mov    %r12,%rdx
    ef02:	48 89 df             	mov    %rbx,%rdi
    ef05:	48 89 83 d8 00 00 00 	mov    %rax,0xd8(%rbx)
    ef0c:	48 63 83 cc 00 00 00 	movslq 0xcc(%rbx),%rax
    ef13:	48 83 c0 01          	add    $0x1,%rax
    ef17:	48 c1 e0 05          	shl    $0x5,%rax
    ef1b:	48 8b 34 03          	mov    (%rbx,%rax,1),%rsi
    ef1f:	e8 4c fb ff ff       	callq  ea70 <_ZN10TextParser9next_charEPKcPm>
    ef24:	85 c0                	test   %eax,%eax
    ef26:	74 8f                	je     eeb7 <_ZN10TextParser10next_tokenERNSt7__cxx1112basic_stringIcSt11char_traitsIcESaIcEEE+0x77>
    ef28:	0f 1f 84 00 00 00 00 	nopl   0x0(%rax,%rax,1)
    ef2f:	00 
    ef30:	31 c0                	xor    %eax,%eax
    ef32:	48 83 c4 18          	add    $0x18,%rsp
    ef36:	5b                   	pop    %rbx
    ef37:	5d                   	pop    %rbp
    ef38:	41 5c                	pop    %r12
    ef3a:	41 5d                	pop    %r13
    ef3c:	41 5e                	pop    %r14
    ef3e:	41 5f                	pop    %r15
    ef40:	c3                   	retq   
    ef41:	0f 1f 80 00 00 00 00 	nopl   0x0(%rax)
    ef48:	48 8d 35 05 2b 00 00 	lea    0x2b05(%rip),%rsi        # 11a54 <_ZTS9XMLParser+0x35c>
    ef4f:	48 89 df             	mov    %rbx,%rdi
    ef52:	e8 a9 f8 ff ff       	callq  e800 <_ZN10TextParser11is_wordcharEPKc>
    ef57:	85 c0                	test   %eax,%eax
    ef59:	0f 85 c1 00 00 00    	jne    f020 <_ZN10TextParser10next_tokenERNSt7__cxx1112basic_stringIcSt11char_traitsIcESaIcEEE+0x1e0>
    ef5f:	8b 93 e4 00 00 00    	mov    0xe4(%rbx),%edx
    ef65:	85 d2                	test   %edx,%edx
    ef67:	0f 85 a3 00 00 00    	jne    f010 <_ZN10TextParser10next_tokenERNSt7__cxx1112basic_stringIcSt11char_traitsIcESaIcEEE+0x1d0>
    ef6d:	48 63 93 cc 00 00 00 	movslq 0xcc(%rbx),%rdx
    ef74:	48 8b 83 d0 00 00 00 	mov    0xd0(%rbx),%rax
    ef7b:	48 83 c2 01          	add    $0x1,%rdx
    ef7f:	48 c1 e2 05          	shl    $0x5,%rdx
    ef83:	48 03 04 13          	add    (%rbx,%rdx,1),%rax
    ef87:	48 89 c6             	mov    %rax,%rsi
    ef8a:	48 89 df             	mov    %rbx,%rdi
    ef8d:	e8 6e f8 ff ff       	callq  e800 <_ZN10TextParser11is_wordcharEPKc>
    ef92:	85 c0                	test   %eax,%eax
    ef94:	0f 84 46 01 00 00    	je     f0e0 <_ZN10TextParser10next_tokenERNSt7__cxx1112basic_stringIcSt11char_traitsIcESaIcEEE+0x2a0>
    ef9a:	48 63 83 cc 00 00 00 	movslq 0xcc(%rbx),%rax
    efa1:	48 83 c0 01          	add    $0x1,%rax
    efa5:	48 c1 e0 05          	shl    $0x5,%rax
    efa9:	48 8b 34 03          	mov    (%rbx,%rax,1),%rsi
    efad:	e9 f6 fe ff ff       	jmpq   eea8 <_ZN10TextParser10next_tokenERNSt7__cxx1112basic_stringIcSt11char_traitsIcESaIcEEE+0x68>
    efb2:	66 0f 1f 44 00 00    	nopw   0x0(%rax,%rax,1)
    efb8:	48 63 ab cc 00 00 00 	movslq 0xcc(%rbx),%rbp
    efbf:	4c 8b bb d0 00 00 00 	mov    0xd0(%rbx),%r15
    efc6:	48 83 c5 01          	add    $0x1,%rbp
    efca:	48 c1 e5 05          	shl    $0x5,%rbp
    efce:	48 01 dd             	add    %rbx,%rbp
    efd1:	48 8b 75 00          	mov    0x0(%rbp),%rsi
    efd5:	4a 8d 3c 3e          	lea    (%rsi,%r15,1),%rdi
    efd9:	80 3f 26             	cmpb   $0x26,(%rdi)
    efdc:	0f 85 c6 fe ff ff    	jne    eea8 <_ZN10TextParser10next_tokenERNSt7__cxx1112basic_stringIcSt11char_traitsIcESaIcEEE+0x68>
    efe2:	48 89 74 24 08       	mov    %rsi,0x8(%rsp)
    efe7:	e8 b4 f3 ff ff       	callq  e3a0 <_ZN10TextParser10get_latin1EPKc.part.14>
    efec:	48 85 c0             	test   %rax,%rax
    efef:	48 8b 74 24 08       	mov    0x8(%rsp),%rsi
    eff4:	0f 84 ae fe ff ff    	je     eea8 <_ZN10TextParser10next_tokenERNSt7__cxx1112basic_stringIcSt11char_traitsIcESaIcEEE+0x68>
    effa:	c7 83 e0 00 00 00 01 	movl   $0x1,0xe0(%rbx)
    f001:	00 00 00 
    f004:	4c 89 bb d8 00 00 00 	mov    %r15,0xd8(%rbx)
    f00b:	e9 7f fe ff ff       	jmpq   ee8f <_ZN10TextParser10next_tokenERNSt7__cxx1112basic_stringIcSt11char_traitsIcESaIcEEE+0x4f>
    f010:	4c 89 ee             	mov    %r13,%rsi
    f013:	48 89 df             	mov    %rbx,%rdi
    f016:	e8 e5 f7 ff ff       	callq  e800 <_ZN10TextParser11is_wordcharEPKc>
    f01b:	85 c0                	test   %eax,%eax
    f01d:	74 2e                	je     f04d <_ZN10TextParser10next_tokenERNSt7__cxx1112basic_stringIcSt11char_traitsIcESaIcEEE+0x20d>
    f01f:	90                   	nop
    f020:	48 63 83 cc 00 00 00 	movslq 0xcc(%rbx),%rax
    f027:	48 83 c0 01          	add    $0x1,%rax
    f02b:	48 c1 e0 05          	shl    $0x5,%rax
    f02f:	48 01 d8             	add    %rbx,%rax
    f032:	48 83 78 08 00       	cmpq   $0x0,0x8(%rax)
    f037:	74 14                	je     f04d <_ZN10TextParser10next_tokenERNSt7__cxx1112basic_stringIcSt11char_traitsIcESaIcEEE+0x20d>
    f039:	48 8b 93 d0 00 00 00 	mov    0xd0(%rbx),%rdx
    f040:	48 8b 00             	mov    (%rax),%rax
    f043:	80 3c 10 27          	cmpb   $0x27,(%rax,%rdx,1)
    f047:	0f 84 c3 00 00 00    	je     f110 <_ZN10TextParser10next_tokenERNSt7__cxx1112basic_stringIcSt11char_traitsIcESaIcEEE+0x2d0>
    f04d:	8b 83 e4 00 00 00    	mov    0xe4(%rbx),%eax
    f053:	85 c0                	test   %eax,%eax
    f055:	0f 84 12 ff ff ff    	je     ef6d <_ZN10TextParser10next_tokenERNSt7__cxx1112basic_stringIcSt11char_traitsIcESaIcEEE+0x12d>
    f05b:	48 8d 35 f2 29 00 00 	lea    0x29f2(%rip),%rsi        # 11a54 <_ZTS9XMLParser+0x35c>
    f062:	48 89 df             	mov    %rbx,%rdi
    f065:	e8 96 f7 ff ff       	callq  e800 <_ZN10TextParser11is_wordcharEPKc>
    f06a:	85 c0                	test   %eax,%eax
    f06c:	0f 84 fb fe ff ff    	je     ef6d <_ZN10TextParser10next_tokenERNSt7__cxx1112basic_stringIcSt11char_traitsIcESaIcEEE+0x12d>
    f072:	48 63 83 cc 00 00 00 	movslq 0xcc(%rbx),%rax
    f079:	4c 8b 83 d0 00 00 00 	mov    0xd0(%rbx),%r8
    f080:	b9 03 00 00 00       	mov    $0x3,%ecx
    f085:	4c 89 ef             	mov    %r13,%rdi
    f088:	48 83 c0 01          	add    $0x1,%rax
    f08c:	48 c1 e0 05          	shl    $0x5,%rax
    f090:	4c 8b 0c 03          	mov    (%rbx,%rax,1),%r9
    f094:	4b 8d 04 01          	lea    (%r9,%r8,1),%rax
    f098:	48 89 c6             	mov    %rax,%rsi
    f09b:	f3 a6                	repz cmpsb %es:(%rdi),%ds:(%rsi)
    f09d:	0f 97 c2             	seta   %dl
    f0a0:	80 da 00             	sbb    $0x0,%dl
    f0a3:	84 d2                	test   %dl,%dl
    f0a5:	0f 85 dc fe ff ff    	jne    ef87 <_ZN10TextParser10next_tokenERNSt7__cxx1112basic_stringIcSt11char_traitsIcESaIcEEE+0x147>
    f0ab:	4b 8d 74 01 03       	lea    0x3(%r9,%r8,1),%rsi
    f0b0:	48 89 df             	mov    %rbx,%rdi
    f0b3:	e8 48 f7 ff ff       	callq  e800 <_ZN10TextParser11is_wordcharEPKc>
    f0b8:	85 c0                	test   %eax,%eax
    f0ba:	0f 84 ad fe ff ff    	je     ef6d <_ZN10TextParser10next_tokenERNSt7__cxx1112basic_stringIcSt11char_traitsIcESaIcEEE+0x12d>
    f0c0:	48 63 83 cc 00 00 00 	movslq 0xcc(%rbx),%rax
    f0c7:	48 83 83 d0 00 00 00 	addq   $0x2,0xd0(%rbx)
    f0ce:	02 
    f0cf:	48 83 c0 01          	add    $0x1,%rax
    f0d3:	48 c1 e0 05          	shl    $0x5,%rax
    f0d7:	48 8b 34 03          	mov    (%rbx,%rax,1),%rsi
    f0db:	e9 c8 fd ff ff       	jmpq   eea8 <_ZN10TextParser10next_tokenERNSt7__cxx1112basic_stringIcSt11char_traitsIcESaIcEEE+0x68>
    f0e0:	48 8b b3 d8 00 00 00 	mov    0xd8(%rbx),%rsi
    f0e7:	c7 83 e0 00 00 00 00 	movl   $0x0,0xe0(%rbx)
    f0ee:	00 00 00 
    f0f1:	4c 89 f1             	mov    %r14,%rcx
    f0f4:	4c 89 e2             	mov    %r12,%rdx
    f0f7:	48 89 df             	mov    %rbx,%rdi
    f0fa:	e8 61 fb ff ff       	callq  ec60 <_ZN10TextParser11alloc_tokenEmPmRNSt7__cxx1112basic_stringIcSt11char_traitsIcESaIcEEE>
    f0ff:	84 c0                	test   %al,%al
    f101:	0f 84 93 fe ff ff    	je     ef9a <_ZN10TextParser10next_tokenERNSt7__cxx1112basic_stringIcSt11char_traitsIcESaIcEEE+0x15a>
    f107:	e9 26 fe ff ff       	jmpq   ef32 <_ZN10TextParser10next_tokenERNSt7__cxx1112basic_stringIcSt11char_traitsIcESaIcEEE+0xf2>
    f10c:	0f 1f 40 00          	nopl   0x0(%rax)
    f110:	48 8d 74 10 01       	lea    0x1(%rax,%rdx,1),%rsi
    f115:	48 89 df             	mov    %rbx,%rdi
    f118:	e8 e3 f6 ff ff       	callq  e800 <_ZN10TextParser11is_wordcharEPKc>
    f11d:	85 c0                	test   %eax,%eax
    f11f:	0f 84 28 ff ff ff    	je     f04d <_ZN10TextParser10next_tokenERNSt7__cxx1112basic_stringIcSt11char_traitsIcESaIcEEE+0x20d>
    f125:	48 63 83 cc 00 00 00 	movslq 0xcc(%rbx),%rax
    f12c:	48 83 83 d0 00 00 00 	addq   $0x1,0xd0(%rbx)
    f133:	01 
    f134:	48 83 c0 01          	add    $0x1,%rax
    f138:	48 c1 e0 05          	shl    $0x5,%rax
    f13c:	48 8b 34 03          	mov    (%rbx,%rax,1),%rsi
    f140:	e9 63 fd ff ff       	jmpq   eea8 <_ZN10TextParser10next_tokenERNSt7__cxx1112basic_stringIcSt11char_traitsIcESaIcEEE+0x68>
    f145:	90                   	nop
    f146:	66 2e 0f 1f 84 00 00 	nopw   %cs:0x0(%rax,%rax,1)
    f14d:	00 00 00 

000000000000f150 <_ZN10TextParser4initEPKc>:
    f150:	41 54                	push   %r12
    f152:	55                   	push   %rbp
    f153:	49 89 f4             	mov    %rsi,%r12
    f156:	53                   	push   %rbx
    f157:	48 89 fd             	mov    %rdi,%rbp
    f15a:	48 83 ec 10          	sub    $0x10,%rsp
    f15e:	48 8b 77 10          	mov    0x10(%rdi),%rsi
    f162:	48 8b 57 08          	mov    0x8(%rdi),%rdx
    f166:	64 48 8b 04 25 28 00 	mov    %fs:0x28,%rax
    f16d:	00 00 
    f16f:	48 89 44 24 08       	mov    %rax,0x8(%rsp)
    f174:	31 c0                	xor    %eax,%eax
    f176:	48 c7 87 c8 00 00 00 	movq   $0x0,0xc8(%rdi)
    f17d:	00 00 00 00 
    f181:	48 c7 87 d0 00 00 00 	movq   $0x0,0xd0(%rdi)
    f188:	00 00 00 00 
    f18c:	48 89 f0             	mov    %rsi,%rax
    f18f:	48 c7 87 d8 00 00 00 	movq   $0x0,0xd8(%rdi)
    f196:	00 00 00 00 
    f19a:	48 c7 87 e0 00 00 00 	movq   $0x0,0xe0(%rdi)
    f1a1:	00 00 00 00 
    f1a5:	48 29 d0             	sub    %rdx,%rax
    f1a8:	48 c7 87 e8 00 00 00 	movq   $0x0,0xe8(%rdi)
    f1af:	00 00 00 00 
    f1b3:	c7 87 f0 00 00 00 00 	movl   $0x0,0xf0(%rdi)
    f1ba:	00 00 00 
    f1bd:	48 c1 f8 02          	sar    $0x2,%rax
    f1c1:	c7 44 24 04 00 00 00 	movl   $0x0,0x4(%rsp)
    f1c8:	00 
    f1c9:	48 3d ff 00 00 00    	cmp    $0xff,%rax
    f1cf:	76 7f                	jbe    f250 <_ZN10TextParser4initEPKc+0x100>
    f1d1:	48 3d 00 01 00 00    	cmp    $0x100,%rax
    f1d7:	74 0b                	je     f1e4 <_ZN10TextParser4initEPKc+0x94>
    f1d9:	48 81 c2 00 04 00 00 	add    $0x400,%rdx
    f1e0:	48 89 57 10          	mov    %rdx,0x10(%rdi)
    f1e4:	4d 85 e4             	test   %r12,%r12
    f1e7:	74 4f                	je     f238 <_ZN10TextParser4initEPKc+0xe8>
    f1e9:	4c 89 e7             	mov    %r12,%rdi
    f1ec:	e8 ff 54 ff ff       	callq  46f0 <strlen@plt>
    f1f1:	31 db                	xor    %ebx,%ebx
    f1f3:	eb 1e                	jmp    f213 <_ZN10TextParser4initEPKc+0xc3>
    f1f5:	0f 1f 00             	nopl   (%rax)
    f1f8:	41 0f b6 14 14       	movzbl (%r12,%rdx,1),%edx
    f1fd:	48 8b 45 08          	mov    0x8(%rbp),%rax
    f201:	4c 89 e7             	mov    %r12,%rdi
    f204:	83 c3 01             	add    $0x1,%ebx
    f207:	c7 04 90 01 00 00 00 	movl   $0x1,(%rax,%rdx,4)
    f20e:	e8 dd 54 ff ff       	callq  46f0 <strlen@plt>
    f213:	89 da                	mov    %ebx,%edx
    f215:	48 39 c2             	cmp    %rax,%rdx
    f218:	72 de                	jb     f1f8 <_ZN10TextParser4initEPKc+0xa8>
    f21a:	48 8b 44 24 08       	mov    0x8(%rsp),%rax
    f21f:	64 48 33 04 25 28 00 	xor    %fs:0x28,%rax
    f226:	00 00 
    f228:	75 41                	jne    f26b <_ZN10TextParser4initEPKc+0x11b>
    f22a:	48 83 c4 10          	add    $0x10,%rsp
    f22e:	5b                   	pop    %rbx
    f22f:	5d                   	pop    %rbp
    f230:	41 5c                	pop    %r12
    f232:	c3                   	retq   
    f233:	0f 1f 44 00 00       	nopl   0x0(%rax,%rax,1)
    f238:	b8 34 00 00 00       	mov    $0x34,%eax
    f23d:	4c 8d 25 44 29 00 00 	lea    0x2944(%rip),%r12        # 11b88 <_ZTS9ManParser+0x108>
    f244:	eb ab                	jmp    f1f1 <_ZN10TextParser4initEPKc+0xa1>
    f246:	66 2e 0f 1f 84 00 00 	nopw   %cs:0x0(%rax,%rax,1)
    f24d:	00 00 00 
    f250:	48 8d 4c 24 04       	lea    0x4(%rsp),%rcx
    f255:	ba 00 01 00 00       	mov    $0x100,%edx
    f25a:	48 8d 7f 08          	lea    0x8(%rdi),%rdi
    f25e:	48 29 c2             	sub    %rax,%rdx
    f261:	e8 fa 05 00 00       	callq  f860 <_ZNSt6vectorIiSaIiEE14_M_fill_insertEN9__gnu_cxx17__normal_iteratorIPiS1_EEmRKi>
    f266:	e9 79 ff ff ff       	jmpq   f1e4 <_ZN10TextParser4initEPKc+0x94>
    f26b:	e8 20 56 ff ff       	callq  4890 <__stack_chk_fail@plt>

000000000000f270 <_ZN10TextParserC1EPKc>:
    f270:	41 55                	push   %r13
    f272:	48 8d 05 7f 52 20 00 	lea    0x20527f(%rip),%rax        # 2144f8 <_ZTV10TextParser+0x10>
    f279:	41 54                	push   %r12
    f27b:	4c 8d 67 20          	lea    0x20(%rdi),%r12
    f27f:	55                   	push   %rbp
    f280:	53                   	push   %rbx
    f281:	48 8d af a0 00 00 00 	lea    0xa0(%rdi),%rbp
    f288:	48 89 fb             	mov    %rdi,%rbx
    f28b:	48 83 ec 08          	sub    $0x8,%rsp
    f28f:	48 89 07             	mov    %rax,(%rdi)
    f292:	48 c7 47 08 00 00 00 	movq   $0x0,0x8(%rdi)
    f299:	00 
    f29a:	48 c7 47 10 00 00 00 	movq   $0x0,0x10(%rdi)
    f2a1:	00 
    f2a2:	48 c7 47 18 00 00 00 	movq   $0x0,0x18(%rdi)
    f2a9:	00 
    f2aa:	4c 89 e0             	mov    %r12,%rax
    f2ad:	48 8d 50 10          	lea    0x10(%rax),%rdx
    f2b1:	48 c7 40 08 00 00 00 	movq   $0x0,0x8(%rax)
    f2b8:	00 
    f2b9:	c6 40 10 00          	movb   $0x0,0x10(%rax)
    f2bd:	48 83 c0 20          	add    $0x20,%rax
    f2c1:	48 89 50 e0          	mov    %rdx,-0x20(%rax)
    f2c5:	48 39 e8             	cmp    %rbp,%rax
    f2c8:	75 e3                	jne    f2ad <_ZN10TextParserC1EPKc+0x3d>
    f2ca:	48 c7 83 a0 00 00 00 	movq   $0x0,0xa0(%rbx)
    f2d1:	00 00 00 00 
    f2d5:	c7 83 a8 00 00 00 00 	movl   $0x0,0xa8(%rbx)
    f2dc:	00 00 00 
    f2df:	48 89 df             	mov    %rbx,%rdi
    f2e2:	48 c7 83 b0 00 00 00 	movq   $0x0,0xb0(%rbx)
    f2e9:	00 00 00 00 
    f2ed:	c7 83 b8 00 00 00 00 	movl   $0x0,0xb8(%rbx)
    f2f4:	00 00 00 
    f2f7:	48 c7 83 c0 00 00 00 	movq   $0x0,0xc0(%rbx)
    f2fe:	00 00 00 00 
    f302:	e8 49 fe ff ff       	callq  f150 <_ZN10TextParser4initEPKc>
    f307:	48 83 c4 08          	add    $0x8,%rsp
    f30b:	5b                   	pop    %rbx
    f30c:	5d                   	pop    %rbp
    f30d:	41 5c                	pop    %r12
    f30f:	41 5d                	pop    %r13
    f311:	c3                   	retq   
    f312:	49 89 c5             	mov    %rax,%r13
    f315:	48 8b 83 a0 00 00 00 	mov    0xa0(%rbx),%rax
    f31c:	48 85 c0             	test   %rax,%rax
    f31f:	74 08                	je     f329 <_ZN10TextParserC1EPKc+0xb9>
    f321:	48 89 c7             	mov    %rax,%rdi
    f324:	e8 d7 54 ff ff       	callq  4800 <_ZdlPv@plt>
    f329:	4c 39 e5             	cmp    %r12,%rbp
    f32c:	74 13                	je     f341 <_ZN10TextParserC1EPKc+0xd1>
    f32e:	48 83 ed 20          	sub    $0x20,%rbp
    f332:	48 8b 7d 00          	mov    0x0(%rbp),%rdi
    f336:	48 8d 45 10          	lea    0x10(%rbp),%rax
    f33a:	48 39 c7             	cmp    %rax,%rdi
    f33d:	75 e5                	jne    f324 <_ZN10TextParserC1EPKc+0xb4>
    f33f:	eb e8                	jmp    f329 <_ZN10TextParserC1EPKc+0xb9>
    f341:	48 8b 7b 08          	mov    0x8(%rbx),%rdi
    f345:	48 85 ff             	test   %rdi,%rdi
    f348:	74 05                	je     f34f <_ZN10TextParserC1EPKc+0xdf>
    f34a:	e8 b1 54 ff ff       	callq  4800 <_ZdlPv@plt>
    f34f:	4c 89 ef             	mov    %r13,%rdi
    f352:	e8 b9 57 ff ff       	callq  4b10 <_Unwind_Resume@plt>
    f357:	90                   	nop
    f358:	0f 1f 84 00 00 00 00 	nopl   0x0(%rax,%rax,1)
    f35f:	00 

000000000000f360 <_ZN10TextParser10check_urlsEv>:
    f360:	41 57                	push   %r15
    f362:	41 56                	push   %r14
    f364:	41 55                	push   %r13
    f366:	41 54                	push   %r12
    f368:	55                   	push   %rbp
    f369:	53                   	push   %rbx
    f36a:	48 89 fb             	mov    %rdi,%rbx
    f36d:	48 83 ec 48          	sub    $0x48,%rsp
    f371:	48 8b b3 b0 00 00 00 	mov    0xb0(%rbx),%rsi
    f378:	44 8b 83 a8 00 00 00 	mov    0xa8(%rbx),%r8d
    f37f:	64 48 8b 04 25 28 00 	mov    %fs:0x28,%rax
    f386:	00 00 
    f388:	48 89 44 24 38       	mov    %rax,0x38(%rsp)
    f38d:	31 c0                	xor    %eax,%eax
    f38f:	48 63 87 cc 00 00 00 	movslq 0xcc(%rdi),%rax
    f396:	49 89 f2             	mov    %rsi,%r10
    f399:	48 8d 50 01          	lea    0x1(%rax),%rdx
    f39d:	48 c1 e2 05          	shl    $0x5,%rdx
    f3a1:	48 8b 4c 17 08       	mov    0x8(%rdi,%rdx,1),%rcx
    f3a6:	8b 93 b8 00 00 00    	mov    0xb8(%rbx),%edx
    f3ac:	48 8b bf a0 00 00 00 	mov    0xa0(%rdi),%rdi
    f3b3:	48 83 c1 01          	add    $0x1,%rcx
    f3b7:	49 29 fa             	sub    %rdi,%r10
    f3ba:	49 89 d1             	mov    %rdx,%r9
    f3bd:	4a 8d 14 d2          	lea    (%rdx,%r10,8),%rdx
    f3c1:	4c 29 c2             	sub    %r8,%rdx
    f3c4:	48 39 d1             	cmp    %rdx,%rcx
    f3c7:	0f 83 b3 02 00 00    	jae    f680 <_ZN10TextParser10check_urlsEv+0x320>
    f3cd:	4c 01 c1             	add    %r8,%rcx
    f3d0:	48 8d 51 3f          	lea    0x3f(%rcx),%rdx
    f3d4:	48 85 c9             	test   %rcx,%rcx
    f3d7:	48 0f 49 d1          	cmovns %rcx,%rdx
    f3db:	48 c1 fa 06          	sar    $0x6,%rdx
    f3df:	48 8d 34 d7          	lea    (%rdi,%rdx,8),%rsi
    f3e3:	48 89 ca             	mov    %rcx,%rdx
    f3e6:	48 c1 fa 3f          	sar    $0x3f,%rdx
    f3ea:	48 c1 ea 3a          	shr    $0x3a,%rdx
    f3ee:	48 01 d1             	add    %rdx,%rcx
    f3f1:	83 e1 3f             	and    $0x3f,%ecx
    f3f4:	48 29 d1             	sub    %rdx,%rcx
    f3f7:	0f 88 63 02 00 00    	js     f660 <_ZN10TextParser10check_urlsEv+0x300>
    f3fd:	48 89 b3 b0 00 00 00 	mov    %rsi,0xb0(%rbx)
    f404:	89 8b b8 00 00 00    	mov    %ecx,0xb8(%rbx)
    f40a:	48 8d 6c 24 18       	lea    0x18(%rsp),%rbp
    f40f:	4c 8d 2d 7e 26 00 00 	lea    0x267e(%rip),%r13        # 11a94 <_ZTS9ManParser+0x14>
    f416:	4c 8d 35 7a 26 00 00 	lea    0x267a(%rip),%r14        # 11a97 <_ZTS9ManParser+0x17>
    f41d:	48 c7 44 24 18 00 00 	movq   $0x0,0x18(%rsp)
    f424:	00 00 
    f426:	31 f6                	xor    %esi,%esi
    f428:	41 bc 01 00 00 00    	mov    $0x1,%r12d
    f42e:	48 83 c0 01          	add    $0x1,%rax
    f432:	48 89 df             	mov    %rbx,%rdi
    f435:	48 c1 e0 05          	shl    $0x5,%rax
    f439:	48 03 34 03          	add    (%rbx,%rax,1),%rsi
    f43d:	e8 be f3 ff ff       	callq  e800 <_ZN10TextParser11is_wordcharEPKc>
    f442:	85 c0                	test   %eax,%eax
    f444:	4c 8b 7c 24 18       	mov    0x18(%rsp),%r15
    f449:	0f 84 f1 00 00 00    	je     f540 <_ZN10TextParser10check_urlsEv+0x1e0>
    f44f:	48 8b 93 a0 00 00 00 	mov    0xa0(%rbx),%rdx
    f456:	44 89 f9             	mov    %r15d,%ecx
    f459:	4c 89 fe             	mov    %r15,%rsi
    f45c:	4c 89 e0             	mov    %r12,%rax
    f45f:	48 c1 ee 06          	shr    $0x6,%rsi
    f463:	48 89 df             	mov    %rbx,%rdi
    f466:	48 d3 e0             	shl    %cl,%rax
    f469:	48 f7 d0             	not    %rax
    f46c:	48 21 04 f2          	and    %rax,(%rdx,%rsi,8)
    f470:	48 89 ea             	mov    %rbp,%rdx
    f473:	48 63 83 cc 00 00 00 	movslq 0xcc(%rbx),%rax
    f47a:	48 83 c0 01          	add    $0x1,%rax
    f47e:	48 c1 e0 05          	shl    $0x5,%rax
    f482:	48 8b 34 03          	mov    (%rbx,%rax,1),%rsi
    f486:	e8 e5 f5 ff ff       	callq  ea70 <_ZN10TextParser9next_charEPKcPm>
    f48b:	85 c0                	test   %eax,%eax
    f48d:	41 89 c0             	mov    %eax,%r8d
    f490:	0f 85 a2 01 00 00    	jne    f638 <_ZN10TextParser10check_urlsEv+0x2d8>
    f496:	48 63 83 cc 00 00 00 	movslq 0xcc(%rbx),%rax
    f49d:	48 8b 54 24 18       	mov    0x18(%rsp),%rdx
    f4a2:	48 83 c0 01          	add    $0x1,%rax
    f4a6:	48 c1 e0 05          	shl    $0x5,%rax
    f4aa:	48 8b 3c 03          	mov    (%rbx,%rax,1),%rdi
    f4ae:	48 01 d7             	add    %rdx,%rdi
    f4b1:	44 0f b6 0f          	movzbl (%rdi),%r9d
    f4b5:	48 89 f8             	mov    %rdi,%rax
    f4b8:	41 80 f9 40          	cmp    $0x40,%r9b
    f4bc:	74 32                	je     f4f0 <_ZN10TextParser10check_urlsEv+0x190>
    f4be:	b9 02 00 00 00       	mov    $0x2,%ecx
    f4c3:	48 89 fe             	mov    %rdi,%rsi
    f4c6:	4c 89 ef             	mov    %r13,%rdi
    f4c9:	f3 a6                	repz cmpsb %es:(%rdi),%ds:(%rsi)
    f4cb:	0f 97 c1             	seta   %cl
    f4ce:	80 d9 00             	sbb    $0x0,%cl
    f4d1:	84 c9                	test   %cl,%cl
    f4d3:	74 1b                	je     f4f0 <_ZN10TextParser10check_urlsEv+0x190>
    f4d5:	b9 03 00 00 00       	mov    $0x3,%ecx
    f4da:	48 89 c6             	mov    %rax,%rsi
    f4dd:	4c 89 f7             	mov    %r14,%rdi
    f4e0:	f3 a6                	repz cmpsb %es:(%rdi),%ds:(%rsi)
    f4e2:	0f 97 c1             	seta   %cl
    f4e5:	80 d9 00             	sbb    $0x0,%cl
    f4e8:	84 c9                	test   %cl,%cl
    f4ea:	0f 85 d0 00 00 00    	jne    f5c0 <_ZN10TextParser10check_urlsEv+0x260>
    f4f0:	48 8b b3 a0 00 00 00 	mov    0xa0(%rbx),%rsi
    f4f7:	48 89 d7             	mov    %rdx,%rdi
    f4fa:	4c 89 e0             	mov    %r12,%rax
    f4fd:	89 d1                	mov    %edx,%ecx
    f4ff:	48 c1 ef 06          	shr    $0x6,%rdi
    f503:	48 d3 e0             	shl    %cl,%rax
    f506:	48 f7 d0             	not    %rax
    f509:	48 21 04 fe          	and    %rax,(%rsi,%rdi,8)
    f50d:	48 63 83 cc 00 00 00 	movslq 0xcc(%rbx),%rax
    f514:	48 89 ea             	mov    %rbp,%rdx
    f517:	48 89 df             	mov    %rbx,%rdi
    f51a:	48 83 c0 01          	add    $0x1,%rax
    f51e:	48 c1 e0 05          	shl    $0x5,%rax
    f522:	48 8b 34 03          	mov    (%rbx,%rax,1),%rsi
    f526:	e8 45 f5 ff ff       	callq  ea70 <_ZN10TextParser9next_charEPKcPm>
    f52b:	85 c0                	test   %eax,%eax
    f52d:	0f 85 05 01 00 00    	jne    f638 <_ZN10TextParser10check_urlsEv+0x2d8>
    f533:	41 b8 01 00 00 00    	mov    $0x1,%r8d
    f539:	e9 58 ff ff ff       	jmpq   f496 <_ZN10TextParser10check_urlsEv+0x136>
    f53e:	66 90                	xchg   %ax,%ax
    f540:	48 8b 83 a0 00 00 00 	mov    0xa0(%rbx),%rax
    f547:	4c 89 fa             	mov    %r15,%rdx
    f54a:	44 89 f9             	mov    %r15d,%ecx
    f54d:	48 c1 ea 06          	shr    $0x6,%rdx
    f551:	48 8d 34 d0          	lea    (%rax,%rdx,8),%rsi
    f555:	48 63 93 cc 00 00 00 	movslq 0xcc(%rbx),%rdx
    f55c:	4c 89 e0             	mov    %r12,%rax
    f55f:	48 d3 e0             	shl    %cl,%rax
    f562:	48 f7 d0             	not    %rax
    f565:	48 23 06             	and    (%rsi),%rax
    f568:	48 83 c2 01          	add    $0x1,%rdx
    f56c:	48 c1 e2 05          	shl    $0x5,%rdx
    f570:	48 8b 14 13          	mov    (%rbx,%rdx,1),%rdx
    f574:	42 80 3c 3a 2f       	cmpb   $0x2f,(%rdx,%r15,1)
    f579:	0f 84 f1 00 00 00    	je     f670 <_ZN10TextParser10check_urlsEv+0x310>
    f57f:	48 89 06             	mov    %rax,(%rsi)
    f582:	48 63 83 cc 00 00 00 	movslq 0xcc(%rbx),%rax
    f589:	48 89 ea             	mov    %rbp,%rdx
    f58c:	48 89 df             	mov    %rbx,%rdi
    f58f:	48 83 c0 01          	add    $0x1,%rax
    f593:	48 c1 e0 05          	shl    $0x5,%rax
    f597:	48 8b 34 03          	mov    (%rbx,%rax,1),%rsi
    f59b:	e8 d0 f4 ff ff       	callq  ea70 <_ZN10TextParser9next_charEPKcPm>
    f5a0:	85 c0                	test   %eax,%eax
    f5a2:	0f 85 90 00 00 00    	jne    f638 <_ZN10TextParser10check_urlsEv+0x2d8>
    f5a8:	48 8b 74 24 18       	mov    0x18(%rsp),%rsi
    f5ad:	48 63 83 cc 00 00 00 	movslq 0xcc(%rbx),%rax
    f5b4:	e9 75 fe ff ff       	jmpq   f42e <_ZN10TextParser10check_urlsEv+0xce>
    f5b9:	0f 1f 80 00 00 00 00 	nopl   0x0(%rax)
    f5c0:	48 89 c6             	mov    %rax,%rsi
    f5c3:	48 89 df             	mov    %rbx,%rdi
    f5c6:	44 89 44 24 08       	mov    %r8d,0x8(%rsp)
    f5cb:	44 88 4c 24 0f       	mov    %r9b,0xf(%rsp)
    f5d0:	e8 2b f2 ff ff       	callq  e800 <_ZN10TextParser11is_wordcharEPKc>
    f5d5:	85 c0                	test   %eax,%eax
    f5d7:	44 8b 44 24 08       	mov    0x8(%rsp),%r8d
    f5dc:	0f 84 ce 00 00 00    	je     f6b0 <_ZN10TextParser10check_urlsEv+0x350>
    f5e2:	48 8b 4c 24 18       	mov    0x18(%rsp),%rcx
    f5e7:	48 8b 93 a0 00 00 00 	mov    0xa0(%rbx),%rdx
    f5ee:	4c 89 e0             	mov    %r12,%rax
    f5f1:	44 89 44 24 08       	mov    %r8d,0x8(%rsp)
    f5f6:	48 89 ce             	mov    %rcx,%rsi
    f5f9:	48 d3 e0             	shl    %cl,%rax
    f5fc:	48 c1 ee 06          	shr    $0x6,%rsi
    f600:	48 f7 d0             	not    %rax
    f603:	48 21 04 f2          	and    %rax,(%rdx,%rsi,8)
    f607:	48 63 83 cc 00 00 00 	movslq 0xcc(%rbx),%rax
    f60e:	48 89 ea             	mov    %rbp,%rdx
    f611:	48 89 df             	mov    %rbx,%rdi
    f614:	48 83 c0 01          	add    $0x1,%rax
    f618:	48 c1 e0 05          	shl    $0x5,%rax
    f61c:	48 8b 34 03          	mov    (%rbx,%rax,1),%rsi
    f620:	e8 4b f4 ff ff       	callq  ea70 <_ZN10TextParser9next_charEPKcPm>
    f625:	85 c0                	test   %eax,%eax
    f627:	44 8b 44 24 08       	mov    0x8(%rsp),%r8d
    f62c:	0f 84 64 fe ff ff    	je     f496 <_ZN10TextParser10check_urlsEv+0x136>
    f632:	66 0f 1f 44 00 00    	nopw   0x0(%rax,%rax,1)
    f638:	48 8b 44 24 38       	mov    0x38(%rsp),%rax
    f63d:	64 48 33 04 25 28 00 	xor    %fs:0x28,%rax
    f644:	00 00 
    f646:	0f 85 12 01 00 00    	jne    f75e <_ZN10TextParser10check_urlsEv+0x3fe>
    f64c:	48 83 c4 48          	add    $0x48,%rsp
    f650:	5b                   	pop    %rbx
    f651:	5d                   	pop    %rbp
    f652:	41 5c                	pop    %r12
    f654:	41 5d                	pop    %r13
    f656:	41 5e                	pop    %r14
    f658:	41 5f                	pop    %r15
    f65a:	c3                   	retq   
    f65b:	0f 1f 44 00 00       	nopl   0x0(%rax,%rax,1)
    f660:	48 83 c1 40          	add    $0x40,%rcx
    f664:	48 83 ee 08          	sub    $0x8,%rsi
    f668:	e9 90 fd ff ff       	jmpq   f3fd <_ZN10TextParser10check_urlsEv+0x9d>
    f66d:	0f 1f 00             	nopl   (%rax)
    f670:	48 89 06             	mov    %rax,(%rsi)
    f673:	e9 95 fe ff ff       	jmpq   f50d <_ZN10TextParser10check_urlsEv+0x1ad>
    f678:	0f 1f 84 00 00 00 00 	nopl   0x0(%rax,%rax,1)
    f67f:	00 
    f680:	44 89 4c 24 28       	mov    %r9d,0x28(%rsp)
    f685:	48 29 d1             	sub    %rdx,%rcx
    f688:	48 8b 54 24 28       	mov    0x28(%rsp),%rdx
    f68d:	48 8d bb a0 00 00 00 	lea    0xa0(%rbx),%rdi
    f694:	45 31 c0             	xor    %r8d,%r8d
    f697:	48 89 74 24 20       	mov    %rsi,0x20(%rsp)
    f69c:	e8 7f 04 00 00       	callq  fb20 <_ZNSt6vectorIbSaIbEE14_M_fill_insertESt13_Bit_iteratormb>
    f6a1:	48 63 83 cc 00 00 00 	movslq 0xcc(%rbx),%rax
    f6a8:	e9 5d fd ff ff       	jmpq   f40a <_ZN10TextParser10check_urlsEv+0xaa>
    f6ad:	0f 1f 00             	nopl   (%rax)
    f6b0:	44 0f b6 4c 24 0f    	movzbl 0xf(%rsp),%r9d
    f6b6:	48 8b 4c 24 18       	mov    0x18(%rsp),%rcx
    f6bb:	48 8b b3 a0 00 00 00 	mov    0xa0(%rbx),%rsi
    f6c2:	41 80 f9 2d          	cmp    $0x2d,%r9b
    f6c6:	74 78                	je     f740 <_ZN10TextParser10check_urlsEv+0x3e0>
    f6c8:	41 80 f9 5f          	cmp    $0x5f,%r9b
    f6cc:	74 72                	je     f740 <_ZN10TextParser10check_urlsEv+0x3e0>
    f6ce:	41 80 f9 5c          	cmp    $0x5c,%r9b
    f6d2:	74 6c                	je     f740 <_ZN10TextParser10check_urlsEv+0x3e0>
    f6d4:	41 80 f9 2e          	cmp    $0x2e,%r9b
    f6d8:	74 66                	je     f740 <_ZN10TextParser10check_urlsEv+0x3e0>
    f6da:	41 80 f9 3a          	cmp    $0x3a,%r9b
    f6de:	74 60                	je     f740 <_ZN10TextParser10check_urlsEv+0x3e0>
    f6e0:	41 80 f9 2f          	cmp    $0x2f,%r9b
    f6e4:	74 5a                	je     f740 <_ZN10TextParser10check_urlsEv+0x3e0>
    f6e6:	41 80 f9 7e          	cmp    $0x7e,%r9b
    f6ea:	74 54                	je     f740 <_ZN10TextParser10check_urlsEv+0x3e0>
    f6ec:	41 80 f9 25          	cmp    $0x25,%r9b
    f6f0:	74 4e                	je     f740 <_ZN10TextParser10check_urlsEv+0x3e0>
    f6f2:	41 80 f9 2a          	cmp    $0x2a,%r9b
    f6f6:	74 48                	je     f740 <_ZN10TextParser10check_urlsEv+0x3e0>
    f6f8:	41 80 f9 24          	cmp    $0x24,%r9b
    f6fc:	74 42                	je     f740 <_ZN10TextParser10check_urlsEv+0x3e0>
    f6fe:	41 8d 41 a5          	lea    -0x5b(%r9),%eax
    f702:	a8 fd                	test   $0xfd,%al
    f704:	74 3a                	je     f740 <_ZN10TextParser10check_urlsEv+0x3e0>
    f706:	41 80 f9 3f          	cmp    $0x3f,%r9b
    f70a:	74 34                	je     f740 <_ZN10TextParser10check_urlsEv+0x3e0>
    f70c:	41 80 f9 21          	cmp    $0x21,%r9b
    f710:	74 2e                	je     f740 <_ZN10TextParser10check_urlsEv+0x3e0>
    f712:	41 83 e9 30          	sub    $0x30,%r9d
    f716:	41 80 f9 09          	cmp    $0x9,%r9b
    f71a:	76 24                	jbe    f740 <_ZN10TextParser10check_urlsEv+0x3e0>
    f71c:	41 83 e8 01          	sub    $0x1,%r8d
    f720:	74 41                	je     f763 <_ZN10TextParser10check_urlsEv+0x403>
    f722:	48 89 ca             	mov    %rcx,%rdx
    f725:	4c 89 e0             	mov    %r12,%rax
    f728:	48 c1 ea 06          	shr    $0x6,%rdx
    f72c:	48 d3 e0             	shl    %cl,%rax
    f72f:	48 f7 d0             	not    %rax
    f732:	48 21 04 d6          	and    %rax,(%rsi,%rdx,8)
    f736:	e9 47 fe ff ff       	jmpq   f582 <_ZN10TextParser10check_urlsEv+0x222>
    f73b:	0f 1f 44 00 00       	nopl   0x0(%rax,%rax,1)
    f740:	48 89 ca             	mov    %rcx,%rdx
    f743:	4c 89 e0             	mov    %r12,%rax
    f746:	44 89 44 24 08       	mov    %r8d,0x8(%rsp)
    f74b:	48 c1 ea 06          	shr    $0x6,%rdx
    f74f:	48 d3 e0             	shl    %cl,%rax
    f752:	48 f7 d0             	not    %rax
    f755:	48 21 04 d6          	and    %rax,(%rsi,%rdx,8)
    f759:	e9 a9 fe ff ff       	jmpq   f607 <_ZN10TextParser10check_urlsEv+0x2a7>
    f75e:	e8 2d 51 ff ff       	callq  4890 <__stack_chk_fail@plt>
    f763:	ba 01 00 00 00       	mov    $0x1,%edx
    f768:	eb 1d                	jmp    f787 <_ZN10TextParser10check_urlsEv+0x427>
    f76a:	4c 89 f8             	mov    %r15,%rax
    f76d:	44 89 f9             	mov    %r15d,%ecx
    f770:	48 89 d7             	mov    %rdx,%rdi
    f773:	48 c1 e8 06          	shr    $0x6,%rax
    f777:	48 d3 e7             	shl    %cl,%rdi
    f77a:	49 83 c7 01          	add    $0x1,%r15
    f77e:	48 09 3c c6          	or     %rdi,(%rsi,%rax,8)
    f782:	48 8b 4c 24 18       	mov    0x18(%rsp),%rcx
    f787:	4c 39 f9             	cmp    %r15,%rcx
    f78a:	77 de                	ja     f76a <_ZN10TextParser10check_urlsEv+0x40a>
    f78c:	48 89 ca             	mov    %rcx,%rdx
    f78f:	b8 01 00 00 00       	mov    $0x1,%eax
    f794:	48 89 df             	mov    %rbx,%rdi
    f797:	48 c1 ea 06          	shr    $0x6,%rdx
    f79b:	48 d3 e0             	shl    %cl,%rax
    f79e:	48 f7 d0             	not    %rax
    f7a1:	48 21 04 d6          	and    %rax,(%rsi,%rdx,8)
    f7a5:	48 89 ea             	mov    %rbp,%rdx
    f7a8:	48 63 83 cc 00 00 00 	movslq 0xcc(%rbx),%rax
    f7af:	48 83 c0 01          	add    $0x1,%rax
    f7b3:	48 c1 e0 05          	shl    $0x5,%rax
    f7b7:	48 8b 34 03          	mov    (%rbx,%rax,1),%rsi
    f7bb:	e8 b0 f2 ff ff       	callq  ea70 <_ZN10TextParser9next_charEPKcPm>
    f7c0:	85 c0                	test   %eax,%eax
    f7c2:	0f 85 70 fe ff ff    	jne    f638 <_ZN10TextParser10check_urlsEv+0x2d8>
    f7c8:	48 8b 74 24 18       	mov    0x18(%rsp),%rsi
    f7cd:	48 63 83 cc 00 00 00 	movslq 0xcc(%rbx),%rax
    f7d4:	e9 4f fc ff ff       	jmpq   f428 <_ZN10TextParser10check_urlsEv+0xc8>
    f7d9:	90                   	nop
    f7da:	66 0f 1f 44 00 00    	nopw   0x0(%rax,%rax,1)

000000000000f7e0 <_ZN10TextParser8put_lineEPKc>:
    f7e0:	41 54                	push   %r12
    f7e2:	55                   	push   %rbp
    f7e3:	48 89 fd             	mov    %rdi,%rbp
    f7e6:	53                   	push   %rbx
    f7e7:	8b 87 cc 00 00 00    	mov    0xcc(%rdi),%eax
    f7ed:	49 89 f4             	mov    %rsi,%r12
    f7f0:	8d 58 01             	lea    0x1(%rax),%ebx
    f7f3:	89 d8                	mov    %ebx,%eax
    f7f5:	c1 f8 1f             	sar    $0x1f,%eax
    f7f8:	c1 e8 1e             	shr    $0x1e,%eax
    f7fb:	01 c3                	add    %eax,%ebx
    f7fd:	83 e3 03             	and    $0x3,%ebx
    f800:	29 c3                	sub    %eax,%ebx
    f802:	89 9f cc 00 00 00    	mov    %ebx,0xcc(%rdi)
    f808:	48 63 db             	movslq %ebx,%rbx
    f80b:	48 83 c3 01          	add    $0x1,%rbx
    f80f:	48 c1 e3 05          	shl    $0x5,%rbx
    f813:	48 01 fb             	add    %rdi,%rbx
    f816:	48 89 f7             	mov    %rsi,%rdi
    f819:	e8 d2 4e ff ff       	callq  46f0 <strlen@plt>
    f81e:	48 8b 53 08          	mov    0x8(%rbx),%rdx
    f822:	48 89 df             	mov    %rbx,%rdi
    f825:	4c 89 e1             	mov    %r12,%rcx
    f828:	49 89 c0             	mov    %rax,%r8
    f82b:	31 f6                	xor    %esi,%esi
    f82d:	e8 2e 52 ff ff       	callq  4a60 <_ZNSt7__cxx1112basic_stringIcSt11char_traitsIcESaIcEE10_M_replaceEmmPKcm@plt>
    f832:	48 c7 85 d8 00 00 00 	movq   $0x0,0xd8(%rbp)
    f839:	00 00 00 00 
    f83d:	48 c7 85 d0 00 00 00 	movq   $0x0,0xd0(%rbp)
    f844:	00 00 00 00 
    f848:	48 89 ef             	mov    %rbp,%rdi
    f84b:	5b                   	pop    %rbx
    f84c:	5d                   	pop    %rbp
    f84d:	41 5c                	pop    %r12
    f84f:	e9 0c fb ff ff       	jmpq   f360 <_ZN10TextParser10check_urlsEv>
    f854:	66 2e 0f 1f 84 00 00 	nopw   %cs:0x0(%rax,%rax,1)
    f85b:	00 00 00 
    f85e:	66 90                	xchg   %ax,%ax

000000000000f860 <_ZNSt6vectorIiSaIiEE14_M_fill_insertEN9__gnu_cxx17__normal_iteratorIPiS1_EEmRKi>:
    f860:	48 85 d2             	test   %rdx,%rdx
    f863:	0f 84 c7 00 00 00    	je     f930 <_ZNSt6vectorIiSaIiEE14_M_fill_insertEN9__gnu_cxx17__normal_iteratorIPiS1_EEmRKi+0xd0>
    f869:	41 57                	push   %r15
    f86b:	41 56                	push   %r14
    f86d:	41 55                	push   %r13
    f86f:	41 54                	push   %r12
    f871:	49 89 fd             	mov    %rdi,%r13
    f874:	55                   	push   %rbp
    f875:	53                   	push   %rbx
    f876:	48 89 d5             	mov    %rdx,%rbp
    f879:	49 89 f4             	mov    %rsi,%r12
    f87c:	48 89 f3             	mov    %rsi,%rbx
    f87f:	48 83 ec 18          	sub    $0x18,%rsp
    f883:	4c 8b 77 08          	mov    0x8(%rdi),%r14
    f887:	48 8b 47 10          	mov    0x10(%rdi),%rax
    f88b:	4c 29 f0             	sub    %r14,%rax
    f88e:	4d 89 f7             	mov    %r14,%r15
    f891:	48 c1 f8 02          	sar    $0x2,%rax
    f895:	48 39 d0             	cmp    %rdx,%rax
    f898:	0f 82 1a 01 00 00    	jb     f9b8 <_ZNSt6vectorIiSaIiEE14_M_fill_insertEN9__gnu_cxx17__normal_iteratorIPiS1_EEmRKi+0x158>
    f89e:	4d 89 f0             	mov    %r14,%r8
    f8a1:	44 8b 39             	mov    (%rcx),%r15d
    f8a4:	49 29 f0             	sub    %rsi,%r8
    f8a7:	4c 89 c0             	mov    %r8,%rax
    f8aa:	48 c1 f8 02          	sar    $0x2,%rax
    f8ae:	48 39 c2             	cmp    %rax,%rdx
    f8b1:	0f 83 81 00 00 00    	jae    f938 <_ZNSt6vectorIiSaIiEE14_M_fill_insertEN9__gnu_cxx17__normal_iteratorIPiS1_EEmRKi+0xd8>
    f8b7:	48 c1 e5 02          	shl    $0x2,%rbp
    f8bb:	4c 89 f1             	mov    %r14,%rcx
    f8be:	4c 89 f0             	mov    %r14,%rax
    f8c1:	48 29 e9             	sub    %rbp,%rcx
    f8c4:	49 39 ce             	cmp    %rcx,%r14
    f8c7:	74 1a                	je     f8e3 <_ZNSt6vectorIiSaIiEE14_M_fill_insertEN9__gnu_cxx17__normal_iteratorIPiS1_EEmRKi+0x83>
    f8c9:	48 89 ce             	mov    %rcx,%rsi
    f8cc:	48 89 ea             	mov    %rbp,%rdx
    f8cf:	4c 89 f7             	mov    %r14,%rdi
    f8d2:	48 89 0c 24          	mov    %rcx,(%rsp)
    f8d6:	e8 e5 51 ff ff       	callq  4ac0 <memmove@plt>
    f8db:	49 8b 45 08          	mov    0x8(%r13),%rax
    f8df:	48 8b 0c 24          	mov    (%rsp),%rcx
    f8e3:	48 01 e8             	add    %rbp,%rax
    f8e6:	49 39 cc             	cmp    %rcx,%r12
    f8e9:	49 89 45 08          	mov    %rax,0x8(%r13)
    f8ed:	74 14                	je     f903 <_ZNSt6vectorIiSaIiEE14_M_fill_insertEN9__gnu_cxx17__normal_iteratorIPiS1_EEmRKi+0xa3>
    f8ef:	48 89 ca             	mov    %rcx,%rdx
    f8f2:	4c 89 f7             	mov    %r14,%rdi
    f8f5:	4c 89 e6             	mov    %r12,%rsi
    f8f8:	4c 29 e2             	sub    %r12,%rdx
    f8fb:	48 29 d7             	sub    %rdx,%rdi
    f8fe:	e8 bd 51 ff ff       	callq  4ac0 <memmove@plt>
    f903:	4c 01 e5             	add    %r12,%rbp
    f906:	49 39 ec             	cmp    %rbp,%r12
    f909:	0f 84 be 01 00 00    	je     facd <_ZNSt6vectorIiSaIiEE14_M_fill_insertEN9__gnu_cxx17__normal_iteratorIPiS1_EEmRKi+0x26d>
    f90f:	90                   	nop
    f910:	44 89 3b             	mov    %r15d,(%rbx)
    f913:	48 83 c3 04          	add    $0x4,%rbx
    f917:	48 39 dd             	cmp    %rbx,%rbp
    f91a:	75 f4                	jne    f910 <_ZNSt6vectorIiSaIiEE14_M_fill_insertEN9__gnu_cxx17__normal_iteratorIPiS1_EEmRKi+0xb0>
    f91c:	48 83 c4 18          	add    $0x18,%rsp
    f920:	5b                   	pop    %rbx
    f921:	5d                   	pop    %rbp
    f922:	41 5c                	pop    %r12
    f924:	41 5d                	pop    %r13
    f926:	41 5e                	pop    %r14
    f928:	41 5f                	pop    %r15
    f92a:	c3                   	retq   
    f92b:	0f 1f 44 00 00       	nopl   0x0(%rax,%rax,1)
    f930:	f3 c3                	repz retq 
    f932:	66 0f 1f 44 00 00    	nopw   0x0(%rax,%rax,1)
    f938:	48 29 c5             	sub    %rax,%rbp
    f93b:	0f 84 af 01 00 00    	je     faf0 <_ZNSt6vectorIiSaIiEE14_M_fill_insertEN9__gnu_cxx17__normal_iteratorIPiS1_EEmRKi+0x290>
    f941:	4c 89 f1             	mov    %r14,%rcx
    f944:	48 89 e8             	mov    %rbp,%rax
    f947:	66 0f 1f 84 00 00 00 	nopw   0x0(%rax,%rax,1)
    f94e:	00 00 
    f950:	44 89 39             	mov    %r15d,(%rcx)
    f953:	48 83 c1 04          	add    $0x4,%rcx
    f957:	48 83 e8 01          	sub    $0x1,%rax
    f95b:	75 f3                	jne    f950 <_ZNSt6vectorIiSaIiEE14_M_fill_insertEN9__gnu_cxx17__normal_iteratorIPiS1_EEmRKi+0xf0>
    f95d:	49 8d 3c ae          	lea    (%r14,%rbp,4),%rdi
    f961:	4d 39 e6             	cmp    %r12,%r14
    f964:	49 89 7d 08          	mov    %rdi,0x8(%r13)
    f968:	74 17                	je     f981 <_ZNSt6vectorIiSaIiEE14_M_fill_insertEN9__gnu_cxx17__normal_iteratorIPiS1_EEmRKi+0x121>
    f96a:	4c 89 c2             	mov    %r8,%rdx
    f96d:	4c 89 e6             	mov    %r12,%rsi
    f970:	4c 89 04 24          	mov    %r8,(%rsp)
    f974:	e8 47 51 ff ff       	callq  4ac0 <memmove@plt>
    f979:	49 8b 7d 08          	mov    0x8(%r13),%rdi
    f97d:	4c 8b 04 24          	mov    (%rsp),%r8
    f981:	4c 01 c7             	add    %r8,%rdi
    f984:	4d 39 e6             	cmp    %r12,%r14
    f987:	49 89 7d 08          	mov    %rdi,0x8(%r13)
    f98b:	0f 84 3c 01 00 00    	je     facd <_ZNSt6vectorIiSaIiEE14_M_fill_insertEN9__gnu_cxx17__normal_iteratorIPiS1_EEmRKi+0x26d>
    f991:	0f 1f 80 00 00 00 00 	nopl   0x0(%rax)
    f998:	44 89 3b             	mov    %r15d,(%rbx)
    f99b:	48 83 c3 04          	add    $0x4,%rbx
    f99f:	49 39 de             	cmp    %rbx,%r14
    f9a2:	75 f4                	jne    f998 <_ZNSt6vectorIiSaIiEE14_M_fill_insertEN9__gnu_cxx17__normal_iteratorIPiS1_EEmRKi+0x138>
    f9a4:	48 83 c4 18          	add    $0x18,%rsp
    f9a8:	5b                   	pop    %rbx
    f9a9:	5d                   	pop    %rbp
    f9aa:	41 5c                	pop    %r12
    f9ac:	41 5d                	pop    %r13
    f9ae:	41 5e                	pop    %r14
    f9b0:	41 5f                	pop    %r15
    f9b2:	c3                   	retq   
    f9b3:	0f 1f 44 00 00       	nopl   0x0(%rax,%rax,1)
    f9b8:	4c 8b 07             	mov    (%rdi),%r8
    f9bb:	48 ba ff ff ff ff ff 	movabs $0x3fffffffffffffff,%rdx
    f9c2:	ff ff 3f 
    f9c5:	48 89 d0             	mov    %rdx,%rax
    f9c8:	4d 29 c6             	sub    %r8,%r14
    f9cb:	49 c1 fe 02          	sar    $0x2,%r14
    f9cf:	4c 29 f0             	sub    %r14,%rax
    f9d2:	48 39 c5             	cmp    %rax,%rbp
    f9d5:	0f 87 33 01 00 00    	ja     fb0e <_ZNSt6vectorIiSaIiEE14_M_fill_insertEN9__gnu_cxx17__normal_iteratorIPiS1_EEmRKi+0x2ae>
    f9db:	4c 39 f5             	cmp    %r14,%rbp
    f9de:	4c 89 f0             	mov    %r14,%rax
    f9e1:	48 0f 43 c5          	cmovae %rbp,%rax
    f9e5:	49 01 c6             	add    %rax,%r14
    f9e8:	0f 92 c0             	setb   %al
    f9eb:	4c 29 c3             	sub    %r8,%rbx
    f9ee:	0f b6 c0             	movzbl %al,%eax
    f9f1:	48 85 c0             	test   %rax,%rax
    f9f4:	0f 85 e6 00 00 00    	jne    fae0 <_ZNSt6vectorIiSaIiEE14_M_fill_insertEN9__gnu_cxx17__normal_iteratorIPiS1_EEmRKi+0x280>
    f9fa:	49 39 d6             	cmp    %rdx,%r14
    f9fd:	0f 87 dd 00 00 00    	ja     fae0 <_ZNSt6vectorIiSaIiEE14_M_fill_insertEN9__gnu_cxx17__normal_iteratorIPiS1_EEmRKi+0x280>
    fa03:	4d 85 f6             	test   %r14,%r14
    fa06:	0f 84 f4 00 00 00    	je     fb00 <_ZNSt6vectorIiSaIiEE14_M_fill_insertEN9__gnu_cxx17__normal_iteratorIPiS1_EEmRKi+0x2a0>
    fa0c:	49 c1 e6 02          	shl    $0x2,%r14
    fa10:	4c 89 f7             	mov    %r14,%rdi
    fa13:	48 89 0c 24          	mov    %rcx,(%rsp)
    fa17:	e8 14 4e ff ff       	callq  4830 <_Znwm@plt>
    fa1c:	4d 8b 45 00          	mov    0x0(%r13),%r8
    fa20:	4d 8b 7d 08          	mov    0x8(%r13),%r15
    fa24:	4d 89 e2             	mov    %r12,%r10
    fa27:	48 8b 0c 24          	mov    (%rsp),%rcx
    fa2b:	49 89 c1             	mov    %rax,%r9
    fa2e:	49 01 c6             	add    %rax,%r14
    fa31:	4d 29 c2             	sub    %r8,%r10
    fa34:	8b 09                	mov    (%rcx),%ecx
    fa36:	49 8d 04 19          	lea    (%r9,%rbx,1),%rax
    fa3a:	48 89 ea             	mov    %rbp,%rdx
    fa3d:	0f 1f 00             	nopl   (%rax)
    fa40:	89 08                	mov    %ecx,(%rax)
    fa42:	48 83 c0 04          	add    $0x4,%rax
    fa46:	48 83 ea 01          	sub    $0x1,%rdx
    fa4a:	75 f4                	jne    fa40 <_ZNSt6vectorIiSaIiEE14_M_fill_insertEN9__gnu_cxx17__normal_iteratorIPiS1_EEmRKi+0x1e0>
    fa4c:	4d 39 c4             	cmp    %r8,%r12
    fa4f:	74 23                	je     fa74 <_ZNSt6vectorIiSaIiEE14_M_fill_insertEN9__gnu_cxx17__normal_iteratorIPiS1_EEmRKi+0x214>
    fa51:	4c 89 d2             	mov    %r10,%rdx
    fa54:	4c 89 c6             	mov    %r8,%rsi
    fa57:	4c 89 cf             	mov    %r9,%rdi
    fa5a:	4c 89 54 24 08       	mov    %r10,0x8(%rsp)
    fa5f:	4c 89 04 24          	mov    %r8,(%rsp)
    fa63:	e8 58 50 ff ff       	callq  4ac0 <memmove@plt>
    fa68:	4c 8b 54 24 08       	mov    0x8(%rsp),%r10
    fa6d:	4c 8b 04 24          	mov    (%rsp),%r8
    fa71:	49 89 c1             	mov    %rax,%r9
    fa74:	49 8d 0c aa          	lea    (%r10,%rbp,4),%rcx
    fa78:	4c 89 fb             	mov    %r15,%rbx
    fa7b:	4c 29 e3             	sub    %r12,%rbx
    fa7e:	4c 01 c9             	add    %r9,%rcx
    fa81:	4d 39 fc             	cmp    %r15,%r12
    fa84:	74 23                	je     faa9 <_ZNSt6vectorIiSaIiEE14_M_fill_insertEN9__gnu_cxx17__normal_iteratorIPiS1_EEmRKi+0x249>
    fa86:	48 89 cf             	mov    %rcx,%rdi
    fa89:	48 89 da             	mov    %rbx,%rdx
    fa8c:	4c 89 e6             	mov    %r12,%rsi
    fa8f:	4c 89 44 24 08       	mov    %r8,0x8(%rsp)
    fa94:	4c 89 0c 24          	mov    %r9,(%rsp)
    fa98:	e8 f3 4c ff ff       	callq  4790 <memcpy@plt>
    fa9d:	4c 8b 44 24 08       	mov    0x8(%rsp),%r8
    faa2:	4c 8b 0c 24          	mov    (%rsp),%r9
    faa6:	48 89 c1             	mov    %rax,%rcx
    faa9:	48 01 cb             	add    %rcx,%rbx
    faac:	4d 85 c0             	test   %r8,%r8
    faaf:	74 10                	je     fac1 <_ZNSt6vectorIiSaIiEE14_M_fill_insertEN9__gnu_cxx17__normal_iteratorIPiS1_EEmRKi+0x261>
    fab1:	4c 89 c7             	mov    %r8,%rdi
    fab4:	4c 89 0c 24          	mov    %r9,(%rsp)
    fab8:	e8 43 4d ff ff       	callq  4800 <_ZdlPv@plt>
    fabd:	4c 8b 0c 24          	mov    (%rsp),%r9
    fac1:	4d 89 4d 00          	mov    %r9,0x0(%r13)
    fac5:	49 89 5d 08          	mov    %rbx,0x8(%r13)
    fac9:	4d 89 75 10          	mov    %r14,0x10(%r13)
    facd:	48 83 c4 18          	add    $0x18,%rsp
    fad1:	5b                   	pop    %rbx
    fad2:	5d                   	pop    %rbp
    fad3:	41 5c                	pop    %r12
    fad5:	41 5d                	pop    %r13
    fad7:	41 5e                	pop    %r14
    fad9:	41 5f                	pop    %r15
    fadb:	c3                   	retq   
    fadc:	0f 1f 40 00          	nopl   0x0(%rax)
    fae0:	49 c7 c6 fc ff ff ff 	mov    $0xfffffffffffffffc,%r14
    fae7:	e9 24 ff ff ff       	jmpq   fa10 <_ZNSt6vectorIiSaIiEE14_M_fill_insertEN9__gnu_cxx17__normal_iteratorIPiS1_EEmRKi+0x1b0>
    faec:	0f 1f 40 00          	nopl   0x0(%rax)
    faf0:	4c 89 f7             	mov    %r14,%rdi
    faf3:	e9 69 fe ff ff       	jmpq   f961 <_ZNSt6vectorIiSaIiEE14_M_fill_insertEN9__gnu_cxx17__normal_iteratorIPiS1_EEmRKi+0x101>
    faf8:	0f 1f 84 00 00 00 00 	nopl   0x0(%rax,%rax,1)
    faff:	00 
    fb00:	49 89 da             	mov    %rbx,%r10
    fb03:	45 31 f6             	xor    %r14d,%r14d
    fb06:	45 31 c9             	xor    %r9d,%r9d
    fb09:	e9 26 ff ff ff       	jmpq   fa34 <_ZNSt6vectorIiSaIiEE14_M_fill_insertEN9__gnu_cxx17__normal_iteratorIPiS1_EEmRKi+0x1d4>
    fb0e:	48 8d 3d ab 20 00 00 	lea    0x20ab(%rip),%rdi        # 11bc0 <_ZTS9ManParser+0x140>
    fb15:	e8 06 4c ff ff       	callq  4720 <_ZSt20__throw_length_errorPKc@plt>
    fb1a:	66 0f 1f 44 00 00    	nopw   0x0(%rax,%rax,1)

000000000000fb20 <_ZNSt6vectorIbSaIbEE14_M_fill_insertESt13_Bit_iteratormb>:
    fb20:	41 57                	push   %r15
    fb22:	41 56                	push   %r14
    fb24:	41 55                	push   %r13
    fb26:	41 54                	push   %r12
    fb28:	55                   	push   %rbp
    fb29:	53                   	push   %rbx
    fb2a:	48 83 ec 48          	sub    $0x48,%rsp
    fb2e:	48 85 c9             	test   %rcx,%rcx
    fb31:	44 89 44 24 08       	mov    %r8d,0x8(%rsp)
    fb36:	48 89 74 24 30       	mov    %rsi,0x30(%rsp)
    fb3b:	48 89 54 24 38       	mov    %rdx,0x38(%rsp)
    fb40:	0f 84 8e 01 00 00    	je     fcd4 <_ZNSt6vectorIbSaIbEE14_M_fill_insertESt13_Bit_iteratormb+0x1b4>
    fb46:	4c 8b 77 10          	mov    0x10(%rdi),%r14
    fb4a:	48 8b 17             	mov    (%rdi),%rdx
    fb4d:	49 89 c9             	mov    %rcx,%r9
    fb50:	8b 47 18             	mov    0x18(%rdi),%eax
    fb53:	44 89 c5             	mov    %r8d,%ebp
    fb56:	44 8b 57 08          	mov    0x8(%rdi),%r10d
    fb5a:	49 89 f4             	mov    %rsi,%r12
    fb5d:	8b 5c 24 38          	mov    0x38(%rsp),%ebx
    fb61:	4c 89 f1             	mov    %r14,%rcx
    fb64:	48 29 d1             	sub    %rdx,%rcx
    fb67:	4c 8d 04 c8          	lea    (%rax,%rcx,8),%r8
    fb6b:	48 8b 4f 20          	mov    0x20(%rdi),%rcx
    fb6f:	49 89 c3             	mov    %rax,%r11
    fb72:	48 29 d1             	sub    %rdx,%rcx
    fb75:	4c 89 c2             	mov    %r8,%rdx
    fb78:	48 c1 e1 03          	shl    $0x3,%rcx
    fb7c:	4c 29 d2             	sub    %r10,%rdx
    fb7f:	4c 29 c1             	sub    %r8,%rcx
    fb82:	4c 39 c9             	cmp    %r9,%rcx
    fb85:	0f 82 a5 02 00 00    	jb     fe30 <_ZNSt6vectorIbSaIbEE14_M_fill_insertESt13_Bit_iteratormb+0x310>
    fb8b:	49 8d 14 01          	lea    (%r9,%rax,1),%rdx
    fb8f:	48 8d 4a 3f          	lea    0x3f(%rdx),%rcx
    fb93:	48 85 d2             	test   %rdx,%rdx
    fb96:	48 0f 49 ca          	cmovns %rdx,%rcx
    fb9a:	48 c1 f9 06          	sar    $0x6,%rcx
    fb9e:	4d 8d 2c ce          	lea    (%r14,%rcx,8),%r13
    fba2:	48 89 d1             	mov    %rdx,%rcx
    fba5:	48 c1 f9 3f          	sar    $0x3f,%rcx
    fba9:	48 c1 e9 3a          	shr    $0x3a,%rcx
    fbad:	4c 89 6c 24 20       	mov    %r13,0x20(%rsp)
    fbb2:	48 01 ca             	add    %rcx,%rdx
    fbb5:	83 e2 3f             	and    $0x3f,%edx
    fbb8:	48 29 ca             	sub    %rcx,%rdx
    fbbb:	48 85 d2             	test   %rdx,%rdx
    fbbe:	48 89 54 24 10       	mov    %rdx,0x10(%rsp)
    fbc3:	48 89 54 24 18       	mov    %rdx,0x18(%rsp)
    fbc8:	49 89 d2             	mov    %rdx,%r10
    fbcb:	79 08                	jns    fbd5 <_ZNSt6vectorIbSaIbEE14_M_fill_insertESt13_Bit_iteratormb+0xb5>
    fbcd:	4c 8d 52 40          	lea    0x40(%rdx),%r10
    fbd1:	4d 8d 6d f8          	lea    -0x8(%r13),%r13
    fbd5:	4c 89 f2             	mov    %r14,%rdx
    fbd8:	89 d9                	mov    %ebx,%ecx
    fbda:	48 29 f2             	sub    %rsi,%rdx
    fbdd:	48 89 4c 24 28       	mov    %rcx,0x28(%rsp)
    fbe2:	4c 8d 04 d0          	lea    (%rax,%rdx,8),%r8
    fbe6:	49 29 c8             	sub    %rcx,%r8
    fbe9:	4d 85 c0             	test   %r8,%r8
    fbec:	7f 52                	jg     fc40 <_ZNSt6vectorIbSaIbEE14_M_fill_insertESt13_Bit_iteratormb+0x120>
    fbee:	e9 f5 00 00 00       	jmpq   fce8 <_ZNSt6vectorIbSaIbEE14_M_fill_insertESt13_Bit_iteratormb+0x1c8>
    fbf3:	0f 1f 44 00 00       	nopl   0x0(%rax,%rax,1)
    fbf8:	41 83 eb 01          	sub    $0x1,%r11d
    fbfc:	ba 01 00 00 00       	mov    $0x1,%edx
    fc01:	44 89 d9             	mov    %r11d,%ecx
    fc04:	48 d3 e2             	shl    %cl,%rdx
    fc07:	45 85 d2             	test   %r10d,%r10d
    fc0a:	74 52                	je     fc5e <_ZNSt6vectorIbSaIbEE14_M_fill_insertESt13_Bit_iteratormb+0x13e>
    fc0c:	41 83 ea 01          	sub    $0x1,%r10d
    fc10:	b8 01 00 00 00       	mov    $0x1,%eax
    fc15:	44 89 d1             	mov    %r10d,%ecx
    fc18:	48 d3 e0             	shl    %cl,%rax
    fc1b:	4d 8b 7d 00          	mov    0x0(%r13),%r15
    fc1f:	48 89 c1             	mov    %rax,%rcx
    fc22:	48 f7 d1             	not    %rcx
    fc25:	4c 21 f9             	and    %r15,%rcx
    fc28:	4c 09 f8             	or     %r15,%rax
    fc2b:	49 85 16             	test   %rdx,(%r14)
    fc2e:	48 0f 44 c1          	cmove  %rcx,%rax
    fc32:	49 83 e8 01          	sub    $0x1,%r8
    fc36:	49 89 45 00          	mov    %rax,0x0(%r13)
    fc3a:	0f 84 a8 00 00 00    	je     fce8 <_ZNSt6vectorIbSaIbEE14_M_fill_insertESt13_Bit_iteratormb+0x1c8>
    fc40:	45 85 db             	test   %r11d,%r11d
    fc43:	75 b3                	jne    fbf8 <_ZNSt6vectorIbSaIbEE14_M_fill_insertESt13_Bit_iteratormb+0xd8>
    fc45:	49 83 ee 08          	sub    $0x8,%r14
    fc49:	45 85 d2             	test   %r10d,%r10d
    fc4c:	48 ba 00 00 00 00 00 	movabs $0x8000000000000000,%rdx
    fc53:	00 00 80 
    fc56:	41 bb 3f 00 00 00    	mov    $0x3f,%r11d
    fc5c:	75 ae                	jne    fc0c <_ZNSt6vectorIbSaIbEE14_M_fill_insertESt13_Bit_iteratormb+0xec>
    fc5e:	49 83 ed 08          	sub    $0x8,%r13
    fc62:	48 b8 00 00 00 00 00 	movabs $0x8000000000000000,%rax
    fc69:	00 00 80 
    fc6c:	41 ba 3f 00 00 00    	mov    $0x3f,%r10d
    fc72:	eb a7                	jmp    fc1b <_ZNSt6vectorIbSaIbEE14_M_fill_insertESt13_Bit_iteratormb+0xfb>
    fc74:	0f 1f 40 00          	nopl   0x0(%rax)
    fc78:	4d 85 f6             	test   %r14,%r14
    fc7b:	74 32                	je     fcaf <_ZNSt6vectorIbSaIbEE14_M_fill_insertESt13_Bit_iteratormb+0x18f>
    fc7d:	4c 89 f7             	mov    %r14,%rdi
    fc80:	4c 89 54 24 08       	mov    %r10,0x8(%rsp)
    fc85:	e8 76 4b ff ff       	callq  4800 <_ZdlPv@plt>
    fc8a:	4c 8b 54 24 08       	mov    0x8(%rsp),%r10
    fc8f:	49 c7 45 10 00 00 00 	movq   $0x0,0x10(%r13)
    fc96:	00 
    fc97:	41 c7 45 18 00 00 00 	movl   $0x0,0x18(%r13)
    fc9e:	00 
    fc9f:	49 c7 45 00 00 00 00 	movq   $0x0,0x0(%r13)
    fca6:	00 
    fca7:	41 c7 45 08 00 00 00 	movl   $0x0,0x8(%r13)
    fcae:	00 
    fcaf:	48 8b 7c 24 10       	mov    0x10(%rsp),%rdi
    fcb4:	48 8b 44 24 18       	mov    0x18(%rsp),%rax
    fcb9:	41 c7 45 08 00 00 00 	movl   $0x0,0x8(%r13)
    fcc0:	00 
    fcc1:	4d 89 55 10          	mov    %r10,0x10(%r13)
    fcc5:	45 89 7d 18          	mov    %r15d,0x18(%r13)
    fcc9:	48 01 f8             	add    %rdi,%rax
    fccc:	49 89 7d 00          	mov    %rdi,0x0(%r13)
    fcd0:	49 89 45 20          	mov    %rax,0x20(%r13)
    fcd4:	48 83 c4 48          	add    $0x48,%rsp
    fcd8:	5b                   	pop    %rbx
    fcd9:	5d                   	pop    %rbp
    fcda:	41 5c                	pop    %r12
    fcdc:	41 5d                	pop    %r13
    fcde:	41 5e                	pop    %r14
    fce0:	41 5f                	pop    %r15
    fce2:	c3                   	retq   
    fce3:	0f 1f 44 00 00       	nopl   0x0(%rax,%rax,1)
    fce8:	4c 03 4c 24 28       	add    0x28(%rsp),%r9
    fced:	49 8d 41 3f          	lea    0x3f(%r9),%rax
    fcf1:	4d 85 c9             	test   %r9,%r9
    fcf4:	49 0f 49 c1          	cmovns %r9,%rax
    fcf8:	48 c1 f8 06          	sar    $0x6,%rax
    fcfc:	4c 8d 14 c6          	lea    (%rsi,%rax,8),%r10
    fd00:	4c 89 c8             	mov    %r9,%rax
    fd03:	48 c1 f8 3f          	sar    $0x3f,%rax
    fd07:	48 c1 e8 3a          	shr    $0x3a,%rax
    fd0b:	49 01 c1             	add    %rax,%r9
    fd0e:	41 83 e1 3f          	and    $0x3f,%r9d
    fd12:	49 29 c1             	sub    %rax,%r9
    fd15:	79 08                	jns    fd1f <_ZNSt6vectorIbSaIbEE14_M_fill_insertESt13_Bit_iteratormb+0x1ff>
    fd17:	49 83 c1 40          	add    $0x40,%r9
    fd1b:	49 83 ea 08          	sub    $0x8,%r10
    fd1f:	49 39 f2             	cmp    %rsi,%r10
    fd22:	0f 84 18 04 00 00    	je     10140 <_ZNSt6vectorIbSaIbEE14_M_fill_insertESt13_Bit_iteratormb+0x620>
    fd28:	0f b6 54 24 08       	movzbl 0x8(%rsp),%edx
    fd2d:	48 83 c6 08          	add    $0x8,%rsi
    fd31:	f7 da                	neg    %edx
    fd33:	49 39 f2             	cmp    %rsi,%r10
    fd36:	74 14                	je     fd4c <_ZNSt6vectorIbSaIbEE14_M_fill_insertESt13_Bit_iteratormb+0x22c>
    fd38:	48 63 d2             	movslq %edx,%rdx
    fd3b:	48 89 f0             	mov    %rsi,%rax
    fd3e:	66 90                	xchg   %ax,%ax
    fd40:	48 89 10             	mov    %rdx,(%rax)
    fd43:	48 83 c0 08          	add    $0x8,%rax
    fd47:	49 39 c2             	cmp    %rax,%r10
    fd4a:	75 f4                	jne    fd40 <_ZNSt6vectorIbSaIbEE14_M_fill_insertESt13_Bit_iteratormb+0x220>
    fd4c:	41 bb 01 00 00 00    	mov    $0x1,%r11d
    fd52:	89 d9                	mov    %ebx,%ecx
    fd54:	eb 0d                	jmp    fd63 <_ZNSt6vectorIbSaIbEE14_M_fill_insertESt13_Bit_iteratormb+0x243>
    fd56:	66 2e 0f 1f 84 00 00 	nopw   %cs:0x0(%rax,%rax,1)
    fd5d:	00 00 00 
    fd60:	83 c1 01             	add    $0x1,%ecx
    fd63:	85 c9                	test   %ecx,%ecx
    fd65:	75 05                	jne    fd6c <_ZNSt6vectorIbSaIbEE14_M_fill_insertESt13_Bit_iteratormb+0x24c>
    fd67:	4c 39 e6             	cmp    %r12,%rsi
    fd6a:	74 35                	je     fda1 <_ZNSt6vectorIbSaIbEE14_M_fill_insertESt13_Bit_iteratormb+0x281>
    fd6c:	4c 89 e2             	mov    %r12,%rdx
    fd6f:	4c 89 d8             	mov    %r11,%rax
    fd72:	48 8b 1a             	mov    (%rdx),%rbx
    fd75:	49 89 d4             	mov    %rdx,%r12
    fd78:	48 d3 e0             	shl    %cl,%rax
    fd7b:	49 89 c0             	mov    %rax,%r8
    fd7e:	49 f7 d0             	not    %r8
    fd81:	48 09 d8             	or     %rbx,%rax
    fd84:	49 21 d8             	and    %rbx,%r8
    fd87:	40 84 ed             	test   %bpl,%bpl
    fd8a:	49 0f 44 c0          	cmove  %r8,%rax
    fd8e:	83 f9 3f             	cmp    $0x3f,%ecx
    fd91:	48 89 02             	mov    %rax,(%rdx)
    fd94:	75 ca                	jne    fd60 <_ZNSt6vectorIbSaIbEE14_M_fill_insertESt13_Bit_iteratormb+0x240>
    fd96:	48 83 c2 08          	add    $0x8,%rdx
    fd9a:	31 c9                	xor    %ecx,%ecx
    fd9c:	48 39 d6             	cmp    %rdx,%rsi
    fd9f:	75 ce                	jne    fd6f <_ZNSt6vectorIbSaIbEE14_M_fill_insertESt13_Bit_iteratormb+0x24f>
    fda1:	4d 89 d0             	mov    %r10,%r8
    fda4:	31 c9                	xor    %ecx,%ecx
    fda6:	41 bb 01 00 00 00    	mov    $0x1,%r11d
    fdac:	4d 39 c2             	cmp    %r8,%r10
    fdaf:	75 0f                	jne    fdc0 <_ZNSt6vectorIbSaIbEE14_M_fill_insertESt13_Bit_iteratormb+0x2a0>
    fdb1:	41 39 c9             	cmp    %ecx,%r9d
    fdb4:	74 3b                	je     fdf1 <_ZNSt6vectorIbSaIbEE14_M_fill_insertESt13_Bit_iteratormb+0x2d1>
    fdb6:	66 2e 0f 1f 84 00 00 	nopw   %cs:0x0(%rax,%rax,1)
    fdbd:	00 00 00 
    fdc0:	4c 89 d8             	mov    %r11,%rax
    fdc3:	49 8b 30             	mov    (%r8),%rsi
    fdc6:	48 d3 e0             	shl    %cl,%rax
    fdc9:	48 89 c2             	mov    %rax,%rdx
    fdcc:	48 f7 d2             	not    %rdx
    fdcf:	48 09 f0             	or     %rsi,%rax
    fdd2:	48 21 f2             	and    %rsi,%rdx
    fdd5:	40 84 ed             	test   %bpl,%bpl
    fdd8:	48 0f 44 c2          	cmove  %rdx,%rax
    fddc:	83 f9 3f             	cmp    $0x3f,%ecx
    fddf:	49 89 00             	mov    %rax,(%r8)
    fde2:	74 3c                	je     fe20 <_ZNSt6vectorIbSaIbEE14_M_fill_insertESt13_Bit_iteratormb+0x300>
    fde4:	83 c1 01             	add    $0x1,%ecx
    fde7:	4d 39 c2             	cmp    %r8,%r10
    fdea:	75 d4                	jne    fdc0 <_ZNSt6vectorIbSaIbEE14_M_fill_insertESt13_Bit_iteratormb+0x2a0>
    fdec:	41 39 c9             	cmp    %ecx,%r9d
    fdef:	75 cf                	jne    fdc0 <_ZNSt6vectorIbSaIbEE14_M_fill_insertESt13_Bit_iteratormb+0x2a0>
    fdf1:	48 83 7c 24 10 00    	cmpq   $0x0,0x10(%rsp)
    fdf7:	0f 88 1b 03 00 00    	js     10118 <_ZNSt6vectorIbSaIbEE14_M_fill_insertESt13_Bit_iteratormb+0x5f8>
    fdfd:	48 8b 44 24 20       	mov    0x20(%rsp),%rax
    fe02:	48 89 47 10          	mov    %rax,0x10(%rdi)
    fe06:	8b 44 24 18          	mov    0x18(%rsp),%eax
    fe0a:	89 47 18             	mov    %eax,0x18(%rdi)
    fe0d:	48 83 c4 48          	add    $0x48,%rsp
    fe11:	5b                   	pop    %rbx
    fe12:	5d                   	pop    %rbp
    fe13:	41 5c                	pop    %r12
    fe15:	41 5d                	pop    %r13
    fe17:	41 5e                	pop    %r14
    fe19:	41 5f                	pop    %r15
    fe1b:	c3                   	retq   
    fe1c:	0f 1f 40 00          	nopl   0x0(%rax)
    fe20:	49 83 c0 08          	add    $0x8,%r8
    fe24:	31 c9                	xor    %ecx,%ecx
    fe26:	eb 84                	jmp    fdac <_ZNSt6vectorIbSaIbEE14_M_fill_insertESt13_Bit_iteratormb+0x28c>
    fe28:	0f 1f 84 00 00 00 00 	nopl   0x0(%rax,%rax,1)
    fe2f:	00 
    fe30:	8b 44 24 08          	mov    0x8(%rsp),%eax
    fe34:	48 b9 c0 ff ff ff ff 	movabs $0x7fffffffffffffc0,%rcx
    fe3b:	ff ff 7f 
    fe3e:	4d 89 cf             	mov    %r9,%r15
    fe41:	48 89 74 24 08       	mov    %rsi,0x8(%rsp)
    fe46:	49 89 fd             	mov    %rdi,%r13
    fe49:	89 44 24 28          	mov    %eax,0x28(%rsp)
    fe4d:	48 89 c8             	mov    %rcx,%rax
    fe50:	48 29 d0             	sub    %rdx,%rax
    fe53:	49 39 c1             	cmp    %rax,%r9
    fe56:	0f 87 62 03 00 00    	ja     101be <_ZNSt6vectorIbSaIbEE14_M_fill_insertESt13_Bit_iteratormb+0x69e>
    fe5c:	49 39 d1             	cmp    %rdx,%r9
    fe5f:	48 89 d0             	mov    %rdx,%rax
    fe62:	49 0f 43 c1          	cmovae %r9,%rax
    fe66:	48 01 c2             	add    %rax,%rdx
    fe69:	0f 82 31 03 00 00    	jb     101a0 <_ZNSt6vectorIbSaIbEE14_M_fill_insertESt13_Bit_iteratormb+0x680>
    fe6f:	48 39 ca             	cmp    %rcx,%rdx
    fe72:	0f 87 28 03 00 00    	ja     101a0 <_ZNSt6vectorIbSaIbEE14_M_fill_insertESt13_Bit_iteratormb+0x680>
    fe78:	48 83 c2 3f          	add    $0x3f,%rdx
    fe7c:	48 c1 ea 06          	shr    $0x6,%rdx
    fe80:	48 8d 04 d5 00 00 00 	lea    0x0(,%rdx,8),%rax
    fe87:	00 
    fe88:	48 89 44 24 18       	mov    %rax,0x18(%rsp)
    fe8d:	48 8b 7c 24 18       	mov    0x18(%rsp),%rdi
    fe92:	e8 99 49 ff ff       	callq  4830 <_Znwm@plt>
    fe97:	48 8b 74 24 08       	mov    0x8(%rsp),%rsi
    fe9c:	4d 8b 75 00          	mov    0x0(%r13),%r14
    fea0:	48 89 44 24 10       	mov    %rax,0x10(%rsp)
    fea5:	49 89 f0             	mov    %rsi,%r8
    fea8:	4d 29 f0             	sub    %r14,%r8
    feab:	4c 39 f6             	cmp    %r14,%rsi
    feae:	74 18                	je     fec8 <_ZNSt6vectorIbSaIbEE14_M_fill_insertESt13_Bit_iteratormb+0x3a8>
    feb0:	4c 89 c2             	mov    %r8,%rdx
    feb3:	4c 89 f6             	mov    %r14,%rsi
    feb6:	48 89 c7             	mov    %rax,%rdi
    feb9:	4c 89 44 24 20       	mov    %r8,0x20(%rsp)
    febe:	e8 fd 4b ff ff       	callq  4ac0 <memmove@plt>
    fec3:	4c 8b 44 24 20       	mov    0x20(%rsp),%r8
    fec8:	89 de                	mov    %ebx,%esi
    feca:	4c 03 44 24 10       	add    0x10(%rsp),%r8
    fecf:	48 85 f6             	test   %rsi,%rsi
    fed2:	48 89 74 24 20       	mov    %rsi,0x20(%rsp)
    fed7:	0f 84 d7 02 00 00    	je     101b4 <_ZNSt6vectorIbSaIbEE14_M_fill_insertESt13_Bit_iteratormb+0x694>
    fedd:	48 8b 7c 24 08       	mov    0x8(%rsp),%rdi
    fee2:	31 c9                	xor    %ecx,%ecx
    fee4:	41 b9 01 00 00 00    	mov    $0x1,%r9d
    feea:	eb 0d                	jmp    fef9 <_ZNSt6vectorIbSaIbEE14_M_fill_insertESt13_Bit_iteratormb+0x3d9>
    feec:	0f 1f 40 00          	nopl   0x0(%rax)
    fef0:	83 c1 01             	add    $0x1,%ecx
    fef3:	48 83 ee 01          	sub    $0x1,%rsi
    fef7:	74 34                	je     ff2d <_ZNSt6vectorIbSaIbEE14_M_fill_insertESt13_Bit_iteratormb+0x40d>
    fef9:	4d 89 ca             	mov    %r9,%r10
    fefc:	49 8b 00             	mov    (%r8),%rax
    feff:	49 d3 e2             	shl    %cl,%r10
    ff02:	4c 89 d2             	mov    %r10,%rdx
    ff05:	48 f7 d2             	not    %rdx
    ff08:	48 21 c2             	and    %rax,%rdx
    ff0b:	4c 09 d0             	or     %r10,%rax
    ff0e:	4c 85 17             	test   %r10,(%rdi)
    ff11:	48 0f 44 c2          	cmove  %rdx,%rax
    ff15:	83 f9 3f             	cmp    $0x3f,%ecx
    ff18:	49 89 00             	mov    %rax,(%r8)
    ff1b:	75 d3                	jne    fef0 <_ZNSt6vectorIbSaIbEE14_M_fill_insertESt13_Bit_iteratormb+0x3d0>
    ff1d:	48 83 c7 08          	add    $0x8,%rdi
    ff21:	49 83 c0 08          	add    $0x8,%r8
    ff25:	31 c9                	xor    %ecx,%ecx
    ff27:	48 83 ee 01          	sub    $0x1,%rsi
    ff2b:	75 cc                	jne    fef9 <_ZNSt6vectorIbSaIbEE14_M_fill_insertESt13_Bit_iteratormb+0x3d9>
    ff2d:	41 89 c9             	mov    %ecx,%r9d
    ff30:	4d 01 f9             	add    %r15,%r9
    ff33:	49 8d 41 3f          	lea    0x3f(%r9),%rax
    ff37:	4d 85 c9             	test   %r9,%r9
    ff3a:	49 0f 49 c1          	cmovns %r9,%rax
    ff3e:	48 c1 f8 06          	sar    $0x6,%rax
    ff42:	4d 8d 14 c0          	lea    (%r8,%rax,8),%r10
    ff46:	4c 89 c8             	mov    %r9,%rax
    ff49:	48 c1 f8 3f          	sar    $0x3f,%rax
    ff4d:	48 c1 e8 3a          	shr    $0x3a,%rax
    ff51:	4d 8d 3c 01          	lea    (%r9,%rax,1),%r15
    ff55:	41 83 e7 3f          	and    $0x3f,%r15d
    ff59:	49 29 c7             	sub    %rax,%r15
    ff5c:	79 08                	jns    ff66 <_ZNSt6vectorIbSaIbEE14_M_fill_insertESt13_Bit_iteratormb+0x446>
    ff5e:	49 83 c7 40          	add    $0x40,%r15
    ff62:	49 83 ea 08          	sub    $0x8,%r10
    ff66:	4d 39 c2             	cmp    %r8,%r10
    ff69:	be 01 00 00 00       	mov    $0x1,%esi
    ff6e:	0f 84 52 01 00 00    	je     100c6 <_ZNSt6vectorIbSaIbEE14_M_fill_insertESt13_Bit_iteratormb+0x5a6>
    ff74:	0f b6 54 24 28       	movzbl 0x28(%rsp),%edx
    ff79:	49 8d 78 08          	lea    0x8(%r8),%rdi
    ff7d:	f7 da                	neg    %edx
    ff7f:	49 39 fa             	cmp    %rdi,%r10
    ff82:	74 18                	je     ff9c <_ZNSt6vectorIbSaIbEE14_M_fill_insertESt13_Bit_iteratormb+0x47c>
    ff84:	48 63 d2             	movslq %edx,%rdx
    ff87:	48 89 f8             	mov    %rdi,%rax
    ff8a:	66 0f 1f 44 00 00    	nopw   0x0(%rax,%rax,1)
    ff90:	48 89 10             	mov    %rdx,(%rax)
    ff93:	48 83 c0 08          	add    $0x8,%rax
    ff97:	49 39 c2             	cmp    %rax,%r10
    ff9a:	75 f4                	jne    ff90 <_ZNSt6vectorIbSaIbEE14_M_fill_insertESt13_Bit_iteratormb+0x470>
    ff9c:	41 bb 01 00 00 00    	mov    $0x1,%r11d
    ffa2:	eb 07                	jmp    ffab <_ZNSt6vectorIbSaIbEE14_M_fill_insertESt13_Bit_iteratormb+0x48b>
    ffa4:	0f 1f 40 00          	nopl   0x0(%rax)
    ffa8:	83 c1 01             	add    $0x1,%ecx
    ffab:	4c 39 c7             	cmp    %r8,%rdi
    ffae:	75 04                	jne    ffb4 <_ZNSt6vectorIbSaIbEE14_M_fill_insertESt13_Bit_iteratormb+0x494>
    ffb0:	85 c9                	test   %ecx,%ecx
    ffb2:	74 35                	je     ffe9 <_ZNSt6vectorIbSaIbEE14_M_fill_insertESt13_Bit_iteratormb+0x4c9>
    ffb4:	4c 89 c6             	mov    %r8,%rsi
    ffb7:	4c 89 d8             	mov    %r11,%rax
    ffba:	4c 8b 0e             	mov    (%rsi),%r9
    ffbd:	49 89 f0             	mov    %rsi,%r8
    ffc0:	48 d3 e0             	shl    %cl,%rax
    ffc3:	48 89 c2             	mov    %rax,%rdx
    ffc6:	48 f7 d2             	not    %rdx
    ffc9:	4c 09 c8             	or     %r9,%rax
    ffcc:	4c 21 ca             	and    %r9,%rdx
    ffcf:	40 84 ed             	test   %bpl,%bpl
    ffd2:	48 0f 44 c2          	cmove  %rdx,%rax
    ffd6:	83 f9 3f             	cmp    $0x3f,%ecx
    ffd9:	48 89 06             	mov    %rax,(%rsi)
    ffdc:	75 ca                	jne    ffa8 <_ZNSt6vectorIbSaIbEE14_M_fill_insertESt13_Bit_iteratormb+0x488>
    ffde:	48 83 c6 08          	add    $0x8,%rsi
    ffe2:	31 c9                	xor    %ecx,%ecx
    ffe4:	48 39 f7             	cmp    %rsi,%rdi
    ffe7:	75 ce                	jne    ffb7 <_ZNSt6vectorIbSaIbEE14_M_fill_insertESt13_Bit_iteratormb+0x497>
    ffe9:	4c 89 d7             	mov    %r10,%rdi
    ffec:	31 c9                	xor    %ecx,%ecx
    ffee:	41 b8 01 00 00 00    	mov    $0x1,%r8d
    fff4:	41 39 cf             	cmp    %ecx,%r15d
    fff7:	75 07                	jne    10000 <_ZNSt6vectorIbSaIbEE14_M_fill_insertESt13_Bit_iteratormb+0x4e0>
    fff9:	49 39 fa             	cmp    %rdi,%r10
    fffc:	74 37                	je     10035 <_ZNSt6vectorIbSaIbEE14_M_fill_insertESt13_Bit_iteratormb+0x515>
    fffe:	66 90                	xchg   %ax,%ax
   10000:	4c 89 c0             	mov    %r8,%rax
   10003:	48 8b 37             	mov    (%rdi),%rsi
   10006:	48 d3 e0             	shl    %cl,%rax
   10009:	48 89 c2             	mov    %rax,%rdx
   1000c:	48 f7 d2             	not    %rdx
   1000f:	48 09 f0             	or     %rsi,%rax
   10012:	48 21 f2             	and    %rsi,%rdx
   10015:	40 84 ed             	test   %bpl,%bpl
   10018:	48 0f 44 c2          	cmove  %rdx,%rax
   1001c:	83 f9 3f             	cmp    $0x3f,%ecx
   1001f:	48 89 07             	mov    %rax,(%rdi)
   10022:	0f 84 e0 00 00 00    	je     10108 <_ZNSt6vectorIbSaIbEE14_M_fill_insertESt13_Bit_iteratormb+0x5e8>
   10028:	83 c1 01             	add    $0x1,%ecx
   1002b:	41 39 cf             	cmp    %ecx,%r15d
   1002e:	75 d0                	jne    10000 <_ZNSt6vectorIbSaIbEE14_M_fill_insertESt13_Bit_iteratormb+0x4e0>
   10030:	49 39 fa             	cmp    %rdi,%r10
   10033:	75 cb                	jne    10000 <_ZNSt6vectorIbSaIbEE14_M_fill_insertESt13_Bit_iteratormb+0x4e0>
   10035:	49 8b 45 10          	mov    0x10(%r13),%rax
   10039:	41 8b 55 18          	mov    0x18(%r13),%edx
   1003d:	48 2b 44 24 08       	sub    0x8(%rsp),%rax
   10042:	48 8d 34 c2          	lea    (%rdx,%rax,8),%rsi
   10046:	48 2b 74 24 20       	sub    0x20(%rsp),%rsi
   1004b:	48 85 f6             	test   %rsi,%rsi
   1004e:	0f 8e 24 fc ff ff    	jle    fc78 <_ZNSt6vectorIbSaIbEE14_M_fill_insertESt13_Bit_iteratormb+0x158>
   10054:	bf 01 00 00 00       	mov    $0x1,%edi
   10059:	eb 1c                	jmp    10077 <_ZNSt6vectorIbSaIbEE14_M_fill_insertESt13_Bit_iteratormb+0x557>
   1005b:	0f 1f 44 00 00       	nopl   0x0(%rax,%rax,1)
   10060:	83 c3 01             	add    $0x1,%ebx
   10063:	41 83 ff 3f          	cmp    $0x3f,%r15d
   10067:	74 4d                	je     100b6 <_ZNSt6vectorIbSaIbEE14_M_fill_insertESt13_Bit_iteratormb+0x596>
   10069:	41 83 c7 01          	add    $0x1,%r15d
   1006d:	48 83 ee 01          	sub    $0x1,%rsi
   10071:	0f 84 01 fc ff ff    	je     fc78 <_ZNSt6vectorIbSaIbEE14_M_fill_insertESt13_Bit_iteratormb+0x158>
   10077:	44 89 f9             	mov    %r15d,%ecx
   1007a:	49 89 f8             	mov    %rdi,%r8
   1007d:	48 89 fa             	mov    %rdi,%rdx
   10080:	49 d3 e0             	shl    %cl,%r8
   10083:	89 d9                	mov    %ebx,%ecx
   10085:	49 8b 02             	mov    (%r10),%rax
   10088:	48 d3 e2             	shl    %cl,%rdx
   1008b:	48 89 d1             	mov    %rdx,%rcx
   1008e:	4c 89 c2             	mov    %r8,%rdx
   10091:	48 f7 d2             	not    %rdx
   10094:	48 21 c2             	and    %rax,%rdx
   10097:	4c 09 c0             	or     %r8,%rax
   1009a:	49 85 0c 24          	test   %rcx,(%r12)
   1009e:	48 0f 44 c2          	cmove  %rdx,%rax
   100a2:	83 fb 3f             	cmp    $0x3f,%ebx
   100a5:	49 89 02             	mov    %rax,(%r10)
   100a8:	75 b6                	jne    10060 <_ZNSt6vectorIbSaIbEE14_M_fill_insertESt13_Bit_iteratormb+0x540>
   100aa:	49 83 c4 08          	add    $0x8,%r12
   100ae:	31 db                	xor    %ebx,%ebx
   100b0:	41 83 ff 3f          	cmp    $0x3f,%r15d
   100b4:	75 b3                	jne    10069 <_ZNSt6vectorIbSaIbEE14_M_fill_insertESt13_Bit_iteratormb+0x549>
   100b6:	49 83 c2 08          	add    $0x8,%r10
   100ba:	45 31 ff             	xor    %r15d,%r15d
   100bd:	eb ae                	jmp    1006d <_ZNSt6vectorIbSaIbEE14_M_fill_insertESt13_Bit_iteratormb+0x54d>
   100bf:	90                   	nop
   100c0:	49 83 c0 08          	add    $0x8,%r8
   100c4:	31 c9                	xor    %ecx,%ecx
   100c6:	41 39 cf             	cmp    %ecx,%r15d
   100c9:	75 09                	jne    100d4 <_ZNSt6vectorIbSaIbEE14_M_fill_insertESt13_Bit_iteratormb+0x5b4>
   100cb:	4d 39 c2             	cmp    %r8,%r10
   100ce:	0f 84 61 ff ff ff    	je     10035 <_ZNSt6vectorIbSaIbEE14_M_fill_insertESt13_Bit_iteratormb+0x515>
   100d4:	48 89 f0             	mov    %rsi,%rax
   100d7:	49 8b 38             	mov    (%r8),%rdi
   100da:	48 d3 e0             	shl    %cl,%rax
   100dd:	48 89 c2             	mov    %rax,%rdx
   100e0:	48 f7 d2             	not    %rdx
   100e3:	48 09 f8             	or     %rdi,%rax
   100e6:	48 21 fa             	and    %rdi,%rdx
   100e9:	40 84 ed             	test   %bpl,%bpl
   100ec:	48 0f 44 c2          	cmove  %rdx,%rax
   100f0:	83 f9 3f             	cmp    $0x3f,%ecx
   100f3:	49 89 00             	mov    %rax,(%r8)
   100f6:	74 c8                	je     100c0 <_ZNSt6vectorIbSaIbEE14_M_fill_insertESt13_Bit_iteratormb+0x5a0>
   100f8:	83 c1 01             	add    $0x1,%ecx
   100fb:	41 39 cf             	cmp    %ecx,%r15d
   100fe:	74 cb                	je     100cb <_ZNSt6vectorIbSaIbEE14_M_fill_insertESt13_Bit_iteratormb+0x5ab>
   10100:	eb d2                	jmp    100d4 <_ZNSt6vectorIbSaIbEE14_M_fill_insertESt13_Bit_iteratormb+0x5b4>
   10102:	66 0f 1f 44 00 00    	nopw   0x0(%rax,%rax,1)
   10108:	48 83 c7 08          	add    $0x8,%rdi
   1010c:	31 c9                	xor    %ecx,%ecx
   1010e:	e9 e1 fe ff ff       	jmpq   fff4 <_ZNSt6vectorIbSaIbEE14_M_fill_insertESt13_Bit_iteratormb+0x4d4>
   10113:	0f 1f 44 00 00       	nopl   0x0(%rax,%rax,1)
   10118:	48 8b 44 24 10       	mov    0x10(%rsp),%rax
   1011d:	48 83 c0 40          	add    $0x40,%rax
   10121:	48 89 44 24 18       	mov    %rax,0x18(%rsp)
   10126:	48 8b 44 24 20       	mov    0x20(%rsp),%rax
   1012b:	48 83 e8 08          	sub    $0x8,%rax
   1012f:	48 89 47 10          	mov    %rax,0x10(%rdi)
   10133:	e9 ce fc ff ff       	jmpq   fe06 <_ZNSt6vectorIbSaIbEE14_M_fill_insertESt13_Bit_iteratormb+0x2e6>
   10138:	0f 1f 84 00 00 00 00 	nopl   0x0(%rax,%rax,1)
   1013f:	00 
   10140:	4c 89 d6             	mov    %r10,%rsi
   10143:	41 b8 01 00 00 00    	mov    $0x1,%r8d
   10149:	0f 1f 80 00 00 00 00 	nopl   0x0(%rax)
   10150:	41 39 d9             	cmp    %ebx,%r9d
   10153:	75 09                	jne    1015e <_ZNSt6vectorIbSaIbEE14_M_fill_insertESt13_Bit_iteratormb+0x63e>
   10155:	49 39 f2             	cmp    %rsi,%r10
   10158:	0f 84 93 fc ff ff    	je     fdf1 <_ZNSt6vectorIbSaIbEE14_M_fill_insertESt13_Bit_iteratormb+0x2d1>
   1015e:	89 d9                	mov    %ebx,%ecx
   10160:	4c 89 c0             	mov    %r8,%rax
   10163:	48 d3 e0             	shl    %cl,%rax
   10166:	48 8b 0e             	mov    (%rsi),%rcx
   10169:	48 89 c2             	mov    %rax,%rdx
   1016c:	48 f7 d2             	not    %rdx
   1016f:	48 21 ca             	and    %rcx,%rdx
   10172:	48 09 c8             	or     %rcx,%rax
   10175:	40 84 ed             	test   %bpl,%bpl
   10178:	48 0f 44 c2          	cmove  %rdx,%rax
   1017c:	83 fb 3f             	cmp    $0x3f,%ebx
   1017f:	48 89 06             	mov    %rax,(%rsi)
   10182:	74 0c                	je     10190 <_ZNSt6vectorIbSaIbEE14_M_fill_insertESt13_Bit_iteratormb+0x670>
   10184:	83 c3 01             	add    $0x1,%ebx
   10187:	41 39 d9             	cmp    %ebx,%r9d
   1018a:	74 c9                	je     10155 <_ZNSt6vectorIbSaIbEE14_M_fill_insertESt13_Bit_iteratormb+0x635>
   1018c:	eb d0                	jmp    1015e <_ZNSt6vectorIbSaIbEE14_M_fill_insertESt13_Bit_iteratormb+0x63e>
   1018e:	66 90                	xchg   %ax,%ax
   10190:	48 83 c6 08          	add    $0x8,%rsi
   10194:	31 db                	xor    %ebx,%ebx
   10196:	eb b8                	jmp    10150 <_ZNSt6vectorIbSaIbEE14_M_fill_insertESt13_Bit_iteratormb+0x630>
   10198:	0f 1f 84 00 00 00 00 	nopl   0x0(%rax,%rax,1)
   1019f:	00 
   101a0:	48 b8 f8 ff ff ff ff 	movabs $0xffffffffffffff8,%rax
   101a7:	ff ff 0f 
   101aa:	48 89 44 24 18       	mov    %rax,0x18(%rsp)
   101af:	e9 d9 fc ff ff       	jmpq   fe8d <_ZNSt6vectorIbSaIbEE14_M_fill_insertESt13_Bit_iteratormb+0x36d>
   101b4:	45 31 c9             	xor    %r9d,%r9d
   101b7:	31 c9                	xor    %ecx,%ecx
   101b9:	e9 72 fd ff ff       	jmpq   ff30 <_ZNSt6vectorIbSaIbEE14_M_fill_insertESt13_Bit_iteratormb+0x410>
   101be:	48 8d 3d 12 1a 00 00 	lea    0x1a12(%rip),%rdi        # 11bd7 <_ZTS9ManParser+0x157>
   101c5:	e8 56 45 ff ff       	callq  4720 <_ZSt20__throw_length_errorPKc@plt>
   101ca:	66 0f 1f 44 00 00    	nopw   0x0(%rax,%rax,1)

00000000000101d0 <_ZN10HTMLParser10next_tokenERNSt7__cxx1112basic_stringIcSt11char_traitsIcESaIcEEE>:
   101d0:	48 83 ec 08          	sub    $0x8,%rsp
   101d4:	48 8d 0d 85 4e 20 00 	lea    0x204e85(%rip),%rcx        # 215060 <_ZL8PATTERN2>
   101db:	45 31 c9             	xor    %r9d,%r9d
   101de:	56                   	push   %rsi
   101df:	48 8d 35 ba 4e 20 00 	lea    0x204eba(%rip),%rsi        # 2150a0 <_ZL7PATTERN>
   101e6:	6a 00                	pushq  $0x0
   101e8:	41 b8 03 00 00 00    	mov    $0x3,%r8d
   101ee:	ba 0c 00 00 00       	mov    $0xc,%edx
   101f3:	e8 d8 ca ff ff       	callq  ccd0 <_ZN9XMLParser10next_tokenEPA2_PKcjS3_jS3_jRNSt7__cxx1112basic_stringIcSt11char_traitsIcESaIcEEE>
   101f8:	48 83 c4 18          	add    $0x18,%rsp
   101fc:	c3                   	retq   
   101fd:	90                   	nop
   101fe:	66 90                	xchg   %ax,%ax

0000000000010200 <_ZN10HTMLParserD1Ev>:
   10200:	48 8d 05 f9 47 20 00 	lea    0x2047f9(%rip),%rax        # 214a00 <_ZTV10HTMLParser+0x10>
   10207:	48 89 07             	mov    %rax,(%rdi)
   1020a:	e9 91 c8 ff ff       	jmpq   caa0 <_ZN9XMLParserD1Ev>
   1020f:	90                   	nop

0000000000010210 <_ZN10HTMLParserD0Ev>:
   10210:	48 8d 05 e9 47 20 00 	lea    0x2047e9(%rip),%rax        # 214a00 <_ZTV10HTMLParser+0x10>
   10217:	53                   	push   %rbx
   10218:	48 89 fb             	mov    %rdi,%rbx
   1021b:	48 89 07             	mov    %rax,(%rdi)
   1021e:	e8 7d c8 ff ff       	callq  caa0 <_ZN9XMLParserD1Ev>
   10223:	48 89 df             	mov    %rbx,%rdi
   10226:	be 10 01 00 00       	mov    $0x110,%esi
   1022b:	5b                   	pop    %rbx
   1022c:	e9 2f 46 ff ff       	jmpq   4860 <_ZdlPvm@plt>
   10231:	90                   	nop
   10232:	0f 1f 40 00          	nopl   0x0(%rax)
   10236:	66 2e 0f 1f 84 00 00 	nopw   %cs:0x0(%rax,%rax,1)
   1023d:	00 00 00 

0000000000010240 <_ZN10HTMLParserC1EPKc>:
   10240:	53                   	push   %rbx
   10241:	48 89 fb             	mov    %rdi,%rbx
   10244:	e8 67 c9 ff ff       	callq  cbb0 <_ZN9XMLParserC1EPKc>
   10249:	48 8d 05 b0 47 20 00 	lea    0x2047b0(%rip),%rax        # 214a00 <_ZTV10HTMLParser+0x10>
   10250:	48 89 03             	mov    %rax,(%rbx)
   10253:	5b                   	pop    %rbx
   10254:	c3                   	retq   
   10255:	90                   	nop
   10256:	66 2e 0f 1f 84 00 00 	nopw   %cs:0x0(%rax,%rax,1)
   1025d:	00 00 00 

0000000000010260 <_ZN10HTMLParserC1EPK6w_chari>:
   10260:	53                   	push   %rbx
   10261:	48 89 fb             	mov    %rdi,%rbx
   10264:	e8 87 c9 ff ff       	callq  cbf0 <_ZN9XMLParserC1EPK6w_chari>
   10269:	48 8d 05 90 47 20 00 	lea    0x204790(%rip),%rax        # 214a00 <_ZTV10HTMLParser+0x10>
   10270:	48 89 03             	mov    %rax,(%rbx)
   10273:	5b                   	pop    %rbx
   10274:	c3                   	retq   
   10275:	66 2e 0f 1f 84 00 00 	nopw   %cs:0x0(%rax,%rax,1)
   1027c:	00 00 00 
   1027f:	90                   	nop

0000000000010280 <_ZN9ODFParser10next_tokenERNSt7__cxx1112basic_stringIcSt11char_traitsIcESaIcEEE>:
   10280:	48 83 ec 08          	sub    $0x8,%rsp
   10284:	4c 8d 0d d5 4e 20 00 	lea    0x204ed5(%rip),%r9        # 215160 <_ZL8PATTERN3>
   1028b:	45 31 c0             	xor    %r8d,%r8d
   1028e:	56                   	push   %rsi
   1028f:	48 8d 35 ea 4e 20 00 	lea    0x204eea(%rip),%rsi        # 215180 <_ZL7PATTERN>
   10296:	6a 02                	pushq  $0x2
   10298:	31 c9                	xor    %ecx,%ecx
   1029a:	ba 06 00 00 00       	mov    $0x6,%edx
   1029f:	e8 2c ca ff ff       	callq  ccd0 <_ZN9XMLParser10next_tokenEPA2_PKcjS3_jS3_jRNSt7__cxx1112basic_stringIcSt11char_traitsIcESaIcEEE>
   102a4:	48 83 c4 18          	add    $0x18,%rsp
   102a8:	c3                   	retq   
   102a9:	90                   	nop
   102aa:	66 0f 1f 44 00 00    	nopw   0x0(%rax,%rax,1)

00000000000102b0 <_ZN9ODFParser8get_wordERKNSt7__cxx1112basic_stringIcSt11char_traitsIcESaIcEEE>:
   102b0:	53                   	push   %rbx
   102b1:	49 89 d0             	mov    %rdx,%r8
   102b4:	48 8d 15 a5 4e 20 00 	lea    0x204ea5(%rip),%rdx        # 215160 <_ZL8PATTERN3>
   102bb:	b9 02 00 00 00       	mov    $0x2,%ecx
   102c0:	48 89 fb             	mov    %rdi,%rbx
   102c3:	48 83 ec 10          	sub    $0x10,%rsp
   102c7:	64 48 8b 04 25 28 00 	mov    %fs:0x28,%rax
   102ce:	00 00 
   102d0:	48 89 44 24 08       	mov    %rax,0x8(%rsp)
   102d5:	31 c0                	xor    %eax,%eax
   102d7:	e8 54 d1 ff ff       	callq  d430 <_ZN9XMLParser9get_word2EPA2_PKcjRKNSt7__cxx1112basic_stringIcSt11char_traitsIcESaIcEEE>
   102dc:	48 8b 4c 24 08       	mov    0x8(%rsp),%rcx
   102e1:	64 48 33 0c 25 28 00 	xor    %fs:0x28,%rcx
   102e8:	00 00 
   102ea:	75 09                	jne    102f5 <_ZN9ODFParser8get_wordERKNSt7__cxx1112basic_stringIcSt11char_traitsIcESaIcEEE+0x45>
   102ec:	48 83 c4 10          	add    $0x10,%rsp
   102f0:	48 89 d8             	mov    %rbx,%rax
   102f3:	5b                   	pop    %rbx
   102f4:	c3                   	retq   
   102f5:	e8 96 45 ff ff       	callq  4890 <__stack_chk_fail@plt>
   102fa:	66 0f 1f 44 00 00    	nopw   0x0(%rax,%rax,1)

0000000000010300 <_ZN9ODFParserD1Ev>:
   10300:	48 8d 05 49 47 20 00 	lea    0x204749(%rip),%rax        # 214a50 <_ZTV9ODFParser+0x10>
   10307:	48 89 07             	mov    %rax,(%rdi)
   1030a:	e9 91 c7 ff ff       	jmpq   caa0 <_ZN9XMLParserD1Ev>
   1030f:	90                   	nop

0000000000010310 <_ZN9ODFParserD0Ev>:
   10310:	48 8d 05 39 47 20 00 	lea    0x204739(%rip),%rax        # 214a50 <_ZTV9ODFParser+0x10>
   10317:	53                   	push   %rbx
   10318:	48 89 fb             	mov    %rdi,%rbx
   1031b:	48 89 07             	mov    %rax,(%rdi)
   1031e:	e8 7d c7 ff ff       	callq  caa0 <_ZN9XMLParserD1Ev>
   10323:	48 89 df             	mov    %rbx,%rdi
   10326:	be 10 01 00 00       	mov    $0x110,%esi
   1032b:	5b                   	pop    %rbx
   1032c:	e9 2f 45 ff ff       	jmpq   4860 <_ZdlPvm@plt>
   10331:	90                   	nop
   10332:	0f 1f 40 00          	nopl   0x0(%rax)
   10336:	66 2e 0f 1f 84 00 00 	nopw   %cs:0x0(%rax,%rax,1)
   1033d:	00 00 00 

0000000000010340 <_ZN9ODFParserC1EPKc>:
   10340:	53                   	push   %rbx
   10341:	48 89 fb             	mov    %rdi,%rbx
   10344:	e8 67 c8 ff ff       	callq  cbb0 <_ZN9XMLParserC1EPKc>
   10349:	48 8d 05 00 47 20 00 	lea    0x204700(%rip),%rax        # 214a50 <_ZTV9ODFParser+0x10>
   10350:	48 89 03             	mov    %rax,(%rbx)
   10353:	5b                   	pop    %rbx
   10354:	c3                   	retq   
   10355:	90                   	nop
   10356:	66 2e 0f 1f 84 00 00 	nopw   %cs:0x0(%rax,%rax,1)
   1035d:	00 00 00 

0000000000010360 <_ZN9ODFParserC1EPK6w_chari>:
   10360:	53                   	push   %rbx
   10361:	48 89 fb             	mov    %rdi,%rbx
   10364:	e8 87 c8 ff ff       	callq  cbf0 <_ZN9XMLParserC1EPK6w_chari>
   10369:	48 8d 05 e0 46 20 00 	lea    0x2046e0(%rip),%rax        # 214a50 <_ZTV9ODFParser+0x10>
   10370:	48 89 03             	mov    %rax,(%rbx)
   10373:	5b                   	pop    %rbx
   10374:	c3                   	retq   
   10375:	66 2e 0f 1f 84 00 00 	nopw   %cs:0x0(%rax,%rax,1)
   1037c:	00 00 00 
   1037f:	90                   	nop

0000000000010380 <__libc_csu_init>:
   10380:	41 57                	push   %r15
   10382:	41 56                	push   %r14
   10384:	49 89 d7             	mov    %rdx,%r15
   10387:	41 55                	push   %r13
   10389:	41 54                	push   %r12
   1038b:	4c 8d 25 96 3a 20 00 	lea    0x203a96(%rip),%r12        # 213e28 <__frame_dummy_init_array_entry>
   10392:	55                   	push   %rbp
   10393:	48 8d 2d 9e 3a 20 00 	lea    0x203a9e(%rip),%rbp        # 213e38 <__init_array_end>
   1039a:	53                   	push   %rbx
   1039b:	41 89 fd             	mov    %edi,%r13d
   1039e:	49 89 f6             	mov    %rsi,%r14
   103a1:	4c 29 e5             	sub    %r12,%rbp
   103a4:	48 83 ec 08          	sub    $0x8,%rsp
   103a8:	48 c1 fd 03          	sar    $0x3,%rbp
   103ac:	e8 e7 41 ff ff       	callq  4598 <_init>
   103b1:	48 85 ed             	test   %rbp,%rbp
   103b4:	74 20                	je     103d6 <__libc_csu_init+0x56>
   103b6:	31 db                	xor    %ebx,%ebx
   103b8:	0f 1f 84 00 00 00 00 	nopl   0x0(%rax,%rax,1)
   103bf:	00 
   103c0:	4c 89 fa             	mov    %r15,%rdx
   103c3:	4c 89 f6             	mov    %r14,%rsi
   103c6:	44 89 ef             	mov    %r13d,%edi
   103c9:	41 ff 14 dc          	callq  *(%r12,%rbx,8)
   103cd:	48 83 c3 01          	add    $0x1,%rbx
   103d1:	48 39 dd             	cmp    %rbx,%rbp
   103d4:	75 ea                	jne    103c0 <__libc_csu_init+0x40>
   103d6:	48 83 c4 08          	add    $0x8,%rsp
   103da:	5b                   	pop    %rbx
   103db:	5d                   	pop    %rbp
   103dc:	41 5c                	pop    %r12
   103de:	41 5d                	pop    %r13
   103e0:	41 5e                	pop    %r14
   103e2:	41 5f                	pop    %r15
   103e4:	c3                   	retq   
   103e5:	90                   	nop
   103e6:	66 2e 0f 1f 84 00 00 	nopw   %cs:0x0(%rax,%rax,1)
   103ed:	00 00 00 

00000000000103f0 <__libc_csu_fini>:
   103f0:	f3 c3                	repz retq 
