
/usr/local/bin/hunspell:     file format elf64-x86-64


Disassembly of section .text:

0000000000004c10 <main>:
    4c10:	41 57                	push   %r15
    4c12:	41 56                	push   %r14
    4c14:	49 89 f7             	mov    %rsi,%r15
    4c17:	41 55                	push   %r13
    4c19:	41 54                	push   %r12
    4c1b:	55                   	push   %rbp
    4c1c:	53                   	push   %rbx
    4c1d:	89 fb                	mov    %edi,%ebx
    4c1f:	bf 06 00 00 00       	mov    $0x6,%edi
    4c24:	48 81 ec c8 00 00 00 	sub    $0xc8,%rsp
    4c2b:	64 48 8b 04 25 28 00 	mov    %fs:0x28,%rax
    4c32:	00 00 
    4c34:	48 89 84 24 b8 00 00 	mov    %rax,0xb8(%rsp)
    4c3b:	00 
    4c3c:	31 c0                	xor    %eax,%eax
    4c3e:	48 8d 44 24 20       	lea    0x20(%rsp),%rax
    4c43:	48 89 74 24 18       	mov    %rsi,0x18(%rsp)
    4c48:	48 8d 35 c5 c7 00 00 	lea    0xc7c5(%rip),%rsi        # 11414 <_IO_stdin_used+0x1014>
    4c4f:	48 c7 44 24 28 00 00 	movq   $0x0,0x28(%rsp)
    4c56:	00 00 
    4c58:	c6 44 24 30 00       	movb   $0x0,0x30(%rsp)
    4c5d:	48 89 44 24 10       	mov    %rax,0x10(%rsp)
    4c62:	48 8d 44 24 30       	lea    0x30(%rsp),%rax
    4c67:	48 89 44 24 20       	mov    %rax,0x20(%rsp)
    4c6c:	e8 6f fb ff ff       	callq  47e0 <setlocale@plt>
    4c71:	bf 0e 00 00 00       	mov    $0xe,%edi
    4c76:	e8 95 fb ff ff       	callq  4810 <nl_langinfo@plt>
    4c7b:	48 8d 3d 01 c7 00 00 	lea    0xc701(%rip),%rdi        # 11383 <_IO_stdin_used+0xf83>
    4c82:	48 89 05 0f 06 21 00 	mov    %rax,0x21060f(%rip)        # 215298 <ui_enc>
    4c89:	e8 02 fe ff ff       	callq  4a90 <textdomain@plt>
    4c8e:	83 fb 01             	cmp    $0x1,%ebx
    4c91:	0f 8e 11 08 00 00    	jle    54a8 <main+0x898>
    4c97:	4d 8d 67 08          	lea    0x8(%r15),%r12
    4c9b:	41 bd 01 00 00 00    	mov    $0x1,%r13d
    4ca1:	31 ed                	xor    %ebp,%ebp
    4ca3:	c7 44 24 08 00 00 00 	movl   $0x0,0x8(%rsp)
    4caa:	00 
    4cab:	c7 44 24 0c ff ff ff 	movl   $0xffffffff,0xc(%rsp)
    4cb2:	ff 
    4cb3:	45 31 ff             	xor    %r15d,%r15d
    4cb6:	66 2e 0f 1f 84 00 00 	nopw   %cs:0x0(%rax,%rax,1)
    4cbd:	00 00 00 
    4cc0:	83 fd 01             	cmp    $0x1,%ebp
    4cc3:	0f 84 37 01 00 00    	je     4e00 <main+0x1f0>
    4cc9:	83 fd 02             	cmp    $0x2,%ebp
    4ccc:	0f 84 f6 07 00 00    	je     54c8 <main+0x8b8>
    4cd2:	83 fd 03             	cmp    $0x3,%ebp
    4cd5:	4d 8b 34 24          	mov    (%r12),%r14
    4cd9:	0f 84 11 08 00 00    	je     54f0 <main+0x8e0>
    4cdf:	83 fd 04             	cmp    $0x4,%ebp
    4ce2:	0f 84 18 08 00 00    	je     5500 <main+0x8f0>
    4ce8:	48 8d 3d 9d c6 00 00 	lea    0xc69d(%rip),%rdi        # 1138c <_IO_stdin_used+0xf8c>
    4cef:	b9 03 00 00 00       	mov    $0x3,%ecx
    4cf4:	4c 89 f6             	mov    %r14,%rsi
    4cf7:	f3 a6                	repz cmpsb %es:(%rdi),%ds:(%rsi)
    4cf9:	0f 97 c0             	seta   %al
    4cfc:	1c 00                	sbb    $0x0,%al
    4cfe:	84 c0                	test   %al,%al
    4d00:	0f 84 0a 08 00 00    	je     5510 <main+0x900>
    4d06:	48 8d 3d 82 c6 00 00 	lea    0xc682(%rip),%rdi        # 1138f <_IO_stdin_used+0xf8f>
    4d0d:	b9 03 00 00 00       	mov    $0x3,%ecx
    4d12:	4c 89 f6             	mov    %r14,%rsi
    4d15:	f3 a6                	repz cmpsb %es:(%rdi),%ds:(%rsi)
    4d17:	0f 97 c0             	seta   %al
    4d1a:	1c 00                	sbb    $0x0,%al
    4d1c:	84 c0                	test   %al,%al
    4d1e:	0f 84 2c 08 00 00    	je     5550 <main+0x940>
    4d24:	48 8d 3d 67 c6 00 00 	lea    0xc667(%rip),%rdi        # 11392 <_IO_stdin_used+0xf92>
    4d2b:	b9 03 00 00 00       	mov    $0x3,%ecx
    4d30:	4c 89 f6             	mov    %r14,%rsi
    4d33:	f3 a6                	repz cmpsb %es:(%rdi),%ds:(%rsi)
    4d35:	0f 97 c0             	seta   %al
    4d38:	1c 00                	sbb    $0x0,%al
    4d3a:	84 c0                	test   %al,%al
    4d3c:	0f 84 1e 08 00 00    	je     5560 <main+0x950>
    4d42:	48 8d 3d 4c c6 00 00 	lea    0xc64c(%rip),%rdi        # 11395 <_IO_stdin_used+0xf95>
    4d49:	b9 03 00 00 00       	mov    $0x3,%ecx
    4d4e:	4c 89 f6             	mov    %r14,%rsi
    4d51:	f3 a6                	repz cmpsb %es:(%rdi),%ds:(%rsi)
    4d53:	0f 97 c0             	seta   %al
    4d56:	1c 00                	sbb    $0x0,%al
    4d58:	84 c0                	test   %al,%al
    4d5a:	0f 84 0a 08 00 00    	je     556a <main+0x95a>
    4d60:	48 8d 35 31 c6 00 00 	lea    0xc631(%rip),%rsi        # 11398 <_IO_stdin_used+0xf98>
    4d67:	4c 89 f7             	mov    %r14,%rdi
    4d6a:	e8 61 fc ff ff       	callq  49d0 <strcmp@plt>
    4d6f:	85 c0                	test   %eax,%eax
    4d71:	0f 84 bb 0b 00 00    	je     5932 <main+0xd22>
    4d77:	48 8d 35 1d c6 00 00 	lea    0xc61d(%rip),%rsi        # 1139b <_IO_stdin_used+0xf9b>
    4d7e:	4c 89 f7             	mov    %r14,%rdi
    4d81:	e8 4a fc ff ff       	callq  49d0 <strcmp@plt>
    4d86:	85 c0                	test   %eax,%eax
    4d88:	0f 84 a4 0b 00 00    	je     5932 <main+0xd22>
    4d8e:	48 8d 35 80 c6 00 00 	lea    0xc680(%rip),%rsi        # 11415 <_IO_stdin_used+0x1015>
    4d95:	4c 89 f7             	mov    %r14,%rdi
    4d98:	e8 33 fc ff ff       	callq  49d0 <strcmp@plt>
    4d9d:	85 c0                	test   %eax,%eax
    4d9f:	0f 84 a1 0e 00 00    	je     5c46 <main+0x1036>
    4da5:	48 8d 35 6d c6 00 00 	lea    0xc66d(%rip),%rsi        # 11419 <_IO_stdin_used+0x1019>
    4dac:	4c 89 f7             	mov    %r14,%rdi
    4daf:	e8 1c fc ff ff       	callq  49d0 <strcmp@plt>
    4db4:	85 c0                	test   %eax,%eax
    4db6:	0f 84 8a 0e 00 00    	je     5c46 <main+0x1036>
    4dbc:	48 8d 35 59 c6 00 00 	lea    0xc659(%rip),%rsi        # 1141c <_IO_stdin_used+0x101c>
    4dc3:	4c 89 f7             	mov    %r14,%rdi
    4dc6:	e8 05 fc ff ff       	callq  49d0 <strcmp@plt>
    4dcb:	85 c0                	test   %eax,%eax
    4dcd:	0f 84 73 0e 00 00    	je     5c46 <main+0x1036>
    4dd3:	48 8d 35 4c c6 00 00 	lea    0xc64c(%rip),%rsi        # 11426 <_IO_stdin_used+0x1026>
    4dda:	4c 89 f7             	mov    %r14,%rdi
    4ddd:	e8 ee fb ff ff       	callq  49d0 <strcmp@plt>
    4de2:	85 c0                	test   %eax,%eax
    4de4:	0f 85 b5 08 00 00    	jne    569f <main+0xa8f>
    4dea:	c7 05 c0 04 21 00 06 	movl   $0x6,0x2104c0(%rip)        # 2152b4 <filter_mode>
    4df1:	00 00 00 
    4df4:	eb 2d                	jmp    4e23 <main+0x213>
    4df6:	66 2e 0f 1f 84 00 00 	nopw   %cs:0x0(%rax,%rax,1)
    4dfd:	00 00 00 
    4e00:	48 8b 3d c9 04 21 00 	mov    0x2104c9(%rip),%rdi        # 2152d0 <dicname>
    4e07:	48 85 ff             	test   %rdi,%rdi
    4e0a:	74 05                	je     4e11 <main+0x201>
    4e0c:	e8 3f fb ff ff       	callq  4950 <free@plt>
    4e11:	49 8b 3c 24          	mov    (%r12),%rdi
    4e15:	e8 e6 f7 ff ff       	callq  4600 <_Z8mystrdupPKc@plt>
    4e1a:	48 89 05 af 04 21 00 	mov    %rax,0x2104af(%rip)        # 2152d0 <dicname>
    4e21:	31 ed                	xor    %ebp,%ebp
    4e23:	41 83 c5 01          	add    $0x1,%r13d
    4e27:	49 83 c4 08          	add    $0x8,%r12
    4e2b:	44 39 eb             	cmp    %r13d,%ebx
    4e2e:	0f 85 8c fe ff ff    	jne    4cc0 <main+0xb0>
    4e34:	8b 44 24 0c          	mov    0xc(%rsp),%eax
    4e38:	85 c0                	test   %eax,%eax
    4e3a:	0f 8e 7b 06 00 00    	jle    54bb <main+0x8ab>
    4e40:	89 da                	mov    %ebx,%edx
    4e42:	29 c2                	sub    %eax,%edx
    4e44:	b8 01 00 00 00       	mov    $0x1,%eax
    4e49:	83 ea 01             	sub    $0x1,%edx
    4e4c:	0f 8e 69 06 00 00    	jle    54bb <main+0x8ab>
    4e52:	44 8b 05 57 04 21 00 	mov    0x210457(%rip),%r8d        # 2152b0 <printgood>
    4e59:	88 05 59 04 21 00    	mov    %al,0x210459(%rip)        # 2152b8 <multiple_files>
    4e5f:	45 85 c0             	test   %r8d,%r8d
    4e62:	0f 85 0c 07 00 00    	jne    5574 <main+0x964>
    4e68:	48 83 3d 60 04 21 00 	cmpq   $0x0,0x210460(%rip)        # 2152d0 <dicname>
    4e6f:	00 
    4e70:	0f 84 fd 07 00 00    	je     5673 <main+0xa63>
    4e76:	48 8d 6c 24 40       	lea    0x40(%rsp),%rbp
    4e7b:	48 8d 15 3b c6 00 00 	lea    0xc63b(%rip),%rdx        # 114bd <_IO_stdin_used+0x10bd>
    4e82:	48 8d 45 10          	lea    0x10(%rbp),%rax
    4e86:	48 8d 72 ff          	lea    -0x1(%rdx),%rsi
    4e8a:	48 89 ef             	mov    %rbp,%rdi
    4e8d:	48 89 44 24 40       	mov    %rax,0x40(%rsp)
    4e92:	e8 39 13 00 00       	callq  61d0 <_ZNSt7__cxx1112basic_stringIcSt11char_traitsIcESaIcEE12_M_constructIPKcEEvT_S8_St20forward_iterator_tag.isra.52>
    4e97:	48 8d 35 20 c6 00 00 	lea    0xc620(%rip),%rsi        # 114be <_IO_stdin_used+0x10be>
    4e9e:	48 89 ef             	mov    %rbp,%rdi
    4ea1:	e8 0a fd ff ff       	callq  4bb0 <_ZNSt7__cxx1112basic_stringIcSt11char_traitsIcESaIcEE6appendEPKc@plt>
    4ea6:	48 8d 35 11 c6 00 00 	lea    0xc611(%rip),%rsi        # 114be <_IO_stdin_used+0x10be>
    4ead:	48 89 ef             	mov    %rbp,%rdi
    4eb0:	e8 fb fc ff ff       	callq  4bb0 <_ZNSt7__cxx1112basic_stringIcSt11char_traitsIcESaIcEE6appendEPKc@plt>
    4eb5:	48 8d 3d 04 c6 00 00 	lea    0xc604(%rip),%rdi        # 114c0 <_IO_stdin_used+0x10c0>
    4ebc:	e8 af fa ff ff       	callq  4970 <getenv@plt>
    4ec1:	48 85 c0             	test   %rax,%rax
    4ec4:	74 26                	je     4eec <main+0x2dc>
    4ec6:	48 8d 3d f3 c5 00 00 	lea    0xc5f3(%rip),%rdi        # 114c0 <_IO_stdin_used+0x10c0>
    4ecd:	e8 9e fa ff ff       	callq  4970 <getenv@plt>
    4ed2:	48 89 ef             	mov    %rbp,%rdi
    4ed5:	48 89 c6             	mov    %rax,%rsi
    4ed8:	e8 d3 fc ff ff       	callq  4bb0 <_ZNSt7__cxx1112basic_stringIcSt11char_traitsIcESaIcEE6appendEPKc@plt>
    4edd:	48 8d 35 da c5 00 00 	lea    0xc5da(%rip),%rsi        # 114be <_IO_stdin_used+0x10be>
    4ee4:	48 89 c7             	mov    %rax,%rdi
    4ee7:	e8 c4 fc ff ff       	callq  4bb0 <_ZNSt7__cxx1112basic_stringIcSt11char_traitsIcESaIcEE6appendEPKc@plt>
    4eec:	48 8d 35 ed be 00 00 	lea    0xbeed(%rip),%rsi        # 10de0 <_IO_stdin_used+0x9e0>
    4ef3:	48 89 ef             	mov    %rbp,%rdi
    4ef6:	e8 b5 fc ff ff       	callq  4bb0 <_ZNSt7__cxx1112basic_stringIcSt11char_traitsIcESaIcEE6appendEPKc@plt>
    4efb:	48 8d 35 bc c5 00 00 	lea    0xc5bc(%rip),%rsi        # 114be <_IO_stdin_used+0x10be>
    4f02:	48 89 c7             	mov    %rax,%rdi
    4f05:	e8 a6 fc ff ff       	callq  4bb0 <_ZNSt7__cxx1112basic_stringIcSt11char_traitsIcESaIcEE6appendEPKc@plt>
    4f0a:	48 8d 3d bb c3 00 00 	lea    0xc3bb(%rip),%rdi        # 112cc <_IO_stdin_used+0xecc>
    4f11:	e8 5a fa ff ff       	callq  4970 <getenv@plt>
    4f16:	48 85 c0             	test   %rax,%rax
    4f19:	0f 84 f9 00 00 00    	je     5018 <main+0x408>
    4f1f:	48 8d 05 12 bf 00 00 	lea    0xbf12(%rip),%rax        # 10e38 <_IO_stdin_used+0xa38>
    4f26:	45 31 e4             	xor    %r12d,%r12d
    4f29:	49 bd ff ff ff ff ff 	movabs $0x7fffffffffffffff,%r13
    4f30:	ff ff 7f 
    4f33:	48 89 44 24 60       	mov    %rax,0x60(%rsp)
    4f38:	48 8d 05 19 bf 00 00 	lea    0xbf19(%rip),%rax        # 10e58 <_IO_stdin_used+0xa58>
    4f3f:	48 89 44 24 68       	mov    %rax,0x68(%rsp)
    4f44:	48 8d 05 2d bf 00 00 	lea    0xbf2d(%rip),%rax        # 10e78 <_IO_stdin_used+0xa78>
    4f4b:	48 89 44 24 70       	mov    %rax,0x70(%rsp)
    4f50:	48 8d 05 71 c5 00 00 	lea    0xc571(%rip),%rax        # 114c8 <_IO_stdin_used+0x10c8>
    4f57:	48 89 44 24 78       	mov    %rax,0x78(%rsp)
    4f5c:	48 8d 3d 69 c3 00 00 	lea    0xc369(%rip),%rdi        # 112cc <_IO_stdin_used+0xecc>
    4f63:	e8 08 fa ff ff       	callq  4970 <getenv@plt>
    4f68:	48 89 c7             	mov    %rax,%rdi
    4f6b:	49 89 c6             	mov    %rax,%r14
    4f6e:	e8 7d f7 ff ff       	callq  46f0 <strlen@plt>
    4f73:	4c 89 ea             	mov    %r13,%rdx
    4f76:	48 2b 54 24 48       	sub    0x48(%rsp),%rdx
    4f7b:	48 39 d0             	cmp    %rdx,%rax
    4f7e:	0f 87 e8 0e 00 00    	ja     5e6c <main+0x125c>
    4f84:	48 89 c2             	mov    %rax,%rdx
    4f87:	4c 89 f6             	mov    %r14,%rsi
    4f8a:	48 89 ef             	mov    %rbp,%rdi
    4f8d:	e8 0e f7 ff ff       	callq  46a0 <_ZNSt7__cxx1112basic_stringIcSt11char_traitsIcESaIcEE9_M_appendEPKcm@plt>
    4f92:	4c 39 6c 24 48       	cmp    %r13,0x48(%rsp)
    4f97:	0f 84 c3 0e 00 00    	je     5e60 <main+0x1250>
    4f9d:	48 8d 35 f5 ca 00 00 	lea    0xcaf5(%rip),%rsi        # 11a99 <_ZTS9ManParser+0x19>
    4fa4:	ba 01 00 00 00       	mov    $0x1,%edx
    4fa9:	48 89 ef             	mov    %rbp,%rdi
    4fac:	e8 ef f6 ff ff       	callq  46a0 <_ZNSt7__cxx1112basic_stringIcSt11char_traitsIcESaIcEE9_M_appendEPKcm@plt>
    4fb1:	4e 8b 74 e4 60       	mov    0x60(%rsp,%r12,8),%r14
    4fb6:	4c 89 f7             	mov    %r14,%rdi
    4fb9:	e8 32 f7 ff ff       	callq  46f0 <strlen@plt>
    4fbe:	4c 89 ea             	mov    %r13,%rdx
    4fc1:	48 2b 54 24 48       	sub    0x48(%rsp),%rdx
    4fc6:	48 39 d0             	cmp    %rdx,%rax
    4fc9:	0f 87 85 0e 00 00    	ja     5e54 <main+0x1244>
    4fcf:	48 89 c2             	mov    %rax,%rdx
    4fd2:	4c 89 f6             	mov    %r14,%rsi
    4fd5:	48 89 ef             	mov    %rbp,%rdi
    4fd8:	e8 c3 f6 ff ff       	callq  46a0 <_ZNSt7__cxx1112basic_stringIcSt11char_traitsIcESaIcEE9_M_appendEPKcm@plt>
    4fdd:	4c 39 68 08          	cmp    %r13,0x8(%rax)
    4fe1:	0f 84 b5 0e 00 00    	je     5e9c <main+0x128c>
    4fe7:	48 8d 35 d0 c4 00 00 	lea    0xc4d0(%rip),%rsi        # 114be <_IO_stdin_used+0x10be>
    4fee:	ba 01 00 00 00       	mov    $0x1,%edx
    4ff3:	48 89 c7             	mov    %rax,%rdi
    4ff6:	e8 a5 f6 ff ff       	callq  46a0 <_ZNSt7__cxx1112basic_stringIcSt11char_traitsIcESaIcEE9_M_appendEPKcm@plt>
    4ffb:	49 83 c4 01          	add    $0x1,%r12
    4fff:	49 83 fc 04          	cmp    $0x4,%r12
    5003:	0f 85 53 ff ff ff    	jne    4f5c <main+0x34c>
    5009:	48 8d 35 90 be 00 00 	lea    0xbe90(%rip),%rsi        # 10ea0 <_IO_stdin_used+0xaa0>
    5010:	48 89 ef             	mov    %rbp,%rdi
    5013:	e8 98 fb ff ff       	callq  4bb0 <_ZNSt7__cxx1112basic_stringIcSt11char_traitsIcESaIcEE6appendEPKc@plt>
    5018:	48 8b 7c 24 40       	mov    0x40(%rsp),%rdi
    501d:	e8 de f5 ff ff       	callq  4600 <_Z8mystrdupPKc@plt>
    5022:	48 8b 7c 24 40       	mov    0x40(%rsp),%rdi
    5027:	48 83 c5 10          	add    $0x10,%rbp
    502b:	48 89 05 f6 01 21 00 	mov    %rax,0x2101f6(%rip)        # 215228 <path>
    5032:	48 39 ef             	cmp    %rbp,%rdi
    5035:	74 05                	je     503c <main+0x42c>
    5037:	e8 c4 f7 ff ff       	callq  4800 <_ZdlPv@plt>
    503c:	8b 3d 6a 02 21 00    	mov    0x21026a(%rip),%edi        # 2152ac <showpath>
    5042:	85 ff                	test   %edi,%edi
    5044:	0f 85 c0 05 00 00    	jne    560a <main+0x9fa>
    504a:	48 83 3d 76 02 21 00 	cmpq   $0x0,0x210276(%rip)        # 2152c8 <privdicname>
    5051:	00 
    5052:	0f 84 b9 07 00 00    	je     5811 <main+0xc01>
    5058:	4c 8b 25 71 02 21 00 	mov    0x210271(%rip),%r12        # 2152d0 <dicname>
    505f:	be 2c 00 00 00       	mov    $0x2c,%esi
    5064:	4c 89 e7             	mov    %r12,%rdi
    5067:	e8 54 f6 ff ff       	callq  46c0 <strchr@plt>
    506c:	48 85 c0             	test   %rax,%rax
    506f:	48 89 c5             	mov    %rax,%rbp
    5072:	74 0a                	je     507e <main+0x46e>
    5074:	c6 00 00             	movb   $0x0,(%rax)
    5077:	4c 8b 25 52 02 21 00 	mov    0x210252(%rip),%r12        # 2152d0 <dicname>
    507e:	48 8b 3d a3 01 21 00 	mov    0x2101a3(%rip),%rdi        # 215228 <path>
    5085:	48 8d 15 67 c4 00 00 	lea    0xc467(%rip),%rdx        # 114f3 <_IO_stdin_used+0x10f3>
    508c:	4c 89 e6             	mov    %r12,%rsi
    508f:	e8 ac 27 00 00       	callq  7840 <_Z6searchPcS_PKc>
    5094:	48 8b 35 35 02 21 00 	mov    0x210235(%rip),%rsi        # 2152d0 <dicname>
    509b:	48 8b 3d 86 01 21 00 	mov    0x210186(%rip),%rdi        # 215228 <path>
    50a2:	48 8d 15 6c c1 00 00 	lea    0xc16c(%rip),%rdx        # 11215 <_IO_stdin_used+0xe15>
    50a9:	49 89 c6             	mov    %rax,%r14
    50ac:	e8 8f 27 00 00       	callq  7840 <_Z6searchPcS_PKc>
    50b1:	4d 85 f6             	test   %r14,%r14
    50b4:	49 89 c4             	mov    %rax,%r12
    50b7:	0f 84 23 0d 00 00    	je     5de0 <main+0x11d0>
    50bd:	48 85 c0             	test   %rax,%rax
    50c0:	0f 84 1a 0d 00 00    	je     5de0 <main+0x11d0>
    50c6:	8b 35 e0 01 21 00    	mov    0x2101e0(%rip),%esi        # 2152ac <showpath>
    50cc:	85 f6                	test   %esi,%esi
    50ce:	0f 85 bc 04 00 00    	jne    5590 <main+0x980>
    50d4:	bf 08 00 00 00       	mov    $0x8,%edi
    50d9:	e8 52 f7 ff ff       	callq  4830 <_Znwm@plt>
    50de:	4c 89 f9             	mov    %r15,%rcx
    50e1:	4c 89 e2             	mov    %r12,%rdx
    50e4:	4c 89 f6             	mov    %r14,%rsi
    50e7:	48 89 c7             	mov    %rax,%rdi
    50ea:	49 89 c5             	mov    %rax,%r13
    50ed:	e8 5e f7 ff ff       	callq  4850 <_ZN8HunspellC1EPKcS1_S1_@plt>
    50f2:	4c 89 ef             	mov    %r13,%rdi
    50f5:	4c 89 6c 24 60       	mov    %r13,0x60(%rsp)
    50fa:	e8 01 f6 ff ff       	callq  4700 <_ZNK8Hunspell17get_dict_encodingB5cxx11Ev@plt>
    50ff:	48 8b 00             	mov    (%rax),%rax
    5102:	48 85 ed             	test   %rbp,%rbp
    5105:	c7 05 11 01 21 00 01 	movl   $0x1,0x210111(%rip)        # 215220 <dmax>
    510c:	00 00 00 
    510f:	48 89 05 2a 01 21 00 	mov    %rax,0x21012a(%rip)        # 215240 <dic_enc>
    5116:	75 71                	jne    5189 <main+0x579>
    5118:	e9 17 01 00 00       	jmpq   5234 <main+0x624>
    511d:	0f 1f 00             	nopl   (%rax)
    5120:	bf 08 00 00 00       	mov    $0x8,%edi
    5125:	e8 06 f7 ff ff       	callq  4830 <_Znwm@plt>
    512a:	4c 89 f9             	mov    %r15,%rcx
    512d:	4c 89 e2             	mov    %r12,%rdx
    5130:	4c 89 f6             	mov    %r14,%rsi
    5133:	48 89 c7             	mov    %rax,%rdi
    5136:	49 89 c5             	mov    %rax,%r13
    5139:	e8 12 f7 ff ff       	callq  4850 <_ZN8HunspellC1EPKcS1_S1_@plt>
    513e:	48 63 05 db 00 21 00 	movslq 0x2100db(%rip),%rax        # 215220 <dmax>
    5145:	4c 89 ef             	mov    %r13,%rdi
    5148:	4c 89 6c c4 60       	mov    %r13,0x60(%rsp,%rax,8)
    514d:	e8 ae f5 ff ff       	callq  4700 <_ZNK8Hunspell17get_dict_encodingB5cxx11Ev@plt>
    5152:	8b 15 c8 00 21 00    	mov    0x2100c8(%rip),%edx        # 215220 <dmax>
    5158:	48 8b 08             	mov    (%rax),%rcx
    515b:	48 8d 35 de 00 21 00 	lea    0x2100de(%rip),%rsi        # 215240 <dic_enc>
    5162:	48 63 c2             	movslq %edx,%rax
    5165:	83 c2 01             	add    $0x1,%edx
    5168:	48 89 0c c6          	mov    %rcx,(%rsi,%rax,8)
    516c:	8b 0d 3a 01 21 00    	mov    0x21013a(%rip),%ecx        # 2152ac <showpath>
    5172:	89 15 a8 00 21 00    	mov    %edx,0x2100a8(%rip)        # 215220 <dmax>
    5178:	85 c9                	test   %ecx,%ecx
    517a:	0f 85 5d 04 00 00    	jne    55dd <main+0x9cd>
    5180:	48 85 ed             	test   %rbp,%rbp
    5183:	0f 84 ab 00 00 00    	je     5234 <main+0x624>
    5189:	4c 8d 6d 01          	lea    0x1(%rbp),%r13
    518d:	be 2c 00 00 00       	mov    $0x2c,%esi
    5192:	4c 89 ef             	mov    %r13,%rdi
    5195:	e8 26 f5 ff ff       	callq  46c0 <strchr@plt>
    519a:	48 85 c0             	test   %rax,%rax
    519d:	48 89 c5             	mov    %rax,%rbp
    51a0:	74 03                	je     51a5 <main+0x595>
    51a2:	c6 00 00             	movb   $0x0,(%rax)
    51a5:	4c 89 f7             	mov    %r14,%rdi
    51a8:	e8 a3 f7 ff ff       	callq  4950 <free@plt>
    51ad:	4c 89 e7             	mov    %r12,%rdi
    51b0:	e8 9b f7 ff ff       	callq  4950 <free@plt>
    51b5:	48 8b 3d 6c 00 21 00 	mov    0x21006c(%rip),%rdi        # 215228 <path>
    51bc:	48 8d 15 30 c3 00 00 	lea    0xc330(%rip),%rdx        # 114f3 <_IO_stdin_used+0x10f3>
    51c3:	4c 89 ee             	mov    %r13,%rsi
    51c6:	e8 75 26 00 00       	callq  7840 <_Z6searchPcS_PKc>
    51cb:	48 8b 3d 56 00 21 00 	mov    0x210056(%rip),%rdi        # 215228 <path>
    51d2:	48 8d 15 3c c0 00 00 	lea    0xc03c(%rip),%rdx        # 11215 <_IO_stdin_used+0xe15>
    51d9:	4c 89 ee             	mov    %r13,%rsi
    51dc:	49 89 c6             	mov    %rax,%r14
    51df:	e8 5c 26 00 00       	callq  7840 <_Z6searchPcS_PKc>
    51e4:	4d 85 f6             	test   %r14,%r14
    51e7:	49 89 c4             	mov    %rax,%r12
    51ea:	0f 84 30 03 00 00    	je     5520 <main+0x910>
    51f0:	48 85 c0             	test   %rax,%rax
    51f3:	0f 84 27 03 00 00    	je     5520 <main+0x910>
    51f9:	83 3d 20 00 21 00 09 	cmpl   $0x9,0x210020(%rip)        # 215220 <dmax>
    5200:	0f 8e 1a ff ff ff    	jle    5120 <main+0x510>
    5206:	48 8d 3d c3 be 00 00 	lea    0xbec3(%rip),%rdi        # 110d0 <_IO_stdin_used+0xcd0>
    520d:	e8 fe f3 ff ff       	callq  4610 <gettext@plt>
    5212:	48 8b 3d e7 ff 20 00 	mov    0x20ffe7(%rip),%rdi        # 215200 <stderr@@GLIBC_2.2.5>
    5219:	48 89 c2             	mov    %rax,%rdx
    521c:	4c 89 e9             	mov    %r13,%rcx
    521f:	be 01 00 00 00       	mov    $0x1,%esi
    5224:	31 c0                	xor    %eax,%eax
    5226:	e8 b5 f8 ff ff       	callq  4ae0 <__fprintf_chk@plt>
    522b:	48 85 ed             	test   %rbp,%rbp
    522e:	0f 85 55 ff ff ff    	jne    5189 <main+0x579>
    5234:	48 8d 3d 91 c0 00 00 	lea    0xc091(%rip),%rdi        # 112cc <_IO_stdin_used+0xecc>
    523b:	e8 30 f7 ff ff       	callq  4970 <getenv@plt>
    5240:	48 85 c0             	test   %rax,%rax
    5243:	0f 84 d5 00 00 00    	je     531e <main+0x70e>
    5249:	48 8d 3d 7c c0 00 00 	lea    0xc07c(%rip),%rdi        # 112cc <_IO_stdin_used+0xecc>
    5250:	e8 1b f7 ff ff       	callq  4970 <getenv@plt>
    5255:	4c 8b 7c 24 10       	mov    0x10(%rsp),%r15
    525a:	48 89 c6             	mov    %rax,%rsi
    525d:	4c 89 ff             	mov    %r15,%rdi
    5260:	e8 5b f9 ff ff       	callq  4bc0 <_ZNSt7__cxx1112basic_stringIcSt11char_traitsIcESaIcEE6assignEPKc@plt>
    5265:	48 8d 35 2d c8 00 00 	lea    0xc82d(%rip),%rsi        # 11a99 <_ZTS9ManParser+0x19>
    526c:	4c 89 ff             	mov    %r15,%rdi
    526f:	e8 3c f9 ff ff       	callq  4bb0 <_ZNSt7__cxx1112basic_stringIcSt11char_traitsIcESaIcEE6appendEPKc@plt>
    5274:	48 8d 35 56 c0 00 00 	lea    0xc056(%rip),%rsi        # 112d1 <_IO_stdin_used+0xed1>
    527b:	4c 89 ff             	mov    %r15,%rdi
    527e:	e8 2d f9 ff ff       	callq  4bb0 <_ZNSt7__cxx1112basic_stringIcSt11char_traitsIcESaIcEE6appendEPKc@plt>
    5283:	48 8b 3d 46 00 21 00 	mov    0x210046(%rip),%rdi        # 2152d0 <dicname>
    528a:	be 2f 00 00 00       	mov    $0x2f,%esi
    528f:	e8 4c 1d 00 00       	callq  6fe0 <_Z8basenamePKcc>
    5294:	4c 89 ff             	mov    %r15,%rdi
    5297:	48 89 c6             	mov    %rax,%rsi
    529a:	e8 11 f9 ff ff       	callq  4bb0 <_ZNSt7__cxx1112basic_stringIcSt11char_traitsIcESaIcEE6appendEPKc@plt>
    529f:	48 8b 74 24 60       	mov    0x60(%rsp),%rsi
    52a4:	48 8b 7c 24 20       	mov    0x20(%rsp),%rdi
    52a9:	e8 92 15 00 00       	callq  6840 <_Z12load_privdicPKcP8Hunspell>
    52ae:	48 8d 3d 17 c0 00 00 	lea    0xc017(%rip),%rdi        # 112cc <_IO_stdin_used+0xecc>
    52b5:	e8 b6 f6 ff ff       	callq  4970 <getenv@plt>
    52ba:	4c 89 ff             	mov    %r15,%rdi
    52bd:	48 89 c6             	mov    %rax,%rsi
    52c0:	e8 fb f8 ff ff       	callq  4bc0 <_ZNSt7__cxx1112basic_stringIcSt11char_traitsIcESaIcEE6assignEPKc@plt>
    52c5:	48 8d 35 cd c7 00 00 	lea    0xc7cd(%rip),%rsi        # 11a99 <_ZTS9ManParser+0x19>
    52cc:	4c 89 ff             	mov    %r15,%rdi
    52cf:	e8 dc f8 ff ff       	callq  4bb0 <_ZNSt7__cxx1112basic_stringIcSt11char_traitsIcESaIcEE6appendEPKc@plt>
    52d4:	48 8b 35 ed ff 20 00 	mov    0x20ffed(%rip),%rsi        # 2152c8 <privdicname>
    52db:	48 85 f6             	test   %rsi,%rsi
    52de:	0f 84 4d 05 00 00    	je     5831 <main+0xc21>
    52e4:	4c 8b 7c 24 10       	mov    0x10(%rsp),%r15
    52e9:	4c 89 ff             	mov    %r15,%rdi
    52ec:	e8 bf f8 ff ff       	callq  4bb0 <_ZNSt7__cxx1112basic_stringIcSt11char_traitsIcESaIcEE6appendEPKc@plt>
    52f1:	48 8b 74 24 60       	mov    0x60(%rsp),%rsi
    52f6:	48 8b 7c 24 20       	mov    0x20(%rsp),%rdi
    52fb:	e8 40 15 00 00       	callq  6840 <_Z12load_privdicPKcP8Hunspell>
    5300:	48 8b 35 c1 ff 20 00 	mov    0x20ffc1(%rip),%rsi        # 2152c8 <privdicname>
    5307:	4c 89 ff             	mov    %r15,%rdi
    530a:	e8 b1 f8 ff ff       	callq  4bc0 <_ZNSt7__cxx1112basic_stringIcSt11char_traitsIcESaIcEE6assignEPKc@plt>
    530f:	48 8b 74 24 60       	mov    0x60(%rsp),%rsi
    5314:	48 8b 7c 24 20       	mov    0x20(%rsp),%rdi
    5319:	e8 22 15 00 00       	callq  6840 <_Z12load_privdicPKcP8Hunspell>
    531e:	83 3d 8f ff 20 00 06 	cmpl   $0x6,0x20ff8f(%rip)        # 2152b4 <filter_mode>
    5325:	0f 84 99 04 00 00    	je     57c4 <main+0xbb4>
    532b:	83 7c 24 0c ff       	cmpl   $0xffffffff,0xc(%rsp)
    5330:	0f 84 bc 04 00 00    	je     57f2 <main+0xbe2>
    5336:	8b 15 78 ff 20 00    	mov    0x20ff78(%rip),%edx        # 2152b4 <filter_mode>
    533c:	85 d2                	test   %edx,%edx
    533e:	0f 84 79 02 00 00    	je     55bd <main+0x9ad>
    5344:	8b 4c 24 0c          	mov    0xc(%rsp),%ecx
    5348:	39 d9                	cmp    %ebx,%ecx
    534a:	0f 8d 7d 00 00 00    	jge    53cd <main+0x7bd>
    5350:	48 8b 54 24 18       	mov    0x18(%rsp),%rdx
    5355:	83 eb 01             	sub    $0x1,%ebx
    5358:	48 63 c1             	movslq %ecx,%rax
    535b:	29 cb                	sub    %ecx,%ebx
    535d:	4c 8d 7c 24 60       	lea    0x60(%rsp),%r15
    5362:	48 8d 2c c2          	lea    (%rdx,%rax,8),%rbp
    5366:	48 01 d8             	add    %rbx,%rax
    5369:	4c 8d 6c c2 08       	lea    0x8(%rdx,%rax,8),%r13
    536e:	66 90                	xchg   %ax,%ax
    5370:	48 8b 7d 00          	mov    0x0(%rbp),%rdi
    5374:	e8 e7 17 00 00       	callq  6b60 <_Z5existPKc>
    5379:	84 c0                	test   %al,%al
    537b:	48 8b 5d 00          	mov    0x0(%rbp),%rbx
    537f:	0f 84 a7 09 00 00    	je     5d2c <main+0x111c>
    5385:	48 89 1d 34 ff 20 00 	mov    %rbx,0x20ff34(%rip)        # 2152c0 <currentfilename>
    538c:	48 8b 7d 00          	mov    0x0(%rbp),%rdi
    5390:	48 8d 35 cb c0 00 00 	lea    0xc0cb(%rip),%rsi        # 11462 <_IO_stdin_used+0x1062>
    5397:	c7 05 1b ff 20 00 00 	movl   $0x0,0x20ff1b(%rip)        # 2152bc <modified>
    539e:	00 00 00 
    53a1:	e8 8a f5 ff ff       	callq  4930 <fopen@plt>
    53a6:	48 8b 4d 00          	mov    0x0(%rbp),%rcx
    53aa:	8b 74 24 08          	mov    0x8(%rsp),%esi
    53ae:	48 89 c2             	mov    %rax,%rdx
    53b1:	4c 89 ff             	mov    %r15,%rdi
    53b4:	48 89 c3             	mov    %rax,%rbx
    53b7:	e8 44 36 00 00       	callq  8a00 <_Z14pipe_interfacePP8HunspelliP8_IO_FILEPc>
    53bc:	48 89 df             	mov    %rbx,%rdi
    53bf:	e8 5c f4 ff ff       	callq  4820 <fclose@plt>
    53c4:	48 83 c5 08          	add    $0x8,%rbp
    53c8:	49 39 ed             	cmp    %rbp,%r13
    53cb:	75 a3                	jne    5370 <main+0x760>
    53cd:	48 8b 3d fc fe 20 00 	mov    0x20fefc(%rip),%rdi        # 2152d0 <dicname>
    53d4:	48 85 ff             	test   %rdi,%rdi
    53d7:	74 05                	je     53de <main+0x7ce>
    53d9:	e8 72 f5 ff ff       	callq  4950 <free@plt>
    53de:	48 8b 3d e3 fe 20 00 	mov    0x20fee3(%rip),%rdi        # 2152c8 <privdicname>
    53e5:	48 85 ff             	test   %rdi,%rdi
    53e8:	74 05                	je     53ef <main+0x7df>
    53ea:	e8 61 f5 ff ff       	callq  4950 <free@plt>
    53ef:	48 8b 3d 32 fe 20 00 	mov    0x20fe32(%rip),%rdi        # 215228 <path>
    53f6:	48 85 ff             	test   %rdi,%rdi
    53f9:	74 05                	je     5400 <main+0x7f0>
    53fb:	e8 50 f5 ff ff       	callq  4950 <free@plt>
    5400:	4d 85 f6             	test   %r14,%r14
    5403:	74 08                	je     540d <main+0x7fd>
    5405:	4c 89 f7             	mov    %r14,%rdi
    5408:	e8 43 f5 ff ff       	callq  4950 <free@plt>
    540d:	4d 85 e4             	test   %r12,%r12
    5410:	74 08                	je     541a <main+0x80a>
    5412:	4c 89 e7             	mov    %r12,%rdi
    5415:	e8 36 f5 ff ff       	callq  4950 <free@plt>
    541a:	e8 21 f3 ff ff       	callq  4740 <_Z12free_utf_tblv@plt>
    541f:	8b 05 fb fd 20 00    	mov    0x20fdfb(%rip),%eax        # 215220 <dmax>
    5425:	85 c0                	test   %eax,%eax
    5427:	7e 3c                	jle    5465 <main+0x855>
    5429:	4c 8d 6c 24 60       	lea    0x60(%rsp),%r13
    542e:	bb 01 00 00 00       	mov    $0x1,%ebx
    5433:	0f 1f 44 00 00       	nopl   0x0(%rax,%rax,1)
    5438:	49 8b 6c dd f8       	mov    -0x8(%r13,%rbx,8),%rbp
    543d:	48 85 ed             	test   %rbp,%rbp
    5440:	74 15                	je     5457 <main+0x847>
    5442:	48 89 ef             	mov    %rbp,%rdi
    5445:	e8 66 f6 ff ff       	callq  4ab0 <_ZN8HunspellD1Ev@plt>
    544a:	be 08 00 00 00       	mov    $0x8,%esi
    544f:	48 89 ef             	mov    %rbp,%rdi
    5452:	e8 09 f4 ff ff       	callq  4860 <_ZdlPvm@plt>
    5457:	89 d8                	mov    %ebx,%eax
    5459:	48 83 c3 01          	add    $0x1,%rbx
    545d:	39 05 bd fd 20 00    	cmp    %eax,0x20fdbd(%rip)        # 215220 <dmax>
    5463:	7f d3                	jg     5438 <main+0x828>
    5465:	48 8b 44 24 10       	mov    0x10(%rsp),%rax
    546a:	48 8b 7c 24 20       	mov    0x20(%rsp),%rdi
    546f:	48 83 c0 10          	add    $0x10,%rax
    5473:	48 39 c7             	cmp    %rax,%rdi
    5476:	74 05                	je     547d <main+0x86d>
    5478:	e8 83 f3 ff ff       	callq  4800 <_ZdlPv@plt>
    547d:	31 c0                	xor    %eax,%eax
    547f:	48 8b 8c 24 b8 00 00 	mov    0xb8(%rsp),%rcx
    5486:	00 
    5487:	64 48 33 0c 25 28 00 	xor    %fs:0x28,%rcx
    548e:	00 00 
    5490:	0f 85 e2 09 00 00    	jne    5e78 <main+0x1268>
    5496:	48 81 c4 c8 00 00 00 	add    $0xc8,%rsp
    549d:	5b                   	pop    %rbx
    549e:	5d                   	pop    %rbp
    549f:	41 5c                	pop    %r12
    54a1:	41 5d                	pop    %r13
    54a3:	41 5e                	pop    %r14
    54a5:	41 5f                	pop    %r15
    54a7:	c3                   	retq   
    54a8:	c7 44 24 08 00 00 00 	movl   $0x0,0x8(%rsp)
    54af:	00 
    54b0:	c7 44 24 0c ff ff ff 	movl   $0xffffffff,0xc(%rsp)
    54b7:	ff 
    54b8:	45 31 ff             	xor    %r15d,%r15d
    54bb:	31 c0                	xor    %eax,%eax
    54bd:	e9 90 f9 ff ff       	jmpq   4e52 <main+0x242>
    54c2:	66 0f 1f 44 00 00    	nopw   0x0(%rax,%rax,1)
    54c8:	48 8b 3d f9 fd 20 00 	mov    0x20fdf9(%rip),%rdi        # 2152c8 <privdicname>
    54cf:	48 85 ff             	test   %rdi,%rdi
    54d2:	74 05                	je     54d9 <main+0x8c9>
    54d4:	e8 77 f4 ff ff       	callq  4950 <free@plt>
    54d9:	49 8b 3c 24          	mov    (%r12),%rdi
    54dd:	e8 1e f1 ff ff       	callq  4600 <_Z8mystrdupPKc@plt>
    54e2:	48 89 05 df fd 20 00 	mov    %rax,0x20fddf(%rip)        # 2152c8 <privdicname>
    54e9:	31 ed                	xor    %ebp,%ebp
    54eb:	e9 33 f9 ff ff       	jmpq   4e23 <main+0x213>
    54f0:	4c 89 35 99 fd 20 00 	mov    %r14,0x20fd99(%rip)        # 215290 <io_enc>
    54f7:	31 ed                	xor    %ebp,%ebp
    54f9:	e9 25 f9 ff ff       	jmpq   4e23 <main+0x213>
    54fe:	66 90                	xchg   %ax,%ax
    5500:	4d 89 f7             	mov    %r14,%r15
    5503:	31 ed                	xor    %ebp,%ebp
    5505:	e9 19 f9 ff ff       	jmpq   4e23 <main+0x213>
    550a:	66 0f 1f 44 00 00    	nopw   0x0(%rax,%rax,1)
    5510:	bd 01 00 00 00       	mov    $0x1,%ebp
    5515:	e9 09 f9 ff ff       	jmpq   4e23 <main+0x213>
    551a:	66 0f 1f 44 00 00    	nopw   0x0(%rax,%rax,1)
    5520:	4d 85 e4             	test   %r12,%r12
    5523:	0f 84 57 fc ff ff    	je     5180 <main+0x570>
    5529:	8b 05 f1 fc 20 00    	mov    0x20fcf1(%rip),%eax        # 215220 <dmax>
    552f:	31 d2                	xor    %edx,%edx
    5531:	4c 89 e6             	mov    %r12,%rsi
    5534:	83 e8 01             	sub    $0x1,%eax
    5537:	48 98                	cltq   
    5539:	48 8b 7c c4 60       	mov    0x60(%rsp,%rax,8),%rdi
    553e:	e8 0d f6 ff ff       	callq  4b50 <_ZN8Hunspell7add_dicEPKcS1_@plt>
    5543:	e9 38 fc ff ff       	jmpq   5180 <main+0x570>
    5548:	0f 1f 84 00 00 00 00 	nopl   0x0(%rax,%rax,1)
    554f:	00 
    5550:	bd 02 00 00 00       	mov    $0x2,%ebp
    5555:	e9 c9 f8 ff ff       	jmpq   4e23 <main+0x213>
    555a:	66 0f 1f 44 00 00    	nopw   0x0(%rax,%rax,1)
    5560:	bd 03 00 00 00       	mov    $0x3,%ebp
    5565:	e9 b9 f8 ff ff       	jmpq   4e23 <main+0x213>
    556a:	bd 04 00 00 00       	mov    $0x4,%ebp
    556f:	e9 af f8 ff ff       	jmpq   4e23 <main+0x213>
    5574:	83 3d 39 fd 20 00 00 	cmpl   $0x0,0x20fd39(%rip)        # 2152b4 <filter_mode>
    557b:	0f 85 e7 f8 ff ff    	jne    4e68 <main+0x258>
    5581:	c7 05 29 fd 20 00 01 	movl   $0x1,0x20fd29(%rip)        # 2152b4 <filter_mode>
    5588:	00 00 00 
    558b:	e9 d8 f8 ff ff       	jmpq   4e68 <main+0x258>
    5590:	48 8d 3d 61 bf 00 00 	lea    0xbf61(%rip),%rdi        # 114f8 <_IO_stdin_used+0x10f8>
    5597:	e8 74 f0 ff ff       	callq  4610 <gettext@plt>
    559c:	48 8b 3d 5d fc 20 00 	mov    0x20fc5d(%rip),%rdi        # 215200 <stderr@@GLIBC_2.2.5>
    55a3:	48 89 c2             	mov    %rax,%rdx
    55a6:	4d 89 e0             	mov    %r12,%r8
    55a9:	4c 89 f1             	mov    %r14,%rcx
    55ac:	be 01 00 00 00       	mov    $0x1,%esi
    55b1:	31 c0                	xor    %eax,%eax
    55b3:	e8 28 f5 ff ff       	callq  4ae0 <__fprintf_chk@plt>
    55b8:	e9 17 fb ff ff       	jmpq   50d4 <main+0x4c4>
    55bd:	48 8d 3d 7c bb 00 00 	lea    0xbb7c(%rip),%rdi        # 11140 <_IO_stdin_used+0xd40>
    55c4:	e8 47 f0 ff ff       	callq  4610 <gettext@plt>
    55c9:	48 8b 35 30 fc 20 00 	mov    0x20fc30(%rip),%rsi        # 215200 <stderr@@GLIBC_2.2.5>
    55d0:	48 89 c7             	mov    %rax,%rdi
    55d3:	e8 d8 f2 ff ff       	callq  48b0 <fputs@plt>
    55d8:	e9 f0 fd ff ff       	jmpq   53cd <main+0x7bd>
    55dd:	48 8d 3d 14 bf 00 00 	lea    0xbf14(%rip),%rdi        # 114f8 <_IO_stdin_used+0x10f8>
    55e4:	e8 27 f0 ff ff       	callq  4610 <gettext@plt>
    55e9:	48 8b 3d 10 fc 20 00 	mov    0x20fc10(%rip),%rdi        # 215200 <stderr@@GLIBC_2.2.5>
    55f0:	48 89 c2             	mov    %rax,%rdx
    55f3:	4d 89 e0             	mov    %r12,%r8
    55f6:	4c 89 f1             	mov    %r14,%rcx
    55f9:	be 01 00 00 00       	mov    $0x1,%esi
    55fe:	31 c0                	xor    %eax,%eax
    5600:	e8 db f4 ff ff       	callq  4ae0 <__fprintf_chk@plt>
    5605:	e9 76 fb ff ff       	jmpq   5180 <main+0x570>
    560a:	48 8d 3d c8 be 00 00 	lea    0xbec8(%rip),%rdi        # 114d9 <_IO_stdin_used+0x10d9>
    5611:	48 8b 2d 10 fc 20 00 	mov    0x20fc10(%rip),%rbp        # 215228 <path>
    5618:	e8 f3 ef ff ff       	callq  4610 <gettext@plt>
    561d:	48 8b 3d dc fb 20 00 	mov    0x20fbdc(%rip),%rdi        # 215200 <stderr@@GLIBC_2.2.5>
    5624:	48 89 c2             	mov    %rax,%rdx
    5627:	48 89 e9             	mov    %rbp,%rcx
    562a:	be 01 00 00 00       	mov    $0x1,%esi
    562f:	31 c0                	xor    %eax,%eax
    5631:	e8 aa f4 ff ff       	callq  4ae0 <__fprintf_chk@plt>
    5636:	48 8d 3d 53 ba 00 00 	lea    0xba53(%rip),%rdi        # 11090 <_IO_stdin_used+0xc90>
    563d:	e8 ce ef ff ff       	callq  4610 <gettext@plt>
    5642:	48 8b 35 b7 fb 20 00 	mov    0x20fbb7(%rip),%rsi        # 215200 <stderr@@GLIBC_2.2.5>
    5649:	48 89 c7             	mov    %rax,%rdi
    564c:	e8 5f f2 ff ff       	callq  48b0 <fputs@plt>
    5651:	48 8b 3d d0 fb 20 00 	mov    0x20fbd0(%rip),%rdi        # 215228 <path>
    5658:	31 d2                	xor    %edx,%edx
    565a:	31 f6                	xor    %esi,%esi
    565c:	e8 df 21 00 00       	callq  7840 <_Z6searchPcS_PKc>
    5661:	83 7c 24 0c ff       	cmpl   $0xffffffff,0xc(%rsp)
    5666:	0f 85 de f9 ff ff    	jne    504a <main+0x43a>
    566c:	31 ff                	xor    %edi,%edi
    566e:	e8 ed f2 ff ff       	callq  4960 <exit@plt>
    5673:	48 8d 3d 09 be 00 00 	lea    0xbe09(%rip),%rdi        # 11483 <_IO_stdin_used+0x1083>
    567a:	e8 f1 f2 ff ff       	callq  4970 <getenv@plt>
    567f:	48 85 c0             	test   %rax,%rax
    5682:	48 89 05 47 fc 20 00 	mov    %rax,0x20fc47(%rip)        # 2152d0 <dicname>
    5689:	74 47                	je     56d2 <main+0xac2>
    568b:	48 89 c7             	mov    %rax,%rdi
    568e:	e8 6d ef ff ff       	callq  4600 <_Z8mystrdupPKc@plt>
    5693:	48 89 05 36 fc 20 00 	mov    %rax,0x20fc36(%rip)        # 2152d0 <dicname>
    569a:	e9 d7 f7 ff ff       	jmpq   4e76 <main+0x266>
    569f:	48 8d 35 83 bd 00 00 	lea    0xbd83(%rip),%rsi        # 11429 <_IO_stdin_used+0x1029>
    56a6:	4c 89 f7             	mov    %r14,%rdi
    56a9:	e8 22 f3 ff ff       	callq  49d0 <strcmp@plt>
    56ae:	85 c0                	test   %eax,%eax
    56b0:	0f 85 db 00 00 00    	jne    5791 <main+0xb81>
    56b6:	83 3d f7 fb 20 00 06 	cmpl   $0x6,0x20fbf7(%rip)        # 2152b4 <filter_mode>
    56bd:	0f 84 60 f7 ff ff    	je     4e23 <main+0x213>
    56c3:	c7 05 e7 fb 20 00 05 	movl   $0x5,0x20fbe7(%rip)        # 2152b4 <filter_mode>
    56ca:	00 00 00 
    56cd:	e9 51 f7 ff ff       	jmpq   4e23 <main+0x213>
    56d2:	48 8d 05 b5 bd 00 00 	lea    0xbdb5(%rip),%rax        # 1148e <_IO_stdin_used+0x108e>
    56d9:	4c 8d 6c 24 60       	lea    0x60(%rsp),%r13
    56de:	31 ed                	xor    %ebp,%ebp
    56e0:	48 89 44 24 60       	mov    %rax,0x60(%rsp)
    56e5:	48 8d 05 a9 bd 00 00 	lea    0xbda9(%rip),%rax        # 11495 <_IO_stdin_used+0x1095>
    56ec:	48 89 44 24 68       	mov    %rax,0x68(%rsp)
    56f1:	48 8d 05 a9 bd 00 00 	lea    0xbda9(%rip),%rax        # 114a1 <_IO_stdin_used+0x10a1>
    56f8:	48 89 44 24 70       	mov    %rax,0x70(%rsp)
    56fd:	49 8b 7c ed 00       	mov    0x0(%r13,%rbp,8),%rdi
    5702:	e8 69 f2 ff ff       	callq  4970 <getenv@plt>
    5707:	48 85 c0             	test   %rax,%rax
    570a:	48 89 05 bf fb 20 00 	mov    %rax,0x20fbbf(%rip)        # 2152d0 <dicname>
    5711:	74 09                	je     571c <main+0xb0c>
    5713:	80 38 00             	cmpb   $0x0,(%rax)
    5716:	0f 85 a9 05 00 00    	jne    5cc5 <main+0x10b5>
    571c:	48 83 c5 01          	add    $0x1,%rbp
    5720:	48 83 fd 03          	cmp    $0x3,%rbp
    5724:	75 d7                	jne    56fd <main+0xaed>
    5726:	4c 8b 25 a3 fb 20 00 	mov    0x20fba3(%rip),%r12        # 2152d0 <dicname>
    572d:	4d 85 e4             	test   %r12,%r12
    5730:	74 4e                	je     5780 <main+0xb70>
    5732:	48 8d 35 75 bd 00 00 	lea    0xbd75(%rip),%rsi        # 114ae <_IO_stdin_used+0x10ae>
    5739:	4c 89 e7             	mov    %r12,%rdi
    573c:	e8 8f f2 ff ff       	callq  49d0 <strcmp@plt>
    5741:	85 c0                	test   %eax,%eax
    5743:	74 17                	je     575c <main+0xb4c>
    5745:	48 8d 35 64 bd 00 00 	lea    0xbd64(%rip),%rsi        # 114b0 <_IO_stdin_used+0x10b0>
    574c:	4c 89 e7             	mov    %r12,%rdi
    574f:	e8 7c f2 ff ff       	callq  49d0 <strcmp@plt>
    5754:	85 c0                	test   %eax,%eax
    5756:	0f 85 1a f7 ff ff    	jne    4e76 <main+0x266>
    575c:	4c 89 e7             	mov    %r12,%rdi
    575f:	e8 ec f1 ff ff       	callq  4950 <free@plt>
    5764:	48 8d 3d 4b bd 00 00 	lea    0xbd4b(%rip),%rdi        # 114b6 <_IO_stdin_used+0x10b6>
    576b:	e8 90 ee ff ff       	callq  4600 <_Z8mystrdupPKc@plt>
    5770:	48 85 c0             	test   %rax,%rax
    5773:	48 89 05 56 fb 20 00 	mov    %rax,0x20fb56(%rip)        # 2152d0 <dicname>
    577a:	0f 85 f6 f6 ff ff    	jne    4e76 <main+0x266>
    5780:	48 8d 3d 1f bd 00 00 	lea    0xbd1f(%rip),%rdi        # 114a6 <_IO_stdin_used+0x10a6>
    5787:	e8 74 ee ff ff       	callq  4600 <_Z8mystrdupPKc@plt>
    578c:	e9 02 ff ff ff       	jmpq   5693 <main+0xa83>
    5791:	48 8d 35 94 bc 00 00 	lea    0xbc94(%rip),%rsi        # 1142c <_IO_stdin_used+0x102c>
    5798:	4c 89 f7             	mov    %r14,%rdi
    579b:	e8 30 f2 ff ff       	callq  49d0 <strcmp@plt>
    57a0:	85 c0                	test   %eax,%eax
    57a2:	0f 85 be 00 00 00    	jne    5866 <main+0xc56>
    57a8:	83 3d 05 fb 20 00 06 	cmpl   $0x6,0x20fb05(%rip)        # 2152b4 <filter_mode>
    57af:	0f 84 6e f6 ff ff    	je     4e23 <main+0x213>
    57b5:	c7 05 f5 fa 20 00 04 	movl   $0x4,0x20faf5(%rip)        # 2152b4 <filter_mode>
    57bc:	00 00 00 
    57bf:	e9 5f f6 ff ff       	jmpq   4e23 <main+0x213>
    57c4:	48 8b 0d 15 fa 20 00 	mov    0x20fa15(%rip),%rcx        # 2151e0 <stdout@@GLIBC_2.2.5>
    57cb:	48 8d 3d 56 b4 00 00 	lea    0xb456(%rip),%rdi        # 10c28 <_IO_stdin_used+0x828>
    57d2:	ba 45 00 00 00       	mov    $0x45,%edx
    57d7:	be 01 00 00 00       	mov    $0x1,%esi
    57dc:	e8 ff f3 ff ff       	callq  4be0 <fwrite@plt>
    57e1:	48 8b 3d f8 f9 20 00 	mov    0x20f9f8(%rip),%rdi        # 2151e0 <stdout@@GLIBC_2.2.5>
    57e8:	e8 33 f1 ff ff       	callq  4920 <fflush@plt>
    57ed:	e9 39 fb ff ff       	jmpq   532b <main+0x71b>
    57f2:	4c 8d 6c 24 60       	lea    0x60(%rsp),%r13
    57f7:	48 8b 15 f2 f9 20 00 	mov    0x20f9f2(%rip),%rdx        # 2151f0 <stdin@@GLIBC_2.2.5>
    57fe:	8b 74 24 08          	mov    0x8(%rsp),%esi
    5802:	31 c9                	xor    %ecx,%ecx
    5804:	4c 89 ef             	mov    %r13,%rdi
    5807:	e8 f4 31 00 00       	callq  8a00 <_Z14pipe_interfacePP8HunspelliP8_IO_FILEPc>
    580c:	e9 bc fb ff ff       	jmpq   53cd <main+0x7bd>
    5811:	48 8d 3d d2 bc 00 00 	lea    0xbcd2(%rip),%rdi        # 114ea <_IO_stdin_used+0x10ea>
    5818:	e8 53 f1 ff ff       	callq  4970 <getenv@plt>
    581d:	48 89 c7             	mov    %rax,%rdi
    5820:	e8 db ed ff ff       	callq  4600 <_Z8mystrdupPKc@plt>
    5825:	48 89 05 9c fa 20 00 	mov    %rax,0x20fa9c(%rip)        # 2152c8 <privdicname>
    582c:	e9 27 f8 ff ff       	jmpq   5058 <main+0x448>
    5831:	4c 8b 7c 24 10       	mov    0x10(%rsp),%r15
    5836:	48 8d 35 94 ba 00 00 	lea    0xba94(%rip),%rsi        # 112d1 <_IO_stdin_used+0xed1>
    583d:	4c 89 ff             	mov    %r15,%rdi
    5840:	e8 7b f3 ff ff       	callq  4bc0 <_ZNSt7__cxx1112basic_stringIcSt11char_traitsIcESaIcEE6assignEPKc@plt>
    5845:	48 8b 3d 84 fa 20 00 	mov    0x20fa84(%rip),%rdi        # 2152d0 <dicname>
    584c:	be 2f 00 00 00       	mov    $0x2f,%esi
    5851:	e8 8a 17 00 00       	callq  6fe0 <_Z8basenamePKcc>
    5856:	4c 89 ff             	mov    %r15,%rdi
    5859:	48 89 c6             	mov    %rax,%rsi
    585c:	e8 4f f3 ff ff       	callq  4bb0 <_ZNSt7__cxx1112basic_stringIcSt11char_traitsIcESaIcEE6appendEPKc@plt>
    5861:	e9 a9 fa ff ff       	jmpq   530f <main+0x6ff>
    5866:	48 8d 35 c2 bb 00 00 	lea    0xbbc2(%rip),%rsi        # 1142f <_IO_stdin_used+0x102f>
    586d:	4c 89 f7             	mov    %r14,%rdi
    5870:	e8 5b f1 ff ff       	callq  49d0 <strcmp@plt>
    5875:	85 c0                	test   %eax,%eax
    5877:	0f 84 99 00 00 00    	je     5916 <main+0xd06>
    587d:	48 8d 35 ae bb 00 00 	lea    0xbbae(%rip),%rsi        # 11432 <_IO_stdin_used+0x1032>
    5884:	4c 89 f7             	mov    %r14,%rdi
    5887:	e8 44 f1 ff ff       	callq  49d0 <strcmp@plt>
    588c:	85 c0                	test   %eax,%eax
    588e:	0f 84 7a 04 00 00    	je     5d0e <main+0x10fe>
    5894:	48 8d 35 9a bb 00 00 	lea    0xbb9a(%rip),%rsi        # 11435 <_IO_stdin_used+0x1035>
    589b:	4c 89 f7             	mov    %r14,%rdi
    589e:	e8 2d f1 ff ff       	callq  49d0 <strcmp@plt>
    58a3:	85 c0                	test   %eax,%eax
    58a5:	0f 84 70 04 00 00    	je     5d1b <main+0x110b>
    58ab:	48 8d 35 86 bb 00 00 	lea    0xbb86(%rip),%rsi        # 11438 <_IO_stdin_used+0x1038>
    58b2:	4c 89 f7             	mov    %r14,%rdi
    58b5:	e8 16 f1 ff ff       	callq  49d0 <strcmp@plt>
    58ba:	85 c0                	test   %eax,%eax
    58bc:	0f 84 a6 04 00 00    	je     5d68 <main+0x1158>
    58c2:	48 8d 35 72 bb 00 00 	lea    0xbb72(%rip),%rsi        # 1143b <_IO_stdin_used+0x103b>
    58c9:	4c 89 f7             	mov    %r14,%rdi
    58cc:	e8 ff f0 ff ff       	callq  49d0 <strcmp@plt>
    58d1:	85 c0                	test   %eax,%eax
    58d3:	0f 84 82 04 00 00    	je     5d5b <main+0x114b>
    58d9:	48 8d 35 5e bb 00 00 	lea    0xbb5e(%rip),%rsi        # 1143e <_IO_stdin_used+0x103e>
    58e0:	4c 89 f7             	mov    %r14,%rdi
    58e3:	e8 e8 f0 ff ff       	callq  49d0 <strcmp@plt>
    58e8:	85 c0                	test   %eax,%eax
    58ea:	0f 84 b4 04 00 00    	je     5da4 <main+0x1194>
    58f0:	48 8d 35 4a bb 00 00 	lea    0xbb4a(%rip),%rsi        # 11441 <_IO_stdin_used+0x1041>
    58f7:	4c 89 f7             	mov    %r14,%rdi
    58fa:	e8 d1 f0 ff ff       	callq  49d0 <strcmp@plt>
    58ff:	85 c0                	test   %eax,%eax
    5901:	0f 85 6e 04 00 00    	jne    5d75 <main+0x1165>
    5907:	c7 05 a3 f9 20 00 01 	movl   $0x1,0x20f9a3(%rip)        # 2152b4 <filter_mode>
    590e:	00 00 00 
    5911:	e9 0d f5 ff ff       	jmpq   4e23 <main+0x213>
    5916:	83 3d 97 f9 20 00 06 	cmpl   $0x6,0x20f997(%rip)        # 2152b4 <filter_mode>
    591d:	0f 84 00 f5 ff ff    	je     4e23 <main+0x213>
    5923:	c7 05 87 f9 20 00 0b 	movl   $0xb,0x20f987(%rip)        # 2152b4 <filter_mode>
    592a:	00 00 00 
    592d:	e9 f1 f4 ff ff       	jmpq   4e23 <main+0x213>
    5932:	48 8d 3d 07 ac 00 00 	lea    0xac07(%rip),%rdi        # 10540 <_IO_stdin_used+0x140>
    5939:	e8 d2 ec ff ff       	callq  4610 <gettext@plt>
    593e:	48 8b 35 bb f8 20 00 	mov    0x20f8bb(%rip),%rsi        # 215200 <stderr@@GLIBC_2.2.5>
    5945:	48 89 c7             	mov    %rax,%rdi
    5948:	e8 63 ef ff ff       	callq  48b0 <fputs@plt>
    594d:	48 8d 3d 14 ac 00 00 	lea    0xac14(%rip),%rdi        # 10568 <_IO_stdin_used+0x168>
    5954:	e8 b7 ec ff ff       	callq  4610 <gettext@plt>
    5959:	48 8b 35 a0 f8 20 00 	mov    0x20f8a0(%rip),%rsi        # 215200 <stderr@@GLIBC_2.2.5>
    5960:	48 89 c7             	mov    %rax,%rdi
    5963:	e8 48 ef ff ff       	callq  48b0 <fputs@plt>
    5968:	48 8d 3d 41 ac 00 00 	lea    0xac41(%rip),%rdi        # 105b0 <_IO_stdin_used+0x1b0>
    596f:	e8 9c ec ff ff       	callq  4610 <gettext@plt>
    5974:	48 8b 35 85 f8 20 00 	mov    0x20f885(%rip),%rsi        # 215200 <stderr@@GLIBC_2.2.5>
    597b:	48 89 c7             	mov    %rax,%rdi
    597e:	e8 2d ef ff ff       	callq  48b0 <fputs@plt>
    5983:	48 8d 3d 66 ac 00 00 	lea    0xac66(%rip),%rdi        # 105f0 <_IO_stdin_used+0x1f0>
    598a:	e8 81 ec ff ff       	callq  4610 <gettext@plt>
    598f:	48 8b 35 6a f8 20 00 	mov    0x20f86a(%rip),%rsi        # 215200 <stderr@@GLIBC_2.2.5>
    5996:	48 89 c7             	mov    %rax,%rdi
    5999:	e8 12 ef ff ff       	callq  48b0 <fputs@plt>
    599e:	48 8d 3d 6b ac 00 00 	lea    0xac6b(%rip),%rdi        # 10610 <_IO_stdin_used+0x210>
    59a5:	e8 66 ec ff ff       	callq  4610 <gettext@plt>
    59aa:	48 8b 35 4f f8 20 00 	mov    0x20f84f(%rip),%rsi        # 215200 <stderr@@GLIBC_2.2.5>
    59b1:	48 89 c7             	mov    %rax,%rdi
    59b4:	e8 f7 ee ff ff       	callq  48b0 <fputs@plt>
    59b9:	48 8d 3d 90 ac 00 00 	lea    0xac90(%rip),%rdi        # 10650 <_IO_stdin_used+0x250>
    59c0:	e8 4b ec ff ff       	callq  4610 <gettext@plt>
    59c5:	48 8b 35 34 f8 20 00 	mov    0x20f834(%rip),%rsi        # 215200 <stderr@@GLIBC_2.2.5>
    59cc:	48 89 c7             	mov    %rax,%rdi
    59cf:	e8 dc ee ff ff       	callq  48b0 <fputs@plt>
    59d4:	48 8d 3d b5 ac 00 00 	lea    0xacb5(%rip),%rdi        # 10690 <_IO_stdin_used+0x290>
    59db:	e8 30 ec ff ff       	callq  4610 <gettext@plt>
    59e0:	48 8b 35 19 f8 20 00 	mov    0x20f819(%rip),%rsi        # 215200 <stderr@@GLIBC_2.2.5>
    59e7:	48 89 c7             	mov    %rax,%rdi
    59ea:	e8 c1 ee ff ff       	callq  48b0 <fputs@plt>
    59ef:	48 8d 3d ca ac 00 00 	lea    0xacca(%rip),%rdi        # 106c0 <_IO_stdin_used+0x2c0>
    59f6:	e8 15 ec ff ff       	callq  4610 <gettext@plt>
    59fb:	48 8b 35 fe f7 20 00 	mov    0x20f7fe(%rip),%rsi        # 215200 <stderr@@GLIBC_2.2.5>
    5a02:	48 89 c7             	mov    %rax,%rdi
    5a05:	e8 a6 ee ff ff       	callq  48b0 <fputs@plt>
    5a0a:	48 8d 3d d7 ac 00 00 	lea    0xacd7(%rip),%rdi        # 106e8 <_IO_stdin_used+0x2e8>
    5a11:	e8 fa eb ff ff       	callq  4610 <gettext@plt>
    5a16:	48 8b 35 e3 f7 20 00 	mov    0x20f7e3(%rip),%rsi        # 215200 <stderr@@GLIBC_2.2.5>
    5a1d:	48 89 c7             	mov    %rax,%rdi
    5a20:	e8 8b ee ff ff       	callq  48b0 <fputs@plt>
    5a25:	48 8d 3d ec ac 00 00 	lea    0xacec(%rip),%rdi        # 10718 <_IO_stdin_used+0x318>
    5a2c:	e8 df eb ff ff       	callq  4610 <gettext@plt>
    5a31:	48 8b 35 c8 f7 20 00 	mov    0x20f7c8(%rip),%rsi        # 215200 <stderr@@GLIBC_2.2.5>
    5a38:	48 89 c7             	mov    %rax,%rdi
    5a3b:	e8 70 ee ff ff       	callq  48b0 <fputs@plt>
    5a40:	48 8d 3d 5b b9 00 00 	lea    0xb95b(%rip),%rdi        # 113a2 <_IO_stdin_used+0xfa2>
    5a47:	e8 c4 eb ff ff       	callq  4610 <gettext@plt>
    5a4c:	48 8b 35 ad f7 20 00 	mov    0x20f7ad(%rip),%rsi        # 215200 <stderr@@GLIBC_2.2.5>
    5a53:	48 89 c7             	mov    %rax,%rdi
    5a56:	e8 55 ee ff ff       	callq  48b0 <fputs@plt>
    5a5b:	48 8d 3d 5e b9 00 00 	lea    0xb95e(%rip),%rdi        # 113c0 <_IO_stdin_used+0xfc0>
    5a62:	e8 a9 eb ff ff       	callq  4610 <gettext@plt>
    5a67:	48 8b 35 92 f7 20 00 	mov    0x20f792(%rip),%rsi        # 215200 <stderr@@GLIBC_2.2.5>
    5a6e:	48 89 c7             	mov    %rax,%rdi
    5a71:	e8 3a ee ff ff       	callq  48b0 <fputs@plt>
    5a76:	48 8d 3d 5c b9 00 00 	lea    0xb95c(%rip),%rdi        # 113d9 <_IO_stdin_used+0xfd9>
    5a7d:	e8 8e eb ff ff       	callq  4610 <gettext@plt>
    5a82:	48 8b 35 77 f7 20 00 	mov    0x20f777(%rip),%rsi        # 215200 <stderr@@GLIBC_2.2.5>
    5a89:	48 89 c7             	mov    %rax,%rdi
    5a8c:	e8 1f ee ff ff       	callq  48b0 <fputs@plt>
    5a91:	48 8d 3d b0 ac 00 00 	lea    0xacb0(%rip),%rdi        # 10748 <_IO_stdin_used+0x348>
    5a98:	e8 73 eb ff ff       	callq  4610 <gettext@plt>
    5a9d:	48 8b 35 5c f7 20 00 	mov    0x20f75c(%rip),%rsi        # 215200 <stderr@@GLIBC_2.2.5>
    5aa4:	48 89 c7             	mov    %rax,%rdi
    5aa7:	e8 04 ee ff ff       	callq  48b0 <fputs@plt>
    5aac:	48 8d 3d c5 ac 00 00 	lea    0xacc5(%rip),%rdi        # 10778 <_IO_stdin_used+0x378>
    5ab3:	e8 58 eb ff ff       	callq  4610 <gettext@plt>
    5ab8:	48 8b 35 41 f7 20 00 	mov    0x20f741(%rip),%rsi        # 215200 <stderr@@GLIBC_2.2.5>
    5abf:	48 89 c7             	mov    %rax,%rdi
    5ac2:	e8 e9 ed ff ff       	callq  48b0 <fputs@plt>
    5ac7:	48 8d 3d da ac 00 00 	lea    0xacda(%rip),%rdi        # 107a8 <_IO_stdin_used+0x3a8>
    5ace:	e8 3d eb ff ff       	callq  4610 <gettext@plt>
    5ad3:	48 8b 35 26 f7 20 00 	mov    0x20f726(%rip),%rsi        # 215200 <stderr@@GLIBC_2.2.5>
    5ada:	48 89 c7             	mov    %rax,%rdi
    5add:	e8 ce ed ff ff       	callq  48b0 <fputs@plt>
    5ae2:	48 8d 3d e7 ac 00 00 	lea    0xace7(%rip),%rdi        # 107d0 <_IO_stdin_used+0x3d0>
    5ae9:	e8 22 eb ff ff       	callq  4610 <gettext@plt>
    5aee:	48 8b 35 0b f7 20 00 	mov    0x20f70b(%rip),%rsi        # 215200 <stderr@@GLIBC_2.2.5>
    5af5:	48 89 c7             	mov    %rax,%rdi
    5af8:	e8 b3 ed ff ff       	callq  48b0 <fputs@plt>
    5afd:	48 8d 3d 04 ad 00 00 	lea    0xad04(%rip),%rdi        # 10808 <_IO_stdin_used+0x408>
    5b04:	e8 07 eb ff ff       	callq  4610 <gettext@plt>
    5b09:	48 8b 35 f0 f6 20 00 	mov    0x20f6f0(%rip),%rsi        # 215200 <stderr@@GLIBC_2.2.5>
    5b10:	48 89 c7             	mov    %rax,%rdi
    5b13:	e8 98 ed ff ff       	callq  48b0 <fputs@plt>
    5b18:	48 8d 3d 11 ad 00 00 	lea    0xad11(%rip),%rdi        # 10830 <_IO_stdin_used+0x430>
    5b1f:	e8 ec ea ff ff       	callq  4610 <gettext@plt>
    5b24:	48 8b 35 d5 f6 20 00 	mov    0x20f6d5(%rip),%rsi        # 215200 <stderr@@GLIBC_2.2.5>
    5b2b:	48 89 c7             	mov    %rax,%rdi
    5b2e:	e8 7d ed ff ff       	callq  48b0 <fputs@plt>
    5b33:	48 8d 3d 2e ad 00 00 	lea    0xad2e(%rip),%rdi        # 10868 <_IO_stdin_used+0x468>
    5b3a:	e8 d1 ea ff ff       	callq  4610 <gettext@plt>
    5b3f:	48 8b 35 ba f6 20 00 	mov    0x20f6ba(%rip),%rsi        # 215200 <stderr@@GLIBC_2.2.5>
    5b46:	48 89 c7             	mov    %rax,%rdi
    5b49:	e8 62 ed ff ff       	callq  48b0 <fputs@plt>
    5b4e:	48 8d 3d 4b ad 00 00 	lea    0xad4b(%rip),%rdi        # 108a0 <_IO_stdin_used+0x4a0>
    5b55:	e8 b6 ea ff ff       	callq  4610 <gettext@plt>
    5b5a:	48 8b 35 9f f6 20 00 	mov    0x20f69f(%rip),%rsi        # 215200 <stderr@@GLIBC_2.2.5>
    5b61:	48 89 c7             	mov    %rax,%rdi
    5b64:	e8 47 ed ff ff       	callq  48b0 <fputs@plt>
    5b69:	48 8d 3d 60 ad 00 00 	lea    0xad60(%rip),%rdi        # 108d0 <_IO_stdin_used+0x4d0>
    5b70:	e8 9b ea ff ff       	callq  4610 <gettext@plt>
    5b75:	48 8b 35 84 f6 20 00 	mov    0x20f684(%rip),%rsi        # 215200 <stderr@@GLIBC_2.2.5>
    5b7c:	48 89 c7             	mov    %rax,%rdi
    5b7f:	e8 2c ed ff ff       	callq  48b0 <fputs@plt>
    5b84:	48 8d 3d 6d ad 00 00 	lea    0xad6d(%rip),%rdi        # 108f8 <_IO_stdin_used+0x4f8>
    5b8b:	e8 80 ea ff ff       	callq  4610 <gettext@plt>
    5b90:	48 8b 35 69 f6 20 00 	mov    0x20f669(%rip),%rsi        # 215200 <stderr@@GLIBC_2.2.5>
    5b97:	48 89 c7             	mov    %rax,%rdi
    5b9a:	e8 11 ed ff ff       	callq  48b0 <fputs@plt>
    5b9f:	48 8d 3d 7a ad 00 00 	lea    0xad7a(%rip),%rdi        # 10920 <_IO_stdin_used+0x520>
    5ba6:	e8 65 ea ff ff       	callq  4610 <gettext@plt>
    5bab:	48 8b 35 4e f6 20 00 	mov    0x20f64e(%rip),%rsi        # 215200 <stderr@@GLIBC_2.2.5>
    5bb2:	48 89 c7             	mov    %rax,%rdi
    5bb5:	e8 f6 ec ff ff       	callq  48b0 <fputs@plt>
    5bba:	48 8d 3d 87 ad 00 00 	lea    0xad87(%rip),%rdi        # 10948 <_IO_stdin_used+0x548>
    5bc1:	e8 4a ea ff ff       	callq  4610 <gettext@plt>
    5bc6:	48 8b 35 33 f6 20 00 	mov    0x20f633(%rip),%rsi        # 215200 <stderr@@GLIBC_2.2.5>
    5bcd:	48 89 c7             	mov    %rax,%rdi
    5bd0:	e8 db ec ff ff       	callq  48b0 <fputs@plt>
    5bd5:	48 8d 3d 9c ad 00 00 	lea    0xad9c(%rip),%rdi        # 10978 <_IO_stdin_used+0x578>
    5bdc:	e8 2f ea ff ff       	callq  4610 <gettext@plt>
    5be1:	48 8b 35 18 f6 20 00 	mov    0x20f618(%rip),%rsi        # 215200 <stderr@@GLIBC_2.2.5>
    5be8:	48 89 c7             	mov    %rax,%rdi
    5beb:	e8 c0 ec ff ff       	callq  48b0 <fputs@plt>
    5bf0:	48 8d 3d 00 b8 00 00 	lea    0xb800(%rip),%rdi        # 113f7 <_IO_stdin_used+0xff7>
    5bf7:	e8 14 ea ff ff       	callq  4610 <gettext@plt>
    5bfc:	48 8b 35 fd f5 20 00 	mov    0x20f5fd(%rip),%rsi        # 215200 <stderr@@GLIBC_2.2.5>
    5c03:	48 89 c7             	mov    %rax,%rdi
    5c06:	e8 a5 ec ff ff       	callq  48b0 <fputs@plt>
    5c0b:	48 8d 3d ae ad 00 00 	lea    0xadae(%rip),%rdi        # 109c0 <_IO_stdin_used+0x5c0>
    5c12:	e8 f9 e9 ff ff       	callq  4610 <gettext@plt>
    5c17:	48 8b 35 e2 f5 20 00 	mov    0x20f5e2(%rip),%rsi        # 215200 <stderr@@GLIBC_2.2.5>
    5c1e:	48 89 c7             	mov    %rax,%rdi
    5c21:	e8 8a ec ff ff       	callq  48b0 <fputs@plt>
    5c26:	48 8d 3d cb af 00 00 	lea    0xafcb(%rip),%rdi        # 10bf8 <_IO_stdin_used+0x7f8>
    5c2d:	e8 de e9 ff ff       	callq  4610 <gettext@plt>
    5c32:	48 8b 35 c7 f5 20 00 	mov    0x20f5c7(%rip),%rsi        # 215200 <stderr@@GLIBC_2.2.5>
    5c39:	48 89 c7             	mov    %rax,%rdi
    5c3c:	e8 6f ec ff ff       	callq  48b0 <fputs@plt>
    5c41:	e9 26 fa ff ff       	jmpq   566c <main+0xa5c>
    5c46:	48 8d 3d db af 00 00 	lea    0xafdb(%rip),%rdi        # 10c28 <_IO_stdin_used+0x828>
    5c4d:	e8 be e9 ff ff       	callq  4610 <gettext@plt>
    5c52:	48 8b 35 87 f5 20 00 	mov    0x20f587(%rip),%rsi        # 2151e0 <stdout@@GLIBC_2.2.5>
    5c59:	48 89 c7             	mov    %rax,%rdi
    5c5c:	e8 4f ec ff ff       	callq  48b0 <fputs@plt>
    5c61:	48 8b 35 78 f5 20 00 	mov    0x20f578(%rip),%rsi        # 2151e0 <stdout@@GLIBC_2.2.5>
    5c68:	bf 0a 00 00 00       	mov    $0xa,%edi
    5c6d:	e8 0e ed ff ff       	callq  4980 <fputc@plt>
    5c72:	49 8b 3c 24          	mov    (%r12),%rdi
    5c76:	48 8d 35 98 b7 00 00 	lea    0xb798(%rip),%rsi        # 11415 <_IO_stdin_used+0x1015>
    5c7d:	e8 4e ed ff ff       	callq  49d0 <strcmp@plt>
    5c82:	85 c0                	test   %eax,%eax
    5c84:	0f 84 e2 f9 ff ff    	je     566c <main+0xa5c>
    5c8a:	48 8d 3d df af 00 00 	lea    0xafdf(%rip),%rdi        # 10c70 <_IO_stdin_used+0x870>
    5c91:	e8 7a e9 ff ff       	callq  4610 <gettext@plt>
    5c96:	48 8b 35 43 f5 20 00 	mov    0x20f543(%rip),%rsi        # 2151e0 <stdout@@GLIBC_2.2.5>
    5c9d:	48 89 c7             	mov    %rax,%rdi
    5ca0:	e8 0b ec ff ff       	callq  48b0 <fputs@plt>
    5ca5:	48 8d 3d 7c b0 00 00 	lea    0xb07c(%rip),%rdi        # 10d28 <_IO_stdin_used+0x928>
    5cac:	e8 5f e9 ff ff       	callq  4610 <gettext@plt>
    5cb1:	48 8b 35 28 f5 20 00 	mov    0x20f528(%rip),%rsi        # 2151e0 <stdout@@GLIBC_2.2.5>
    5cb8:	48 89 c7             	mov    %rax,%rdi
    5cbb:	e8 f0 eb ff ff       	callq  48b0 <fputs@plt>
    5cc0:	e9 a7 f9 ff ff       	jmpq   566c <main+0xa5c>
    5cc5:	48 89 c7             	mov    %rax,%rdi
    5cc8:	e8 33 e9 ff ff       	callq  4600 <_Z8mystrdupPKc@plt>
    5ccd:	be 2e 00 00 00       	mov    $0x2e,%esi
    5cd2:	48 89 c7             	mov    %rax,%rdi
    5cd5:	48 89 05 f4 f5 20 00 	mov    %rax,0x20f5f4(%rip)        # 2152d0 <dicname>
    5cdc:	e8 df e9 ff ff       	callq  46c0 <strchr@plt>
    5ce1:	48 85 c0             	test   %rax,%rax
    5ce4:	74 03                	je     5ce9 <main+0x10d9>
    5ce6:	c6 00 00             	movb   $0x0,(%rax)
    5ce9:	4c 8b 25 e0 f5 20 00 	mov    0x20f5e0(%rip),%r12        # 2152d0 <dicname>
    5cf0:	be 40 00 00 00       	mov    $0x40,%esi
    5cf5:	4c 89 e7             	mov    %r12,%rdi
    5cf8:	e8 c3 e9 ff ff       	callq  46c0 <strchr@plt>
    5cfd:	48 85 c0             	test   %rax,%rax
    5d00:	0f 84 27 fa ff ff    	je     572d <main+0xb1d>
    5d06:	c6 00 00             	movb   $0x0,(%rax)
    5d09:	e9 18 fa ff ff       	jmpq   5726 <main+0xb16>
    5d0e:	c7 44 24 08 01 00 00 	movl   $0x1,0x8(%rsp)
    5d15:	00 
    5d16:	e9 08 f1 ff ff       	jmpq   4e23 <main+0x213>
    5d1b:	c7 44 24 08 03 00 00 	movl   $0x3,0x8(%rsp)
    5d22:	00 
    5d23:	e9 fb f0 ff ff       	jmpq   4e23 <main+0x213>
    5d28:	49 8b 1c 24          	mov    (%r12),%rbx
    5d2c:	48 8d 3d 5c b5 00 00 	lea    0xb55c(%rip),%rdi        # 1128f <_IO_stdin_used+0xe8f>
    5d33:	e8 d8 e8 ff ff       	callq  4610 <gettext@plt>
    5d38:	48 8b 3d c1 f4 20 00 	mov    0x20f4c1(%rip),%rdi        # 215200 <stderr@@GLIBC_2.2.5>
    5d3f:	48 89 c2             	mov    %rax,%rdx
    5d42:	48 89 d9             	mov    %rbx,%rcx
    5d45:	be 01 00 00 00       	mov    $0x1,%esi
    5d4a:	31 c0                	xor    %eax,%eax
    5d4c:	e8 8f ed ff ff       	callq  4ae0 <__fprintf_chk@plt>
    5d51:	bf 01 00 00 00       	mov    $0x1,%edi
    5d56:	e8 05 ec ff ff       	callq  4960 <exit@plt>
    5d5b:	c7 44 24 08 05 00 00 	movl   $0x5,0x8(%rsp)
    5d62:	00 
    5d63:	e9 bb f0 ff ff       	jmpq   4e23 <main+0x213>
    5d68:	c7 44 24 08 02 00 00 	movl   $0x2,0x8(%rsp)
    5d6f:	00 
    5d70:	e9 ae f0 ff ff       	jmpq   4e23 <main+0x213>
    5d75:	48 8d 35 c8 b6 00 00 	lea    0xb6c8(%rip),%rsi        # 11444 <_IO_stdin_used+0x1044>
    5d7c:	4c 89 f7             	mov    %r14,%rdi
    5d7f:	e8 4c ec ff ff       	callq  49d0 <strcmp@plt>
    5d84:	85 c0                	test   %eax,%eax
    5d86:	75 29                	jne    5db1 <main+0x11a1>
    5d88:	83 3d 25 f5 20 00 06 	cmpl   $0x6,0x20f525(%rip)        # 2152b4 <filter_mode>
    5d8f:	0f 84 8e f0 ff ff    	je     4e23 <main+0x213>
    5d95:	c7 05 15 f5 20 00 02 	movl   $0x2,0x20f515(%rip)        # 2152b4 <filter_mode>
    5d9c:	00 00 00 
    5d9f:	e9 7f f0 ff ff       	jmpq   4e23 <main+0x213>
    5da4:	c7 44 24 08 06 00 00 	movl   $0x6,0x8(%rsp)
    5dab:	00 
    5dac:	e9 72 f0 ff ff       	jmpq   4e23 <main+0x213>
    5db1:	48 8d 35 8f b6 00 00 	lea    0xb68f(%rip),%rsi        # 11447 <_IO_stdin_used+0x1047>
    5db8:	4c 89 f7             	mov    %r14,%rdi
    5dbb:	e8 10 ec ff ff       	callq  49d0 <strcmp@plt>
    5dc0:	85 c0                	test   %eax,%eax
    5dc2:	75 5f                	jne    5e23 <main+0x1213>
    5dc4:	83 3d e9 f4 20 00 06 	cmpl   $0x6,0x20f4e9(%rip)        # 2152b4 <filter_mode>
    5dcb:	0f 84 52 f0 ff ff    	je     4e23 <main+0x213>
    5dd1:	c7 05 d9 f4 20 00 03 	movl   $0x3,0x20f4d9(%rip)        # 2152b4 <filter_mode>
    5dd8:	00 00 00 
    5ddb:	e9 43 f0 ff ff       	jmpq   4e23 <main+0x213>
    5de0:	48 8b 1d e9 f4 20 00 	mov    0x20f4e9(%rip),%rbx        # 2152d0 <dicname>
    5de7:	48 8d 3d 0a b3 00 00 	lea    0xb30a(%rip),%rdi        # 110f8 <_IO_stdin_used+0xcf8>
    5dee:	e9 40 ff ff ff       	jmpq   5d33 <main+0x1123>
    5df3:	be 08 00 00 00       	mov    $0x8,%esi
    5df8:	4c 89 ef             	mov    %r13,%rdi
    5dfb:	48 89 c3             	mov    %rax,%rbx
    5dfe:	e8 5d ea ff ff       	callq  4860 <_ZdlPvm@plt>
    5e03:	48 8b 54 24 10       	mov    0x10(%rsp),%rdx
    5e08:	48 8b 7c 24 20       	mov    0x20(%rsp),%rdi
    5e0d:	48 83 c2 10          	add    $0x10,%rdx
    5e11:	48 39 d7             	cmp    %rdx,%rdi
    5e14:	74 05                	je     5e1b <main+0x120b>
    5e16:	e8 e5 e9 ff ff       	callq  4800 <_ZdlPv@plt>
    5e1b:	48 89 df             	mov    %rbx,%rdi
    5e1e:	e8 ed ec ff ff       	callq  4b10 <_Unwind_Resume@plt>
    5e23:	48 8d 35 20 b6 00 00 	lea    0xb620(%rip),%rsi        # 1144a <_IO_stdin_used+0x104a>
    5e2a:	4c 89 f7             	mov    %r14,%rdi
    5e2d:	e8 9e eb ff ff       	callq  49d0 <strcmp@plt>
    5e32:	85 c0                	test   %eax,%eax
    5e34:	75 7a                	jne    5eb0 <main+0x12a0>
    5e36:	83 3d 77 f4 20 00 06 	cmpl   $0x6,0x20f477(%rip)        # 2152b4 <filter_mode>
    5e3d:	0f 84 e0 ef ff ff    	je     4e23 <main+0x213>
    5e43:	c7 05 67 f4 20 00 07 	movl   $0x7,0x20f467(%rip)        # 2152b4 <filter_mode>
    5e4a:	00 00 00 
    5e4d:	e9 d1 ef ff ff       	jmpq   4e23 <main+0x213>
    5e52:	eb 9f                	jmp    5df3 <main+0x11e3>
    5e54:	48 8d 3d 91 b3 00 00 	lea    0xb391(%rip),%rdi        # 111ec <_IO_stdin_used+0xdec>
    5e5b:	e8 c0 e8 ff ff       	callq  4720 <_ZSt20__throw_length_errorPKc@plt>
    5e60:	48 8d 3d 85 b3 00 00 	lea    0xb385(%rip),%rdi        # 111ec <_IO_stdin_used+0xdec>
    5e67:	e8 b4 e8 ff ff       	callq  4720 <_ZSt20__throw_length_errorPKc@plt>
    5e6c:	48 8d 3d 79 b3 00 00 	lea    0xb379(%rip),%rdi        # 111ec <_IO_stdin_used+0xdec>
    5e73:	e8 a8 e8 ff ff       	callq  4720 <_ZSt20__throw_length_errorPKc@plt>
    5e78:	e8 13 ea ff ff       	callq  4890 <__stack_chk_fail@plt>
    5e7d:	48 8b 7c 24 40       	mov    0x40(%rsp),%rdi
    5e82:	48 83 c5 10          	add    $0x10,%rbp
    5e86:	48 89 c3             	mov    %rax,%rbx
    5e89:	48 39 ef             	cmp    %rbp,%rdi
    5e8c:	0f 84 71 ff ff ff    	je     5e03 <main+0x11f3>
    5e92:	e8 69 e9 ff ff       	callq  4800 <_ZdlPv@plt>
    5e97:	e9 67 ff ff ff       	jmpq   5e03 <main+0x11f3>
    5e9c:	48 8d 3d 49 b3 00 00 	lea    0xb349(%rip),%rdi        # 111ec <_IO_stdin_used+0xdec>
    5ea3:	e8 78 e8 ff ff       	callq  4720 <_ZSt20__throw_length_errorPKc@plt>
    5ea8:	48 89 c3             	mov    %rax,%rbx
    5eab:	e9 53 ff ff ff       	jmpq   5e03 <main+0x11f3>
    5eb0:	48 8d 35 96 b5 00 00 	lea    0xb596(%rip),%rsi        # 1144d <_IO_stdin_used+0x104d>
    5eb7:	4c 89 f7             	mov    %r14,%rdi
    5eba:	e8 11 eb ff ff       	callq  49d0 <strcmp@plt>
    5ebf:	85 c0                	test   %eax,%eax
    5ec1:	75 1c                	jne    5edf <main+0x12cf>
    5ec3:	83 3d ea f3 20 00 06 	cmpl   $0x6,0x20f3ea(%rip)        # 2152b4 <filter_mode>
    5eca:	0f 84 53 ef ff ff    	je     4e23 <main+0x213>
    5ed0:	c7 05 da f3 20 00 08 	movl   $0x8,0x20f3da(%rip)        # 2152b4 <filter_mode>
    5ed7:	00 00 00 
    5eda:	e9 44 ef ff ff       	jmpq   4e23 <main+0x213>
    5edf:	48 8d 35 6a b5 00 00 	lea    0xb56a(%rip),%rsi        # 11450 <_IO_stdin_used+0x1050>
    5ee6:	4c 89 f7             	mov    %r14,%rdi
    5ee9:	e8 e2 ea ff ff       	callq  49d0 <strcmp@plt>
    5eee:	85 c0                	test   %eax,%eax
    5ef0:	75 1c                	jne    5f0e <main+0x12fe>
    5ef2:	83 3d bb f3 20 00 06 	cmpl   $0x6,0x20f3bb(%rip)        # 2152b4 <filter_mode>
    5ef9:	0f 84 24 ef ff ff    	je     4e23 <main+0x213>
    5eff:	c7 05 ab f3 20 00 09 	movl   $0x9,0x20f3ab(%rip)        # 2152b4 <filter_mode>
    5f06:	00 00 00 
    5f09:	e9 15 ef ff ff       	jmpq   4e23 <main+0x213>
    5f0e:	48 8d 35 3f b5 00 00 	lea    0xb53f(%rip),%rsi        # 11454 <_IO_stdin_used+0x1054>
    5f15:	4c 89 f7             	mov    %r14,%rdi
    5f18:	e8 b3 ea ff ff       	callq  49d0 <strcmp@plt>
    5f1d:	85 c0                	test   %eax,%eax
    5f1f:	75 1c                	jne    5f3d <main+0x132d>
    5f21:	83 3d 8c f3 20 00 06 	cmpl   $0x6,0x20f38c(%rip)        # 2152b4 <filter_mode>
    5f28:	0f 84 f5 ee ff ff    	je     4e23 <main+0x213>
    5f2e:	c7 05 7c f3 20 00 0a 	movl   $0xa,0x20f37c(%rip)        # 2152b4 <filter_mode>
    5f35:	00 00 00 
    5f38:	e9 e6 ee ff ff       	jmpq   4e23 <main+0x213>
    5f3d:	48 8d 35 14 b5 00 00 	lea    0xb514(%rip),%rsi        # 11458 <_IO_stdin_used+0x1058>
    5f44:	4c 89 f7             	mov    %r14,%rdi
    5f47:	e8 84 ea ff ff       	callq  49d0 <strcmp@plt>
    5f4c:	85 c0                	test   %eax,%eax
    5f4e:	75 0f                	jne    5f5f <main+0x134f>
    5f50:	c7 05 56 f3 20 00 01 	movl   $0x1,0x20f356(%rip)        # 2152b0 <printgood>
    5f57:	00 00 00 
    5f5a:	e9 c4 ee ff ff       	jmpq   4e23 <main+0x213>
    5f5f:	48 8d 35 f5 b4 00 00 	lea    0xb4f5(%rip),%rsi        # 1145b <_IO_stdin_used+0x105b>
    5f66:	4c 89 f7             	mov    %r14,%rdi
    5f69:	e8 62 ea ff ff       	callq  49d0 <strcmp@plt>
    5f6e:	85 c0                	test   %eax,%eax
    5f70:	74 22                	je     5f94 <main+0x1384>
    5f72:	48 8d 35 e5 b4 00 00 	lea    0xb4e5(%rip),%rsi        # 1145e <_IO_stdin_used+0x105e>
    5f79:	4c 89 f7             	mov    %r14,%rdi
    5f7c:	e8 4f ea ff ff       	callq  49d0 <strcmp@plt>
    5f81:	85 c0                	test   %eax,%eax
    5f83:	75 1c                	jne    5fa1 <main+0x1391>
    5f85:	c7 05 1d f3 20 00 01 	movl   $0x1,0x20f31d(%rip)        # 2152ac <showpath>
    5f8c:	00 00 00 
    5f8f:	e9 8f ee ff ff       	jmpq   4e23 <main+0x213>
    5f94:	c7 44 24 08 04 00 00 	movl   $0x4,0x8(%rsp)
    5f9b:	00 
    5f9c:	e9 82 ee ff ff       	jmpq   4e23 <main+0x213>
    5fa1:	48 8d 35 b9 b4 00 00 	lea    0xb4b9(%rip),%rsi        # 11461 <_IO_stdin_used+0x1061>
    5fa8:	4c 89 f7             	mov    %r14,%rdi
    5fab:	e8 20 ea ff ff       	callq  49d0 <strcmp@plt>
    5fb0:	85 c0                	test   %eax,%eax
    5fb2:	75 0f                	jne    5fc3 <main+0x13b3>
    5fb4:	c7 05 e2 f2 20 00 01 	movl   $0x1,0x20f2e2(%rip)        # 2152a0 <warn>
    5fbb:	00 00 00 
    5fbe:	e9 60 ee ff ff       	jmpq   4e23 <main+0x213>
    5fc3:	48 8d 35 9a b4 00 00 	lea    0xb49a(%rip),%rsi        # 11464 <_IO_stdin_used+0x1064>
    5fca:	4c 89 f7             	mov    %r14,%rdi
    5fcd:	e8 fe e9 ff ff       	callq  49d0 <strcmp@plt>
    5fd2:	85 c0                	test   %eax,%eax
    5fd4:	75 0f                	jne    5fe5 <main+0x13d5>
    5fd6:	c7 05 c8 f2 20 00 01 	movl   $0x1,0x20f2c8(%rip)        # 2152a8 <checkurl>
    5fdd:	00 00 00 
    5fe0:	e9 3e ee ff ff       	jmpq   4e23 <main+0x213>
    5fe5:	48 8d 35 84 b4 00 00 	lea    0xb484(%rip),%rsi        # 11470 <_IO_stdin_used+0x1070>
    5fec:	4c 89 f7             	mov    %r14,%rdi
    5fef:	e8 dc e9 ff ff       	callq  49d0 <strcmp@plt>
    5ff4:	85 c0                	test   %eax,%eax
    5ff6:	75 0f                	jne    6007 <main+0x13f7>
    5ff8:	c7 05 a2 f2 20 00 01 	movl   $0x1,0x20f2a2(%rip)        # 2152a4 <checkapos>
    5fff:	00 00 00 
    6002:	e9 1c ee ff ff       	jmpq   4e23 <main+0x213>
    6007:	83 7c 24 0c ff       	cmpl   $0xffffffff,0xc(%rsp)
    600c:	0f 85 11 ee ff ff    	jne    4e23 <main+0x213>
    6012:	41 0f b6 06          	movzbl (%r14),%eax
    6016:	84 c0                	test   %al,%al
    6018:	0f 84 05 ee ff ff    	je     4e23 <main+0x213>
    601e:	3c 2d                	cmp    $0x2d,%al
    6020:	0f 84 fd ed ff ff    	je     4e23 <main+0x213>
    6026:	4c 89 f7             	mov    %r14,%rdi
    6029:	e8 32 0b 00 00       	callq  6b60 <_Z5existPKc>
    602e:	84 c0                	test   %al,%al
    6030:	0f 84 f2 fc ff ff    	je     5d28 <main+0x1118>
    6036:	44 89 6c 24 0c       	mov    %r13d,0xc(%rsp)
    603b:	e9 e3 ed ff ff       	jmpq   4e23 <main+0x213>

0000000000006040 <_GLOBAL__sub_I_text_conv>:
    6040:	48 8d 05 e9 f2 20 00 	lea    0x20f2e9(%rip),%rax        # 215330 <_Z9wordcharsB5cxx11+0x10>
    6047:	48 83 ec 08          	sub    $0x8,%rsp
    604b:	48 8b 3d 86 ef 20 00 	mov    0x20ef86(%rip),%rdi        # 214fd8 <_ZNSt7__cxx1112basic_stringIcSt11char_traitsIcESaIcEED1Ev@GLIBCXX_3.4.21>
    6052:	48 8d 15 af ef 20 00 	lea    0x20efaf(%rip),%rdx        # 215008 <__dso_handle>
    6059:	48 c7 05 c4 f2 20 00 	movq   $0x0,0x20f2c4(%rip)        # 215328 <_Z9wordcharsB5cxx11+0x8>
    6060:	00 00 00 00 
    6064:	c6 05 c5 f2 20 00 00 	movb   $0x0,0x20f2c5(%rip)        # 215330 <_Z9wordcharsB5cxx11+0x10>
    606b:	48 8d 70 f0          	lea    -0x10(%rax),%rsi
    606f:	48 89 05 aa f2 20 00 	mov    %rax,0x20f2aa(%rip)        # 215320 <_Z9wordcharsB5cxx11>
    6076:	e8 55 e7 ff ff       	callq  47d0 <__cxa_atexit@plt>
    607b:	48 8d 15 86 ef 20 00 	lea    0x20ef86(%rip),%rdx        # 215008 <__dso_handle>
    6082:	48 8d 35 57 f2 20 00 	lea    0x20f257(%rip),%rsi        # 2152e0 <new_wordchars_utf16>
    6089:	48 8d 3d 60 61 00 00 	lea    0x6160(%rip),%rdi        # c1f0 <_ZNSt6vectorI6w_charSaIS0_EED1Ev>
    6090:	48 c7 05 45 f2 20 00 	movq   $0x0,0x20f245(%rip)        # 2152e0 <new_wordchars_utf16>
    6097:	00 00 00 00 
    609b:	48 c7 05 42 f2 20 00 	movq   $0x0,0x20f242(%rip)        # 2152e8 <new_wordchars_utf16+0x8>
    60a2:	00 00 00 00 
    60a6:	48 c7 05 3f f2 20 00 	movq   $0x0,0x20f23f(%rip)        # 2152f0 <new_wordchars_utf16+0x10>
    60ad:	00 00 00 00 
    60b1:	48 83 c4 08          	add    $0x8,%rsp
    60b5:	e9 16 e7 ff ff       	jmpq   47d0 <__cxa_atexit@plt>
    60ba:	66 0f 1f 44 00 00    	nopw   0x0(%rax,%rax,1)

00000000000060c0 <_start>:
    60c0:	31 ed                	xor    %ebp,%ebp
    60c2:	49 89 d1             	mov    %rdx,%r9
    60c5:	5e                   	pop    %rsi
    60c6:	48 89 e2             	mov    %rsp,%rdx
    60c9:	48 83 e4 f0          	and    $0xfffffffffffffff0,%rsp
    60cd:	50                   	push   %rax
    60ce:	54                   	push   %rsp
    60cf:	4c 8d 05 1a a3 00 00 	lea    0xa31a(%rip),%r8        # 103f0 <__libc_csu_fini>
    60d6:	48 8d 0d a3 a2 00 00 	lea    0xa2a3(%rip),%rcx        # 10380 <__libc_csu_init>
    60dd:	48 8d 3d 2c eb ff ff 	lea    -0x14d4(%rip),%rdi        # 4c10 <main>
    60e4:	ff 15 fe ee 20 00    	callq  *0x20eefe(%rip)        # 214fe8 <__libc_start_main@GLIBC_2.2.5>
    60ea:	f4                   	hlt    
    60eb:	0f 1f 44 00 00       	nopl   0x0(%rax,%rax,1)

00000000000060f0 <deregister_tm_clones>:
    60f0:	48 8d 3d e9 f0 20 00 	lea    0x20f0e9(%rip),%rdi        # 2151e0 <stdout@@GLIBC_2.2.5>
    60f7:	55                   	push   %rbp
    60f8:	48 8d 05 e1 f0 20 00 	lea    0x20f0e1(%rip),%rax        # 2151e0 <stdout@@GLIBC_2.2.5>
    60ff:	48 39 f8             	cmp    %rdi,%rax
    6102:	48 89 e5             	mov    %rsp,%rbp
    6105:	74 19                	je     6120 <deregister_tm_clones+0x30>
    6107:	48 8b 05 d2 ee 20 00 	mov    0x20eed2(%rip),%rax        # 214fe0 <_ITM_deregisterTMCloneTable>
    610e:	48 85 c0             	test   %rax,%rax
    6111:	74 0d                	je     6120 <deregister_tm_clones+0x30>
    6113:	5d                   	pop    %rbp
    6114:	ff e0                	jmpq   *%rax
    6116:	66 2e 0f 1f 84 00 00 	nopw   %cs:0x0(%rax,%rax,1)
    611d:	00 00 00 
    6120:	5d                   	pop    %rbp
    6121:	c3                   	retq   
    6122:	0f 1f 40 00          	nopl   0x0(%rax)
    6126:	66 2e 0f 1f 84 00 00 	nopw   %cs:0x0(%rax,%rax,1)
    612d:	00 00 00 

0000000000006130 <register_tm_clones>:
    6130:	48 8d 3d a9 f0 20 00 	lea    0x20f0a9(%rip),%rdi        # 2151e0 <stdout@@GLIBC_2.2.5>
    6137:	48 8d 35 a2 f0 20 00 	lea    0x20f0a2(%rip),%rsi        # 2151e0 <stdout@@GLIBC_2.2.5>
    613e:	55                   	push   %rbp
    613f:	48 29 fe             	sub    %rdi,%rsi
    6142:	48 89 e5             	mov    %rsp,%rbp
    6145:	48 c1 fe 03          	sar    $0x3,%rsi
    6149:	48 89 f0             	mov    %rsi,%rax
    614c:	48 c1 e8 3f          	shr    $0x3f,%rax
    6150:	48 01 c6             	add    %rax,%rsi
    6153:	48 d1 fe             	sar    %rsi
    6156:	74 18                	je     6170 <register_tm_clones+0x40>
    6158:	48 8b 05 99 ee 20 00 	mov    0x20ee99(%rip),%rax        # 214ff8 <_ITM_registerTMCloneTable>
    615f:	48 85 c0             	test   %rax,%rax
    6162:	74 0c                	je     6170 <register_tm_clones+0x40>
    6164:	5d                   	pop    %rbp
    6165:	ff e0                	jmpq   *%rax
    6167:	66 0f 1f 84 00 00 00 	nopw   0x0(%rax,%rax,1)
    616e:	00 00 
    6170:	5d                   	pop    %rbp
    6171:	c3                   	retq   
    6172:	0f 1f 40 00          	nopl   0x0(%rax)
    6176:	66 2e 0f 1f 84 00 00 	nopw   %cs:0x0(%rax,%rax,1)
    617d:	00 00 00 

0000000000006180 <__do_global_dtors_aux>:
    6180:	80 3d 81 f0 20 00 00 	cmpb   $0x0,0x20f081(%rip)        # 215208 <completed.7698>
    6187:	75 2f                	jne    61b8 <__do_global_dtors_aux+0x38>
    6189:	48 83 3d 3f ee 20 00 	cmpq   $0x0,0x20ee3f(%rip)        # 214fd0 <__cxa_finalize@GLIBC_2.2.5>
    6190:	00 
    6191:	55                   	push   %rbp
    6192:	48 89 e5             	mov    %rsp,%rbp
    6195:	74 0c                	je     61a3 <__do_global_dtors_aux+0x23>
    6197:	48 8b 3d 6a ee 20 00 	mov    0x20ee6a(%rip),%rdi        # 215008 <__dso_handle>
    619e:	e8 5d ea ff ff       	callq  4c00 <__cxa_finalize@plt>
    61a3:	e8 48 ff ff ff       	callq  60f0 <deregister_tm_clones>
    61a8:	c6 05 59 f0 20 00 01 	movb   $0x1,0x20f059(%rip)        # 215208 <completed.7698>
    61af:	5d                   	pop    %rbp
    61b0:	c3                   	retq   
    61b1:	0f 1f 80 00 00 00 00 	nopl   0x0(%rax)
    61b8:	f3 c3                	repz retq 
    61ba:	66 0f 1f 44 00 00    	nopw   0x0(%rax,%rax,1)

00000000000061c0 <frame_dummy>:
    61c0:	55                   	push   %rbp
    61c1:	48 89 e5             	mov    %rsp,%rbp
    61c4:	5d                   	pop    %rbp
    61c5:	e9 66 ff ff ff       	jmpq   6130 <register_tm_clones>
    61ca:	66 0f 1f 44 00 00    	nopw   0x0(%rax,%rax,1)

00000000000061d0 <_ZNSt7__cxx1112basic_stringIcSt11char_traitsIcESaIcEE12_M_constructIPKcEEvT_S8_St20forward_iterator_tag.isra.52>:
    61d0:	41 54                	push   %r12
    61d2:	55                   	push   %rbp
    61d3:	49 89 f4             	mov    %rsi,%r12
    61d6:	53                   	push   %rbx
    61d7:	48 89 fd             	mov    %rdi,%rbp
    61da:	48 83 ec 10          	sub    $0x10,%rsp
    61de:	64 48 8b 04 25 28 00 	mov    %fs:0x28,%rax
    61e5:	00 00 
    61e7:	48 89 44 24 08       	mov    %rax,0x8(%rsp)
    61ec:	31 c0                	xor    %eax,%eax
    61ee:	48 85 f6             	test   %rsi,%rsi
    61f1:	75 09                	jne    61fc <_ZNSt7__cxx1112basic_stringIcSt11char_traitsIcESaIcEE12_M_constructIPKcEEvT_S8_St20forward_iterator_tag.isra.52+0x2c>
    61f3:	48 85 d2             	test   %rdx,%rdx
    61f6:	0f 85 8b 00 00 00    	jne    6287 <_ZNSt7__cxx1112basic_stringIcSt11char_traitsIcESaIcEE12_M_constructIPKcEEvT_S8_St20forward_iterator_tag.isra.52+0xb7>
    61fc:	48 89 d3             	mov    %rdx,%rbx
    61ff:	4c 29 e3             	sub    %r12,%rbx
    6202:	48 83 fb 0f          	cmp    $0xf,%rbx
    6206:	48 89 1c 24          	mov    %rbx,(%rsp)
    620a:	77 44                	ja     6250 <_ZNSt7__cxx1112basic_stringIcSt11char_traitsIcESaIcEE12_M_constructIPKcEEvT_S8_St20forward_iterator_tag.isra.52+0x80>
    620c:	48 8b 55 00          	mov    0x0(%rbp),%rdx
    6210:	48 83 fb 01          	cmp    $0x1,%rbx
    6214:	48 89 d0             	mov    %rdx,%rax
    6217:	75 67                	jne    6280 <_ZNSt7__cxx1112basic_stringIcSt11char_traitsIcESaIcEE12_M_constructIPKcEEvT_S8_St20forward_iterator_tag.isra.52+0xb0>
    6219:	41 0f b6 04 24       	movzbl (%r12),%eax
    621e:	88 02                	mov    %al,(%rdx)
    6220:	48 8b 55 00          	mov    0x0(%rbp),%rdx
    6224:	48 8b 04 24          	mov    (%rsp),%rax
    6228:	48 89 45 08          	mov    %rax,0x8(%rbp)
    622c:	c6 04 02 00          	movb   $0x0,(%rdx,%rax,1)
    6230:	48 8b 44 24 08       	mov    0x8(%rsp),%rax
    6235:	64 48 33 04 25 28 00 	xor    %fs:0x28,%rax
    623c:	00 00 
    623e:	75 53                	jne    6293 <_ZNSt7__cxx1112basic_stringIcSt11char_traitsIcESaIcEE12_M_constructIPKcEEvT_S8_St20forward_iterator_tag.isra.52+0xc3>
    6240:	48 83 c4 10          	add    $0x10,%rsp
    6244:	5b                   	pop    %rbx
    6245:	5d                   	pop    %rbp
    6246:	41 5c                	pop    %r12
    6248:	c3                   	retq   
    6249:	0f 1f 80 00 00 00 00 	nopl   0x0(%rax)
    6250:	31 d2                	xor    %edx,%edx
    6252:	48 89 e6             	mov    %rsp,%rsi
    6255:	48 89 ef             	mov    %rbp,%rdi
    6258:	e8 d3 e8 ff ff       	callq  4b30 <_ZNSt7__cxx1112basic_stringIcSt11char_traitsIcESaIcEE9_M_createERmm@plt>
    625d:	48 8b 14 24          	mov    (%rsp),%rdx
    6261:	48 89 45 00          	mov    %rax,0x0(%rbp)
    6265:	48 89 55 10          	mov    %rdx,0x10(%rbp)
    6269:	48 89 da             	mov    %rbx,%rdx
    626c:	4c 89 e6             	mov    %r12,%rsi
    626f:	48 89 c7             	mov    %rax,%rdi
    6272:	e8 19 e5 ff ff       	callq  4790 <memcpy@plt>
    6277:	48 8b 55 00          	mov    0x0(%rbp),%rdx
    627b:	eb a7                	jmp    6224 <_ZNSt7__cxx1112basic_stringIcSt11char_traitsIcESaIcEE12_M_constructIPKcEEvT_S8_St20forward_iterator_tag.isra.52+0x54>
    627d:	0f 1f 00             	nopl   (%rax)
    6280:	48 85 db             	test   %rbx,%rbx
    6283:	74 9f                	je     6224 <_ZNSt7__cxx1112basic_stringIcSt11char_traitsIcESaIcEE12_M_constructIPKcEEvT_S8_St20forward_iterator_tag.isra.52+0x54>
    6285:	eb e2                	jmp    6269 <_ZNSt7__cxx1112basic_stringIcSt11char_traitsIcESaIcEE12_M_constructIPKcEEvT_S8_St20forward_iterator_tag.isra.52+0x99>
    6287:	48 8d 3d 7a a1 00 00 	lea    0xa17a(%rip),%rdi        # 10408 <_IO_stdin_used+0x8>
    628e:	e8 bd e4 ff ff       	callq  4750 <_ZSt19__throw_logic_errorPKc@plt>
    6293:	e8 f8 e5 ff ff       	callq  4890 <__stack_chk_fail@plt>
    6298:	0f 1f 84 00 00 00 00 	nopl   0x0(%rax,%rax,1)
    629f:	00 

00000000000062a0 <_Z5chencRKNSt7__cxx1112basic_stringIcSt11char_traitsIcESaIcEEEPKcS8_>:
    62a0:	41 57                	push   %r15
    62a2:	41 56                	push   %r14
    62a4:	41 55                	push   %r13
    62a6:	41 54                	push   %r12
    62a8:	55                   	push   %rbp
    62a9:	53                   	push   %rbx
    62aa:	48 89 f5             	mov    %rsi,%rbp
    62ad:	48 89 fb             	mov    %rdi,%rbx
    62b0:	48 83 ec 78          	sub    $0x78,%rsp
    62b4:	4c 8b 7e 08          	mov    0x8(%rsi),%r15
    62b8:	64 48 8b 04 25 28 00 	mov    %fs:0x28,%rax
    62bf:	00 00 
    62c1:	48 89 44 24 68       	mov    %rax,0x68(%rsp)
    62c6:	31 c0                	xor    %eax,%eax
    62c8:	4d 85 ff             	test   %r15,%r15
    62cb:	0f 84 af 01 00 00    	je     6480 <_Z5chencRKNSt7__cxx1112basic_stringIcSt11char_traitsIcESaIcEEEPKcS8_+0x1e0>
    62d1:	48 85 d2             	test   %rdx,%rdx
    62d4:	49 89 d5             	mov    %rdx,%r13
    62d7:	0f 84 a3 01 00 00    	je     6480 <_Z5chencRKNSt7__cxx1112basic_stringIcSt11char_traitsIcESaIcEEEPKcS8_+0x1e0>
    62dd:	48 85 c9             	test   %rcx,%rcx
    62e0:	49 89 ce             	mov    %rcx,%r14
    62e3:	0f 84 97 01 00 00    	je     6480 <_Z5chencRKNSt7__cxx1112basic_stringIcSt11char_traitsIcESaIcEEEPKcS8_+0x1e0>
    62e9:	48 89 ce             	mov    %rcx,%rsi
    62ec:	48 89 d7             	mov    %rdx,%rdi
    62ef:	e8 dc e6 ff ff       	callq  49d0 <strcmp@plt>
    62f4:	85 c0                	test   %eax,%eax
    62f6:	0f 84 84 01 00 00    	je     6480 <_Z5chencRKNSt7__cxx1112basic_stringIcSt11char_traitsIcESaIcEEEPKcS8_+0x1e0>
    62fc:	4c 8d 64 24 40       	lea    0x40(%rsp),%r12
    6301:	49 83 ff 0f          	cmp    $0xf,%r15
    6305:	be 0f 00 00 00       	mov    $0xf,%esi
    630a:	49 0f 43 f7          	cmovae %r15,%rsi
    630e:	31 d2                	xor    %edx,%edx
    6310:	49 8d 44 24 10       	lea    0x10(%r12),%rax
    6315:	4c 89 e7             	mov    %r12,%rdi
    6318:	48 89 44 24 40       	mov    %rax,0x40(%rsp)
    631d:	e8 ee e5 ff ff       	callq  4910 <_ZNSt7__cxx1112basic_stringIcSt11char_traitsIcESaIcEE12_M_constructEmc@plt>
    6322:	48 8b 45 08          	mov    0x8(%rbp),%rax
    6326:	48 8d 15 56 ae 00 00 	lea    0xae56(%rip),%rdx        # 11183 <_IO_stdin_used+0xd83>
    632d:	b9 0c 00 00 00       	mov    $0xc,%ecx
    6332:	4c 89 ee             	mov    %r13,%rsi
    6335:	48 89 d7             	mov    %rdx,%rdi
    6338:	48 89 44 24 20       	mov    %rax,0x20(%rsp)
    633d:	48 8b 44 24 48       	mov    0x48(%rsp),%rax
    6342:	f3 a6                	repz cmpsb %es:(%rdi),%ds:(%rsi)
    6344:	48 89 d7             	mov    %rdx,%rdi
    6347:	4c 89 f6             	mov    %r14,%rsi
    634a:	48 89 44 24 28       	mov    %rax,0x28(%rsp)
    634f:	48 8b 45 00          	mov    0x0(%rbp),%rax
    6353:	0f 97 c1             	seta   %cl
    6356:	80 d9 00             	sbb    $0x0,%cl
    6359:	84 c9                	test   %cl,%cl
    635b:	b9 0c 00 00 00       	mov    $0xc,%ecx
    6360:	48 89 44 24 30       	mov    %rax,0x30(%rsp)
    6365:	48 8b 44 24 40       	mov    0x40(%rsp),%rax
    636a:	48 89 44 24 38       	mov    %rax,0x38(%rsp)
    636f:	48 8d 05 06 ae 00 00 	lea    0xae06(%rip),%rax        # 1117c <_IO_stdin_used+0xd7c>
    6376:	49 89 c0             	mov    %rax,%r8
    6379:	4d 0f 45 c5          	cmovne %r13,%r8
    637d:	f3 a6                	repz cmpsb %es:(%rdi),%ds:(%rsi)
    637f:	4c 89 c6             	mov    %r8,%rsi
    6382:	0f 97 c2             	seta   %dl
    6385:	80 da 00             	sbb    $0x0,%dl
    6388:	84 d2                	test   %dl,%dl
    638a:	49 0f 45 c6          	cmovne %r14,%rax
    638e:	48 89 c7             	mov    %rax,%rdi
    6391:	e8 ca e3 ff ff       	callq  4760 <iconv_open@plt>
    6396:	48 83 f8 ff          	cmp    $0xffffffffffffffff,%rax
    639a:	49 89 c7             	mov    %rax,%r15
    639d:	0f 84 5d 01 00 00    	je     6500 <_Z5chencRKNSt7__cxx1112basic_stringIcSt11char_traitsIcESaIcEEEPKcS8_+0x260>
    63a3:	48 8d 44 24 28       	lea    0x28(%rsp),%rax
    63a8:	48 89 44 24 08       	mov    %rax,0x8(%rsp)
    63ad:	48 8d 44 24 38       	lea    0x38(%rsp),%rax
    63b2:	48 89 44 24 18       	mov    %rax,0x18(%rsp)
    63b7:	48 8d 44 24 20       	lea    0x20(%rsp),%rax
    63bc:	48 89 04 24          	mov    %rax,(%rsp)
    63c0:	48 8d 44 24 30       	lea    0x30(%rsp),%rax
    63c5:	48 89 44 24 10       	mov    %rax,0x10(%rsp)
    63ca:	eb 4a                	jmp    6416 <_Z5chencRKNSt7__cxx1112basic_stringIcSt11char_traitsIcESaIcEEEPKcS8_+0x176>
    63cc:	0f 1f 40 00          	nopl   0x0(%rax)
    63d0:	e8 eb e1 ff ff       	callq  45c0 <__errno_location@plt>
    63d5:	83 38 07             	cmpl   $0x7,(%rax)
    63d8:	0f 85 f2 00 00 00    	jne    64d0 <_Z5chencRKNSt7__cxx1112basic_stringIcSt11char_traitsIcESaIcEEEPKcS8_+0x230>
    63de:	48 8b 4c 24 20       	mov    0x20(%rsp),%rcx
    63e3:	48 8b 54 24 48       	mov    0x48(%rsp),%rdx
    63e8:	4c 89 e7             	mov    %r12,%rdi
    63eb:	48 8b 44 24 28       	mov    0x28(%rsp),%rax
    63f0:	48 8d 34 09          	lea    (%rcx,%rcx,1),%rsi
    63f4:	48 89 d5             	mov    %rdx,%rbp
    63f7:	48 29 c5             	sub    %rax,%rbp
    63fa:	48 01 f0             	add    %rsi,%rax
    63fd:	48 01 d6             	add    %rdx,%rsi
    6400:	31 d2                	xor    %edx,%edx
    6402:	48 89 44 24 28       	mov    %rax,0x28(%rsp)
    6407:	e8 84 e2 ff ff       	callq  4690 <_ZNSt7__cxx1112basic_stringIcSt11char_traitsIcESaIcEE6resizeEmc@plt>
    640c:	48 03 6c 24 40       	add    0x40(%rsp),%rbp
    6411:	48 89 6c 24 38       	mov    %rbp,0x38(%rsp)
    6416:	4c 8b 44 24 08       	mov    0x8(%rsp),%r8
    641b:	48 8b 4c 24 18       	mov    0x18(%rsp),%rcx
    6420:	4c 89 ff             	mov    %r15,%rdi
    6423:	48 8b 14 24          	mov    (%rsp),%rdx
    6427:	48 8b 74 24 10       	mov    0x10(%rsp),%rsi
    642c:	e8 ef e6 ff ff       	callq  4b20 <iconv@plt>
    6431:	48 83 f8 ff          	cmp    $0xffffffffffffffff,%rax
    6435:	74 99                	je     63d0 <_Z5chencRKNSt7__cxx1112basic_stringIcSt11char_traitsIcESaIcEEEPKcS8_+0x130>
    6437:	4c 89 ff             	mov    %r15,%rdi
    643a:	e8 41 e3 ff ff       	callq  4780 <iconv_close@plt>
    643f:	48 8b 74 24 38       	mov    0x38(%rsp),%rsi
    6444:	48 2b 74 24 40       	sub    0x40(%rsp),%rsi
    6449:	31 d2                	xor    %edx,%edx
    644b:	4c 89 e7             	mov    %r12,%rdi
    644e:	e8 3d e2 ff ff       	callq  4690 <_ZNSt7__cxx1112basic_stringIcSt11char_traitsIcESaIcEE6resizeEmc@plt>
    6453:	48 8d 43 10          	lea    0x10(%rbx),%rax
    6457:	49 83 c4 10          	add    $0x10,%r12
    645b:	48 89 03             	mov    %rax,(%rbx)
    645e:	48 8b 44 24 40       	mov    0x40(%rsp),%rax
    6463:	4c 39 e0             	cmp    %r12,%rax
    6466:	74 58                	je     64c0 <_Z5chencRKNSt7__cxx1112basic_stringIcSt11char_traitsIcESaIcEEEPKcS8_+0x220>
    6468:	48 89 03             	mov    %rax,(%rbx)
    646b:	48 8b 44 24 50       	mov    0x50(%rsp),%rax
    6470:	48 89 43 10          	mov    %rax,0x10(%rbx)
    6474:	48 8b 44 24 48       	mov    0x48(%rsp),%rax
    6479:	48 89 43 08          	mov    %rax,0x8(%rbx)
    647d:	eb 1b                	jmp    649a <_Z5chencRKNSt7__cxx1112basic_stringIcSt11char_traitsIcESaIcEEEPKcS8_+0x1fa>
    647f:	90                   	nop
    6480:	48 8d 43 10          	lea    0x10(%rbx),%rax
    6484:	48 89 df             	mov    %rbx,%rdi
    6487:	48 89 03             	mov    %rax,(%rbx)
    648a:	48 8b 75 00          	mov    0x0(%rbp),%rsi
    648e:	48 8b 55 08          	mov    0x8(%rbp),%rdx
    6492:	48 01 f2             	add    %rsi,%rdx
    6495:	e8 36 fd ff ff       	callq  61d0 <_ZNSt7__cxx1112basic_stringIcSt11char_traitsIcESaIcEE12_M_constructIPKcEEvT_S8_St20forward_iterator_tag.isra.52>
    649a:	48 89 d8             	mov    %rbx,%rax
    649d:	48 8b 5c 24 68       	mov    0x68(%rsp),%rbx
    64a2:	64 48 33 1c 25 28 00 	xor    %fs:0x28,%rbx
    64a9:	00 00 
    64ab:	0f 85 ad 00 00 00    	jne    655e <_Z5chencRKNSt7__cxx1112basic_stringIcSt11char_traitsIcESaIcEEEPKcS8_+0x2be>
    64b1:	48 83 c4 78          	add    $0x78,%rsp
    64b5:	5b                   	pop    %rbx
    64b6:	5d                   	pop    %rbp
    64b7:	41 5c                	pop    %r12
    64b9:	41 5d                	pop    %r13
    64bb:	41 5e                	pop    %r14
    64bd:	41 5f                	pop    %r15
    64bf:	c3                   	retq   
    64c0:	66 0f 6f 44 24 50    	movdqa 0x50(%rsp),%xmm0
    64c6:	0f 11 43 10          	movups %xmm0,0x10(%rbx)
    64ca:	eb a8                	jmp    6474 <_Z5chencRKNSt7__cxx1112basic_stringIcSt11char_traitsIcESaIcEEEPKcS8_+0x1d4>
    64cc:	0f 1f 40 00          	nopl   0x0(%rax)
    64d0:	48 8d 3d d6 ac 00 00 	lea    0xacd6(%rip),%rdi        # 111ad <_IO_stdin_used+0xdad>
    64d7:	e8 34 e1 ff ff       	callq  4610 <gettext@plt>
    64dc:	48 8b 3d 1d ed 20 00 	mov    0x20ed1d(%rip),%rdi        # 215200 <stderr@@GLIBC_2.2.5>
    64e3:	48 89 c2             	mov    %rax,%rdx
    64e6:	4d 89 e8             	mov    %r13,%r8
    64e9:	4c 89 f1             	mov    %r14,%rcx
    64ec:	be 01 00 00 00       	mov    $0x1,%esi
    64f1:	31 c0                	xor    %eax,%eax
    64f3:	e8 e8 e5 ff ff       	callq  4ae0 <__fprintf_chk@plt>
    64f8:	e9 3a ff ff ff       	jmpq   6437 <_Z5chencRKNSt7__cxx1112basic_stringIcSt11char_traitsIcESaIcEEEPKcS8_+0x197>
    64fd:	0f 1f 00             	nopl   (%rax)
    6500:	48 8d 3d 88 ac 00 00 	lea    0xac88(%rip),%rdi        # 1118f <_IO_stdin_used+0xd8f>
    6507:	e8 04 e1 ff ff       	callq  4610 <gettext@plt>
    650c:	48 8b 3d ed ec 20 00 	mov    0x20eced(%rip),%rdi        # 215200 <stderr@@GLIBC_2.2.5>
    6513:	48 89 c2             	mov    %rax,%rdx
    6516:	4d 89 e8             	mov    %r13,%r8
    6519:	4c 89 f1             	mov    %r14,%rcx
    651c:	be 01 00 00 00       	mov    $0x1,%esi
    6521:	31 c0                	xor    %eax,%eax
    6523:	e8 b8 e5 ff ff       	callq  4ae0 <__fprintf_chk@plt>
    6528:	48 8d 43 10          	lea    0x10(%rbx),%rax
    652c:	48 89 df             	mov    %rbx,%rdi
    652f:	48 89 03             	mov    %rax,(%rbx)
    6532:	48 8b 75 00          	mov    0x0(%rbp),%rsi
    6536:	48 8b 55 08          	mov    0x8(%rbp),%rdx
    653a:	48 01 f2             	add    %rsi,%rdx
    653d:	e8 8e fc ff ff       	callq  61d0 <_ZNSt7__cxx1112basic_stringIcSt11char_traitsIcESaIcEE12_M_constructIPKcEEvT_S8_St20forward_iterator_tag.isra.52>
    6542:	48 8b 7c 24 40       	mov    0x40(%rsp),%rdi
    6547:	49 83 c4 10          	add    $0x10,%r12
    654b:	4c 39 e7             	cmp    %r12,%rdi
    654e:	0f 84 46 ff ff ff    	je     649a <_Z5chencRKNSt7__cxx1112basic_stringIcSt11char_traitsIcESaIcEEEPKcS8_+0x1fa>
    6554:	e8 a7 e2 ff ff       	callq  4800 <_ZdlPv@plt>
    6559:	e9 3c ff ff ff       	jmpq   649a <_Z5chencRKNSt7__cxx1112basic_stringIcSt11char_traitsIcESaIcEEEPKcS8_+0x1fa>
    655e:	e8 2d e3 ff ff       	callq  4890 <__stack_chk_fail@plt>
    6563:	48 8b 7c 24 40       	mov    0x40(%rsp),%rdi
    6568:	49 83 c4 10          	add    $0x10,%r12
    656c:	48 89 c3             	mov    %rax,%rbx
    656f:	4c 39 e7             	cmp    %r12,%rdi
    6572:	74 05                	je     6579 <_Z5chencRKNSt7__cxx1112basic_stringIcSt11char_traitsIcESaIcEEEPKcS8_+0x2d9>
    6574:	e8 87 e2 ff ff       	callq  4800 <_ZdlPv@plt>
    6579:	48 89 df             	mov    %rbx,%rdi
    657c:	e8 8f e5 ff ff       	callq  4b10 <_Unwind_Resume@plt>
    6581:	0f 1f 44 00 00       	nopl   0x0(%rax,%rax,1)
    6586:	66 2e 0f 1f 84 00 00 	nopw   %cs:0x0(%rax,%rax,1)
    658d:	00 00 00 

0000000000006590 <_Z6putdicRKNSt7__cxx1112basic_stringIcSt11char_traitsIcESaIcEEEP8Hunspell>:
    6590:	41 56                	push   %r14
    6592:	41 55                	push   %r13
    6594:	49 89 f6             	mov    %rsi,%r14
    6597:	41 54                	push   %r12
    6599:	55                   	push   %rbp
    659a:	48 89 fe             	mov    %rdi,%rsi
    659d:	53                   	push   %rbx
    659e:	48 83 ec 70          	sub    $0x70,%rsp
    65a2:	48 8b 15 ef ec 20 00 	mov    0x20ecef(%rip),%rdx        # 215298 <ui_enc>
    65a9:	48 8b 0d 90 ec 20 00 	mov    0x20ec90(%rip),%rcx        # 215240 <dic_enc>
    65b0:	49 89 e4             	mov    %rsp,%r12
    65b3:	48 8d 5c 24 20       	lea    0x20(%rsp),%rbx
    65b8:	48 8d 6c 24 40       	lea    0x40(%rsp),%rbp
    65bd:	4c 89 e7             	mov    %r12,%rdi
    65c0:	64 48 8b 04 25 28 00 	mov    %fs:0x28,%rax
    65c7:	00 00 
    65c9:	48 89 44 24 68       	mov    %rax,0x68(%rsp)
    65ce:	31 c0                	xor    %eax,%eax
    65d0:	e8 cb fc ff ff       	callq  62a0 <_Z5chencRKNSt7__cxx1112basic_stringIcSt11char_traitsIcESaIcEEEPKcS8_>
    65d5:	48 8d 43 10          	lea    0x10(%rbx),%rax
    65d9:	4c 8b 2c 24          	mov    (%rsp),%r13
    65dd:	48 c7 44 24 28 00 00 	movq   $0x0,0x28(%rsp)
    65e4:	00 00 
    65e6:	c6 44 24 30 00       	movb   $0x0,0x30(%rsp)
    65eb:	48 c7 c2 ff ff ff ff 	mov    $0xffffffffffffffff,%rdx
    65f2:	48 89 44 24 20       	mov    %rax,0x20(%rsp)
    65f7:	48 8d 45 10          	lea    0x10(%rbp),%rax
    65fb:	4d 85 ed             	test   %r13,%r13
    65fe:	48 89 44 24 40       	mov    %rax,0x40(%rsp)
    6603:	74 0d                	je     6612 <_Z6putdicRKNSt7__cxx1112basic_stringIcSt11char_traitsIcESaIcEEEP8Hunspell+0x82>
    6605:	4c 89 ef             	mov    %r13,%rdi
    6608:	e8 e3 e0 ff ff       	callq  46f0 <strlen@plt>
    660d:	49 8d 54 05 00       	lea    0x0(%r13,%rax,1),%rdx
    6612:	4c 89 ee             	mov    %r13,%rsi
    6615:	48 89 ef             	mov    %rbp,%rdi
    6618:	e8 b3 fb ff ff       	callq  61d0 <_ZNSt7__cxx1112basic_stringIcSt11char_traitsIcESaIcEE12_M_constructIPKcEEvT_S8_St20forward_iterator_tag.isra.52>
    661d:	48 89 da             	mov    %rbx,%rdx
    6620:	48 89 ee             	mov    %rbp,%rsi
    6623:	4c 89 f7             	mov    %r14,%rdi
    6626:	e8 c5 e3 ff ff       	callq  49f0 <_ZN8Hunspell10input_convERKNSt7__cxx1112basic_stringIcSt11char_traitsIcESaIcEEERS5_@plt>
    662b:	48 8b 7c 24 40       	mov    0x40(%rsp),%rdi
    6630:	48 8d 45 10          	lea    0x10(%rbp),%rax
    6634:	48 39 c7             	cmp    %rax,%rdi
    6637:	74 05                	je     663e <_Z6putdicRKNSt7__cxx1112basic_stringIcSt11char_traitsIcESaIcEEEP8Hunspell+0xae>
    6639:	e8 c2 e1 ff ff       	callq  4800 <_ZdlPv@plt>
    663e:	48 89 de             	mov    %rbx,%rsi
    6641:	4c 89 e7             	mov    %r12,%rdi
    6644:	e8 e7 e0 ff ff       	callq  4730 <_ZNSt7__cxx1112basic_stringIcSt11char_traitsIcESaIcEE9_M_assignERKS4_@plt>
    6649:	45 31 ed             	xor    %r13d,%r13d
    664c:	48 83 7c 24 08 00    	cmpq   $0x0,0x8(%rsp)
    6652:	75 4c                	jne    66a0 <_Z6putdicRKNSt7__cxx1112basic_stringIcSt11char_traitsIcESaIcEEEP8Hunspell+0x110>
    6654:	48 8b 7c 24 20       	mov    0x20(%rsp),%rdi
    6659:	48 83 c3 10          	add    $0x10,%rbx
    665d:	48 39 df             	cmp    %rbx,%rdi
    6660:	74 05                	je     6667 <_Z6putdicRKNSt7__cxx1112basic_stringIcSt11char_traitsIcESaIcEEEP8Hunspell+0xd7>
    6662:	e8 99 e1 ff ff       	callq  4800 <_ZdlPv@plt>
    6667:	48 8b 3c 24          	mov    (%rsp),%rdi
    666b:	49 83 c4 10          	add    $0x10,%r12
    666f:	4c 39 e7             	cmp    %r12,%rdi
    6672:	74 05                	je     6679 <_Z6putdicRKNSt7__cxx1112basic_stringIcSt11char_traitsIcESaIcEEEP8Hunspell+0xe9>
    6674:	e8 87 e1 ff ff       	callq  4800 <_ZdlPv@plt>
    6679:	48 8b 4c 24 68       	mov    0x68(%rsp),%rcx
    667e:	64 48 33 0c 25 28 00 	xor    %fs:0x28,%rcx
    6685:	00 00 
    6687:	44 89 e8             	mov    %r13d,%eax
    668a:	0f 85 19 01 00 00    	jne    67a9 <_Z6putdicRKNSt7__cxx1112basic_stringIcSt11char_traitsIcESaIcEEEP8Hunspell+0x219>
    6690:	48 83 c4 70          	add    $0x70,%rsp
    6694:	5b                   	pop    %rbx
    6695:	5d                   	pop    %rbp
    6696:	41 5c                	pop    %r12
    6698:	41 5d                	pop    %r13
    669a:	41 5e                	pop    %r14
    669c:	c3                   	retq   
    669d:	0f 1f 00             	nopl   (%rax)
    66a0:	ba 01 00 00 00       	mov    $0x1,%edx
    66a5:	be 2f 00 00 00       	mov    $0x2f,%esi
    66aa:	4c 89 e7             	mov    %r12,%rdi
    66ad:	e8 fe e2 ff ff       	callq  49b0 <_ZNKSt7__cxx1112basic_stringIcSt11char_traitsIcESaIcEE4findEcm@plt>
    66b2:	48 83 f8 ff          	cmp    $0xffffffffffffffff,%rax
    66b6:	49 89 c5             	mov    %rax,%r13
    66b9:	75 25                	jne    66e0 <_Z6putdicRKNSt7__cxx1112basic_stringIcSt11char_traitsIcESaIcEEEP8Hunspell+0x150>
    66bb:	48 8b 34 24          	mov    (%rsp),%rsi
    66bf:	80 3e 2a             	cmpb   $0x2a,(%rsi)
    66c2:	0f 84 98 00 00 00    	je     6760 <_Z6putdicRKNSt7__cxx1112basic_stringIcSt11char_traitsIcESaIcEEEP8Hunspell+0x1d0>
    66c8:	4c 89 e6             	mov    %r12,%rsi
    66cb:	4c 89 f7             	mov    %r14,%rdi
    66ce:	e8 cd e4 ff ff       	callq  4ba0 <_ZN8Hunspell3addERKNSt7__cxx1112basic_stringIcSt11char_traitsIcESaIcEEE@plt>
    66d3:	41 89 c5             	mov    %eax,%r13d
    66d6:	e9 79 ff ff ff       	jmpq   6654 <_Z6putdicRKNSt7__cxx1112basic_stringIcSt11char_traitsIcESaIcEEEP8Hunspell+0xc4>
    66db:	0f 1f 44 00 00       	nopl   0x0(%rax,%rax,1)
    66e0:	48 8b 54 24 08       	mov    0x8(%rsp),%rdx
    66e5:	48 8d 40 01          	lea    0x1(%rax),%rax
    66e9:	48 39 d0             	cmp    %rdx,%rax
    66ec:	0f 87 bc 00 00 00    	ja     67ae <_Z6putdicRKNSt7__cxx1112basic_stringIcSt11char_traitsIcESaIcEEEP8Hunspell+0x21e>
    66f2:	48 8b 34 24          	mov    (%rsp),%rsi
    66f6:	48 8d 4d 10          	lea    0x10(%rbp),%rcx
    66fa:	48 89 ef             	mov    %rbp,%rdi
    66fd:	48 89 4c 24 40       	mov    %rcx,0x40(%rsp)
    6702:	48 01 f2             	add    %rsi,%rdx
    6705:	48 01 c6             	add    %rax,%rsi
    6708:	e8 c3 fa ff ff       	callq  61d0 <_ZNSt7__cxx1112basic_stringIcSt11char_traitsIcESaIcEE12_M_constructIPKcEEvT_S8_St20forward_iterator_tag.isra.52>
    670d:	31 d2                	xor    %edx,%edx
    670f:	4c 89 ee             	mov    %r13,%rsi
    6712:	4c 89 e7             	mov    %r12,%rdi
    6715:	e8 76 df ff ff       	callq  4690 <_ZNSt7__cxx1112basic_stringIcSt11char_traitsIcESaIcEE6resizeEmc@plt>
    671a:	48 83 7c 24 48 00    	cmpq   $0x0,0x48(%rsp)
    6720:	74 0a                	je     672c <_Z6putdicRKNSt7__cxx1112basic_stringIcSt11char_traitsIcESaIcEEEP8Hunspell+0x19c>
    6722:	48 8b 44 24 40       	mov    0x40(%rsp),%rax
    6727:	80 38 2f             	cmpb   $0x2f,(%rax)
    672a:	74 6c                	je     6798 <_Z6putdicRKNSt7__cxx1112basic_stringIcSt11char_traitsIcESaIcEEEP8Hunspell+0x208>
    672c:	48 89 ea             	mov    %rbp,%rdx
    672f:	4c 89 e6             	mov    %r12,%rsi
    6732:	4c 89 f7             	mov    %r14,%rdi
    6735:	e8 06 e1 ff ff       	callq  4840 <_ZN8Hunspell14add_with_affixERKNSt7__cxx1112basic_stringIcSt11char_traitsIcESaIcEEES7_@plt>
    673a:	48 8b 7c 24 40       	mov    0x40(%rsp),%rdi
    673f:	48 83 c5 10          	add    $0x10,%rbp
    6743:	41 89 c5             	mov    %eax,%r13d
    6746:	48 39 ef             	cmp    %rbp,%rdi
    6749:	0f 84 05 ff ff ff    	je     6654 <_Z6putdicRKNSt7__cxx1112basic_stringIcSt11char_traitsIcESaIcEEEP8Hunspell+0xc4>
    674f:	e8 ac e0 ff ff       	callq  4800 <_ZdlPv@plt>
    6754:	e9 fb fe ff ff       	jmpq   6654 <_Z6putdicRKNSt7__cxx1112basic_stringIcSt11char_traitsIcESaIcEEEP8Hunspell+0xc4>
    6759:	0f 1f 80 00 00 00 00 	nopl   0x0(%rax)
    6760:	48 8b 54 24 08       	mov    0x8(%rsp),%rdx
    6765:	48 85 d2             	test   %rdx,%rdx
    6768:	0f 84 a7 00 00 00    	je     6815 <_Z6putdicRKNSt7__cxx1112basic_stringIcSt11char_traitsIcESaIcEEEP8Hunspell+0x285>
    676e:	48 8d 45 10          	lea    0x10(%rbp),%rax
    6772:	48 01 f2             	add    %rsi,%rdx
    6775:	48 89 ef             	mov    %rbp,%rdi
    6778:	48 83 c6 01          	add    $0x1,%rsi
    677c:	48 89 44 24 40       	mov    %rax,0x40(%rsp)
    6781:	e8 4a fa ff ff       	callq  61d0 <_ZNSt7__cxx1112basic_stringIcSt11char_traitsIcESaIcEE12_M_constructIPKcEEvT_S8_St20forward_iterator_tag.isra.52>
    6786:	48 89 ee             	mov    %rbp,%rsi
    6789:	4c 89 f7             	mov    %r14,%rdi
    678c:	e8 4f e1 ff ff       	callq  48e0 <_ZN8Hunspell6removeERKNSt7__cxx1112basic_stringIcSt11char_traitsIcESaIcEEE@plt>
    6791:	eb a7                	jmp    673a <_Z6putdicRKNSt7__cxx1112basic_stringIcSt11char_traitsIcESaIcEEEP8Hunspell+0x1aa>
    6793:	0f 1f 44 00 00       	nopl   0x0(%rax,%rax,1)
    6798:	ba 01 00 00 00       	mov    $0x1,%edx
    679d:	31 f6                	xor    %esi,%esi
    679f:	48 89 ef             	mov    %rbp,%rdi
    67a2:	e8 99 e1 ff ff       	callq  4940 <_ZNSt7__cxx1112basic_stringIcSt11char_traitsIcESaIcEE8_M_eraseEmm@plt>
    67a7:	eb 83                	jmp    672c <_Z6putdicRKNSt7__cxx1112basic_stringIcSt11char_traitsIcESaIcEEEP8Hunspell+0x19c>
    67a9:	e8 e2 e0 ff ff       	callq  4890 <__stack_chk_fail@plt>
    67ae:	48 8d 35 11 aa 00 00 	lea    0xaa11(%rip),%rsi        # 111c6 <_IO_stdin_used+0xdc6>
    67b5:	48 8d 3d 7c 9c 00 00 	lea    0x9c7c(%rip),%rdi        # 10438 <_IO_stdin_used+0x38>
    67bc:	48 89 d1             	mov    %rdx,%rcx
    67bf:	48 89 c2             	mov    %rax,%rdx
    67c2:	31 c0                	xor    %eax,%eax
    67c4:	e8 77 e2 ff ff       	callq  4a40 <_ZSt24__throw_out_of_range_fmtPKcz@plt>
    67c9:	49 89 c5             	mov    %rax,%r13
    67cc:	48 8b 7c 24 20       	mov    0x20(%rsp),%rdi
    67d1:	48 83 c3 10          	add    $0x10,%rbx
    67d5:	48 39 df             	cmp    %rbx,%rdi
    67d8:	74 05                	je     67df <_Z6putdicRKNSt7__cxx1112basic_stringIcSt11char_traitsIcESaIcEEEP8Hunspell+0x24f>
    67da:	e8 21 e0 ff ff       	callq  4800 <_ZdlPv@plt>
    67df:	48 8b 3c 24          	mov    (%rsp),%rdi
    67e3:	49 83 c4 10          	add    $0x10,%r12
    67e7:	4c 39 e7             	cmp    %r12,%rdi
    67ea:	74 05                	je     67f1 <_Z6putdicRKNSt7__cxx1112basic_stringIcSt11char_traitsIcESaIcEEEP8Hunspell+0x261>
    67ec:	e8 0f e0 ff ff       	callq  4800 <_ZdlPv@plt>
    67f1:	4c 89 ef             	mov    %r13,%rdi
    67f4:	e8 17 e3 ff ff       	callq  4b10 <_Unwind_Resume@plt>
    67f9:	48 8b 7c 24 40       	mov    0x40(%rsp),%rdi
    67fe:	48 83 c5 10          	add    $0x10,%rbp
    6802:	49 89 c5             	mov    %rax,%r13
    6805:	48 39 ef             	cmp    %rbp,%rdi
    6808:	74 c2                	je     67cc <_Z6putdicRKNSt7__cxx1112basic_stringIcSt11char_traitsIcESaIcEEEP8Hunspell+0x23c>
    680a:	e8 f1 df ff ff       	callq  4800 <_ZdlPv@plt>
    680f:	eb bb                	jmp    67cc <_Z6putdicRKNSt7__cxx1112basic_stringIcSt11char_traitsIcESaIcEEEP8Hunspell+0x23c>
    6811:	eb e6                	jmp    67f9 <_Z6putdicRKNSt7__cxx1112basic_stringIcSt11char_traitsIcESaIcEEEP8Hunspell+0x269>
    6813:	eb e4                	jmp    67f9 <_Z6putdicRKNSt7__cxx1112basic_stringIcSt11char_traitsIcESaIcEEEP8Hunspell+0x269>
    6815:	48 8d 35 aa a9 00 00 	lea    0xa9aa(%rip),%rsi        # 111c6 <_IO_stdin_used+0xdc6>
    681c:	48 8d 3d 15 9c 00 00 	lea    0x9c15(%rip),%rdi        # 10438 <_IO_stdin_used+0x38>
    6823:	31 c9                	xor    %ecx,%ecx
    6825:	ba 01 00 00 00       	mov    $0x1,%edx
    682a:	31 c0                	xor    %eax,%eax
    682c:	e8 0f e2 ff ff       	callq  4a40 <_ZSt24__throw_out_of_range_fmtPKcz@plt>
    6831:	0f 1f 44 00 00       	nopl   0x0(%rax,%rax,1)
    6836:	66 2e 0f 1f 84 00 00 	nopw   %cs:0x0(%rax,%rax,1)
    683d:	00 00 00 

0000000000006840 <_Z12load_privdicPKcP8Hunspell>:
    6840:	41 57                	push   %r15
    6842:	41 56                	push   %r14
    6844:	49 89 f6             	mov    %rsi,%r14
    6847:	41 55                	push   %r13
    6849:	41 54                	push   %r12
    684b:	4c 8d 3d c6 dd 20 00 	lea    0x20ddc6(%rip),%r15        # 214618 <_ZTVSt9basic_iosIcSt11char_traitsIcEE@@GLIBCXX_3.4+0x10>
    6852:	55                   	push   %rbp
    6853:	53                   	push   %rbx
    6854:	48 89 fb             	mov    %rdi,%rbx
    6857:	48 81 ec 38 02 00 00 	sub    $0x238,%rsp
    685e:	48 8d 6c 24 20       	lea    0x20(%rsp),%rbp
    6863:	64 48 8b 04 25 28 00 	mov    %fs:0x28,%rax
    686a:	00 00 
    686c:	48 89 84 24 28 02 00 	mov    %rax,0x228(%rsp)
    6873:	00 
    6874:	31 c0                	xor    %eax,%eax
    6876:	48 8d bd 00 01 00 00 	lea    0x100(%rbp),%rdi
    687d:	e8 fe dd ff ff       	callq  4680 <_ZNSt8ios_baseC2Ev@plt>
    6882:	4c 8b 2d 67 df 20 00 	mov    0x20df67(%rip),%r13        # 2147f0 <_ZTTSt14basic_ifstreamIcSt11char_traitsIcEE@@GLIBCXX_3.4+0x8>
    6889:	c6 84 24 00 02 00 00 	movb   $0x0,0x200(%rsp)
    6890:	00 
    6891:	31 f6                	xor    %esi,%esi
    6893:	48 8b 0d 5e df 20 00 	mov    0x20df5e(%rip),%rcx        # 2147f8 <_ZTTSt14basic_ifstreamIcSt11char_traitsIcEE@@GLIBCXX_3.4+0x10>
    689a:	4c 89 bc 24 20 01 00 	mov    %r15,0x120(%rsp)
    68a1:	00 
    68a2:	48 c7 84 24 f8 01 00 	movq   $0x0,0x1f8(%rsp)
    68a9:	00 00 00 00 00 
    68ae:	c6 84 24 01 02 00 00 	movb   $0x0,0x201(%rsp)
    68b5:	00 
    68b6:	49 8b 45 e8          	mov    -0x18(%r13),%rax
    68ba:	48 c7 84 24 08 02 00 	movq   $0x0,0x208(%rsp)
    68c1:	00 00 00 00 00 
    68c6:	48 c7 84 24 10 02 00 	movq   $0x0,0x210(%rsp)
    68cd:	00 00 00 00 00 
    68d2:	48 c7 84 24 18 02 00 	movq   $0x0,0x218(%rsp)
    68d9:	00 00 00 00 00 
    68de:	48 c7 84 24 20 02 00 	movq   $0x0,0x220(%rsp)
    68e5:	00 00 00 00 00 
    68ea:	4c 89 6c 24 20       	mov    %r13,0x20(%rsp)
    68ef:	48 89 4c 04 20       	mov    %rcx,0x20(%rsp,%rax,1)
    68f4:	48 c7 44 24 28 00 00 	movq   $0x0,0x28(%rsp)
    68fb:	00 00 
    68fd:	49 8b 7d e8          	mov    -0x18(%r13),%rdi
    6901:	48 01 ef             	add    %rbp,%rdi
    6904:	e8 b7 e0 ff ff       	callq  49c0 <_ZNSt9basic_iosIcSt11char_traitsIcEE4initEPSt15basic_streambufIcS1_E@plt>
    6909:	48 8d 05 00 de 20 00 	lea    0x20de00(%rip),%rax        # 214710 <_ZTVSt14basic_ifstreamIcSt11char_traitsIcEE@@GLIBCXX_3.4+0x18>
    6910:	48 8d 7d 10          	lea    0x10(%rbp),%rdi
    6914:	48 89 44 24 20       	mov    %rax,0x20(%rsp)
    6919:	48 83 c0 28          	add    $0x28,%rax
    691d:	48 89 84 24 20 01 00 	mov    %rax,0x120(%rsp)
    6924:	00 
    6925:	e8 46 df ff ff       	callq  4870 <_ZNSt13basic_filebufIcSt11char_traitsIcEEC1Ev@plt>
    692a:	48 8d 75 10          	lea    0x10(%rbp),%rsi
    692e:	48 8d bd 00 01 00 00 	lea    0x100(%rbp),%rdi
    6935:	e8 86 e0 ff ff       	callq  49c0 <_ZNSt9basic_iosIcSt11char_traitsIcEE4initEPSt15basic_streambufIcS1_E@plt>
    693a:	48 8d 7d 10          	lea    0x10(%rbp),%rdi
    693e:	ba 08 00 00 00       	mov    $0x8,%edx
    6943:	48 89 de             	mov    %rbx,%rsi
    6946:	e8 a5 de ff ff       	callq  47f0 <_ZNSt13basic_filebufIcSt11char_traitsIcEE4openEPKcSt13_Ios_Openmode@plt>
    694b:	48 8b 54 24 20       	mov    0x20(%rsp),%rdx
    6950:	48 8b 7a e8          	mov    -0x18(%rdx),%rdi
    6954:	48 01 ef             	add    %rbp,%rdi
    6957:	48 85 c0             	test   %rax,%rax
    695a:	0f 84 68 01 00 00    	je     6ac8 <_Z12load_privdicPKcP8Hunspell+0x288>
    6960:	31 f6                	xor    %esi,%esi
    6962:	e8 89 e1 ff ff       	callq  4af0 <_ZNSt9basic_iosIcSt11char_traitsIcEE5clearESt12_Ios_Iostate@plt>
    6967:	48 8d 7d 78          	lea    0x78(%rbp),%rdi
    696b:	e8 d0 dc ff ff       	callq  4640 <_ZNKSt12__basic_fileIcE7is_openEv@plt>
    6970:	84 c0                	test   %al,%al
    6972:	0f 84 aa 00 00 00    	je     6a22 <_Z12load_privdicPKcP8Hunspell+0x1e2>
    6978:	49 89 e4             	mov    %rsp,%r12
    697b:	48 c7 44 24 08 00 00 	movq   $0x0,0x8(%rsp)
    6982:	00 00 
    6984:	c6 44 24 10 00       	movb   $0x0,0x10(%rsp)
    6989:	49 8d 44 24 10       	lea    0x10(%r12),%rax
    698e:	48 89 04 24          	mov    %rax,(%rsp)
    6992:	eb 2c                	jmp    69c0 <_Z12load_privdicPKcP8Hunspell+0x180>
    6994:	0f 1f 40 00          	nopl   0x0(%rax)
    6998:	0f be 53 43          	movsbl 0x43(%rbx),%edx
    699c:	4c 89 e6             	mov    %r12,%rsi
    699f:	48 89 ef             	mov    %rbp,%rdi
    69a2:	e8 b9 e1 ff ff       	callq  4b60 <_ZSt7getlineIcSt11char_traitsIcESaIcEERSt13basic_istreamIT_T0_ES7_RNSt7__cxx1112basic_stringIS4_S5_T1_EES4_@plt>
    69a7:	48 8b 10             	mov    (%rax),%rdx
    69aa:	48 8b 52 e8          	mov    -0x18(%rdx),%rdx
    69ae:	f6 44 10 20 05       	testb  $0x5,0x20(%rax,%rdx,1)
    69b3:	75 5b                	jne    6a10 <_Z12load_privdicPKcP8Hunspell+0x1d0>
    69b5:	4c 89 f6             	mov    %r14,%rsi
    69b8:	4c 89 e7             	mov    %r12,%rdi
    69bb:	e8 d0 fb ff ff       	callq  6590 <_Z6putdicRKNSt7__cxx1112basic_stringIcSt11char_traitsIcESaIcEEEP8Hunspell>
    69c0:	48 8b 44 24 20       	mov    0x20(%rsp),%rax
    69c5:	48 8b 40 e8          	mov    -0x18(%rax),%rax
    69c9:	48 8b 9c 04 10 01 00 	mov    0x110(%rsp,%rax,1),%rbx
    69d0:	00 
    69d1:	48 85 db             	test   %rbx,%rbx
    69d4:	0f 84 fe 00 00 00    	je     6ad8 <_Z12load_privdicPKcP8Hunspell+0x298>
    69da:	80 7b 38 00          	cmpb   $0x0,0x38(%rbx)
    69de:	75 b8                	jne    6998 <_Z12load_privdicPKcP8Hunspell+0x158>
    69e0:	48 89 df             	mov    %rbx,%rdi
    69e3:	e8 18 df ff ff       	callq  4900 <_ZNKSt5ctypeIcE13_M_widen_initEv@plt>
    69e8:	48 8b 03             	mov    (%rbx),%rax
    69eb:	48 8d 0d ee 57 00 00 	lea    0x57ee(%rip),%rcx        # c1e0 <_ZNKSt5ctypeIcE8do_widenEc>
    69f2:	ba 0a 00 00 00       	mov    $0xa,%edx
    69f7:	48 8b 40 30          	mov    0x30(%rax),%rax
    69fb:	48 39 c8             	cmp    %rcx,%rax
    69fe:	74 9c                	je     699c <_Z12load_privdicPKcP8Hunspell+0x15c>
    6a00:	be 0a 00 00 00       	mov    $0xa,%esi
    6a05:	48 89 df             	mov    %rbx,%rdi
    6a08:	ff d0                	callq  *%rax
    6a0a:	0f be d0             	movsbl %al,%edx
    6a0d:	eb 8d                	jmp    699c <_Z12load_privdicPKcP8Hunspell+0x15c>
    6a0f:	90                   	nop
    6a10:	48 8b 3c 24          	mov    (%rsp),%rdi
    6a14:	49 83 c4 10          	add    $0x10,%r12
    6a18:	4c 39 e7             	cmp    %r12,%rdi
    6a1b:	74 05                	je     6a22 <_Z12load_privdicPKcP8Hunspell+0x1e2>
    6a1d:	e8 de dd ff ff       	callq  4800 <_ZdlPv@plt>
    6a22:	48 8d 05 e7 dc 20 00 	lea    0x20dce7(%rip),%rax        # 214710 <_ZTVSt14basic_ifstreamIcSt11char_traitsIcEE@@GLIBCXX_3.4+0x18>
    6a29:	48 8d 7d 10          	lea    0x10(%rbp),%rdi
    6a2d:	48 89 44 24 20       	mov    %rax,0x20(%rsp)
    6a32:	48 83 c0 28          	add    $0x28,%rax
    6a36:	48 89 84 24 20 01 00 	mov    %rax,0x120(%rsp)
    6a3d:	00 
    6a3e:	48 8d 05 33 dd 20 00 	lea    0x20dd33(%rip),%rax        # 214778 <_ZTVSt13basic_filebufIcSt11char_traitsIcEE@@GLIBCXX_3.4+0x10>
    6a45:	48 89 44 24 30       	mov    %rax,0x30(%rsp)
    6a4a:	e8 e1 db ff ff       	callq  4630 <_ZNSt13basic_filebufIcSt11char_traitsIcEE5closeEv@plt>
    6a4f:	48 8d 7d 78          	lea    0x78(%rbp),%rdi
    6a53:	e8 28 e1 ff ff       	callq  4b80 <_ZNSt12__basic_fileIcED1Ev@plt>
    6a58:	48 8d 05 d9 db 20 00 	lea    0x20dbd9(%rip),%rax        # 214638 <_ZTVSt15basic_streambufIcSt11char_traitsIcEE@@GLIBCXX_3.4+0x10>
    6a5f:	48 8d 7d 48          	lea    0x48(%rbp),%rdi
    6a63:	48 89 44 24 30       	mov    %rax,0x30(%rsp)
    6a68:	e8 73 df ff ff       	callq  49e0 <_ZNSt6localeD1Ev@plt>
    6a6d:	49 8b 45 e8          	mov    -0x18(%r13),%rax
    6a71:	48 8b 0d 80 dd 20 00 	mov    0x20dd80(%rip),%rcx        # 2147f8 <_ZTTSt14basic_ifstreamIcSt11char_traitsIcEE@@GLIBCXX_3.4+0x10>
    6a78:	48 8d bd 00 01 00 00 	lea    0x100(%rbp),%rdi
    6a7f:	4c 89 6c 24 20       	mov    %r13,0x20(%rsp)
    6a84:	48 89 4c 04 20       	mov    %rcx,0x20(%rsp,%rax,1)
    6a89:	48 c7 44 24 28 00 00 	movq   $0x0,0x28(%rsp)
    6a90:	00 00 
    6a92:	4c 89 bc 24 20 01 00 	mov    %r15,0x120(%rsp)
    6a99:	00 
    6a9a:	e8 11 dc ff ff       	callq  46b0 <_ZNSt8ios_baseD2Ev@plt>
    6a9f:	48 8b 84 24 28 02 00 	mov    0x228(%rsp),%rax
    6aa6:	00 
    6aa7:	64 48 33 04 25 28 00 	xor    %fs:0x28,%rax
    6aae:	00 00 
    6ab0:	75 50                	jne    6b02 <_Z12load_privdicPKcP8Hunspell+0x2c2>
    6ab2:	48 81 c4 38 02 00 00 	add    $0x238,%rsp
    6ab9:	5b                   	pop    %rbx
    6aba:	5d                   	pop    %rbp
    6abb:	41 5c                	pop    %r12
    6abd:	41 5d                	pop    %r13
    6abf:	41 5e                	pop    %r14
    6ac1:	41 5f                	pop    %r15
    6ac3:	c3                   	retq   
    6ac4:	0f 1f 40 00          	nopl   0x0(%rax)
    6ac8:	8b 77 20             	mov    0x20(%rdi),%esi
    6acb:	83 ce 04             	or     $0x4,%esi
    6ace:	e8 1d e0 ff ff       	callq  4af0 <_ZNSt9basic_iosIcSt11char_traitsIcEE5clearESt12_Ios_Iostate@plt>
    6ad3:	e9 8f fe ff ff       	jmpq   6967 <_Z12load_privdicPKcP8Hunspell+0x127>
    6ad8:	e8 b3 de ff ff       	callq  4990 <_ZSt16__throw_bad_castv@plt>
    6add:	48 8b 3c 24          	mov    (%rsp),%rdi
    6ae1:	49 83 c4 10          	add    $0x10,%r12
    6ae5:	48 89 c3             	mov    %rax,%rbx
    6ae8:	4c 39 e7             	cmp    %r12,%rdi
    6aeb:	74 05                	je     6af2 <_Z12load_privdicPKcP8Hunspell+0x2b2>
    6aed:	e8 0e dd ff ff       	callq  4800 <_ZdlPv@plt>
    6af2:	48 89 ef             	mov    %rbp,%rdi
    6af5:	e8 66 db ff ff       	callq  4660 <_ZNSt14basic_ifstreamIcSt11char_traitsIcEED1Ev@plt>
    6afa:	48 89 df             	mov    %rbx,%rdi
    6afd:	e8 0e e0 ff ff       	callq  4b10 <_Unwind_Resume@plt>
    6b02:	e8 89 dd ff ff       	callq  4890 <__stack_chk_fail@plt>
    6b07:	48 89 c3             	mov    %rax,%rbx
    6b0a:	eb e6                	jmp    6af2 <_Z12load_privdicPKcP8Hunspell+0x2b2>
    6b0c:	48 8d 7d 10          	lea    0x10(%rbp),%rdi
    6b10:	48 89 c3             	mov    %rax,%rbx
    6b13:	e8 58 df ff ff       	callq  4a70 <_ZNSt13basic_filebufIcSt11char_traitsIcEED1Ev@plt>
    6b18:	49 8b 55 e8          	mov    -0x18(%r13),%rdx
    6b1c:	48 8b 05 d5 dc 20 00 	mov    0x20dcd5(%rip),%rax        # 2147f8 <_ZTTSt14basic_ifstreamIcSt11char_traitsIcEE@@GLIBCXX_3.4+0x10>
    6b23:	4c 89 6c 24 20       	mov    %r13,0x20(%rsp)
    6b28:	48 89 44 14 20       	mov    %rax,0x20(%rsp,%rdx,1)
    6b2d:	48 c7 44 24 28 00 00 	movq   $0x0,0x28(%rsp)
    6b34:	00 00 
    6b36:	48 8d bd 00 01 00 00 	lea    0x100(%rbp),%rdi
    6b3d:	4c 89 bc 24 20 01 00 	mov    %r15,0x120(%rsp)
    6b44:	00 
    6b45:	e8 66 db ff ff       	callq  46b0 <_ZNSt8ios_baseD2Ev@plt>
    6b4a:	48 89 df             	mov    %rbx,%rdi
    6b4d:	e8 be df ff ff       	callq  4b10 <_Unwind_Resume@plt>
    6b52:	48 89 c3             	mov    %rax,%rbx
    6b55:	eb c1                	jmp    6b18 <_Z12load_privdicPKcP8Hunspell+0x2d8>
    6b57:	48 89 c3             	mov    %rax,%rbx
    6b5a:	eb da                	jmp    6b36 <_Z12load_privdicPKcP8Hunspell+0x2f6>
    6b5c:	0f 1f 40 00          	nopl   0x0(%rax)

0000000000006b60 <_Z5existPKc>:
    6b60:	41 57                	push   %r15
    6b62:	41 56                	push   %r14
    6b64:	49 89 ff             	mov    %rdi,%r15
    6b67:	41 55                	push   %r13
    6b69:	41 54                	push   %r12
    6b6b:	4c 8d 25 a6 da 20 00 	lea    0x20daa6(%rip),%r12        # 214618 <_ZTVSt9basic_iosIcSt11char_traitsIcEE@@GLIBCXX_3.4+0x10>
    6b72:	55                   	push   %rbp
    6b73:	53                   	push   %rbx
    6b74:	48 81 ec 28 02 00 00 	sub    $0x228,%rsp
    6b7b:	48 8d 5c 24 10       	lea    0x10(%rsp),%rbx
    6b80:	64 48 8b 04 25 28 00 	mov    %fs:0x28,%rax
    6b87:	00 00 
    6b89:	48 89 84 24 18 02 00 	mov    %rax,0x218(%rsp)
    6b90:	00 
    6b91:	31 c0                	xor    %eax,%eax
    6b93:	48 8d bb 00 01 00 00 	lea    0x100(%rbx),%rdi
    6b9a:	e8 e1 da ff ff       	callq  4680 <_ZNSt8ios_baseC2Ev@plt>
    6b9f:	48 8b 2d 4a dc 20 00 	mov    0x20dc4a(%rip),%rbp        # 2147f0 <_ZTTSt14basic_ifstreamIcSt11char_traitsIcEE@@GLIBCXX_3.4+0x8>
    6ba6:	c6 84 24 f0 01 00 00 	movb   $0x0,0x1f0(%rsp)
    6bad:	00 
    6bae:	31 f6                	xor    %esi,%esi
    6bb0:	48 8b 0d 41 dc 20 00 	mov    0x20dc41(%rip),%rcx        # 2147f8 <_ZTTSt14basic_ifstreamIcSt11char_traitsIcEE@@GLIBCXX_3.4+0x10>
    6bb7:	4c 89 a4 24 10 01 00 	mov    %r12,0x110(%rsp)
    6bbe:	00 
    6bbf:	48 c7 84 24 e8 01 00 	movq   $0x0,0x1e8(%rsp)
    6bc6:	00 00 00 00 00 
    6bcb:	c6 84 24 f1 01 00 00 	movb   $0x0,0x1f1(%rsp)
    6bd2:	00 
    6bd3:	48 8b 45 e8          	mov    -0x18(%rbp),%rax
    6bd7:	48 c7 84 24 f8 01 00 	movq   $0x0,0x1f8(%rsp)
    6bde:	00 00 00 00 00 
    6be3:	48 c7 84 24 00 02 00 	movq   $0x0,0x200(%rsp)
    6bea:	00 00 00 00 00 
    6bef:	48 c7 84 24 08 02 00 	movq   $0x0,0x208(%rsp)
    6bf6:	00 00 00 00 00 
    6bfb:	48 c7 84 24 10 02 00 	movq   $0x0,0x210(%rsp)
    6c02:	00 00 00 00 00 
    6c07:	48 89 6c 24 10       	mov    %rbp,0x10(%rsp)
    6c0c:	48 89 4c 04 10       	mov    %rcx,0x10(%rsp,%rax,1)
    6c11:	48 c7 44 24 18 00 00 	movq   $0x0,0x18(%rsp)
    6c18:	00 00 
    6c1a:	48 8b 7d e8          	mov    -0x18(%rbp),%rdi
    6c1e:	48 01 df             	add    %rbx,%rdi
    6c21:	e8 9a dd ff ff       	callq  49c0 <_ZNSt9basic_iosIcSt11char_traitsIcEE4initEPSt15basic_streambufIcS1_E@plt>
    6c26:	4c 8d 35 e3 da 20 00 	lea    0x20dae3(%rip),%r14        # 214710 <_ZTVSt14basic_ifstreamIcSt11char_traitsIcEE@@GLIBCXX_3.4+0x18>
    6c2d:	48 8d 7b 10          	lea    0x10(%rbx),%rdi
    6c31:	4d 8d 6e 28          	lea    0x28(%r14),%r13
    6c35:	4c 89 74 24 10       	mov    %r14,0x10(%rsp)
    6c3a:	4c 89 ac 24 10 01 00 	mov    %r13,0x110(%rsp)
    6c41:	00 
    6c42:	e8 29 dc ff ff       	callq  4870 <_ZNSt13basic_filebufIcSt11char_traitsIcEEC1Ev@plt>
    6c47:	48 8d 73 10          	lea    0x10(%rbx),%rsi
    6c4b:	48 8d bb 00 01 00 00 	lea    0x100(%rbx),%rdi
    6c52:	e8 69 dd ff ff       	callq  49c0 <_ZNSt9basic_iosIcSt11char_traitsIcEE4initEPSt15basic_streambufIcS1_E@plt>
    6c57:	48 8d 7b 10          	lea    0x10(%rbx),%rdi
    6c5b:	ba 08 00 00 00       	mov    $0x8,%edx
    6c60:	4c 89 fe             	mov    %r15,%rsi
    6c63:	e8 88 db ff ff       	callq  47f0 <_ZNSt13basic_filebufIcSt11char_traitsIcEE4openEPKcSt13_Ios_Openmode@plt>
    6c68:	48 8b 54 24 10       	mov    0x10(%rsp),%rdx
    6c6d:	48 8b 7a e8          	mov    -0x18(%rdx),%rdi
    6c71:	48 01 df             	add    %rbx,%rdi
    6c74:	48 85 c0             	test   %rax,%rax
    6c77:	0f 84 b3 00 00 00    	je     6d30 <_Z5existPKc+0x1d0>
    6c7d:	31 f6                	xor    %esi,%esi
    6c7f:	e8 6c de ff ff       	callq  4af0 <_ZNSt9basic_iosIcSt11char_traitsIcEE5clearESt12_Ios_Iostate@plt>
    6c84:	4c 8d 7b 78          	lea    0x78(%rbx),%r15
    6c88:	4c 89 ff             	mov    %r15,%rdi
    6c8b:	e8 b0 d9 ff ff       	callq  4640 <_ZNKSt12__basic_fileIcE7is_openEv@plt>
    6c90:	48 8d 0d e1 da 20 00 	lea    0x20dae1(%rip),%rcx        # 214778 <_ZTVSt13basic_filebufIcSt11char_traitsIcEE@@GLIBCXX_3.4+0x10>
    6c97:	48 8d 7b 10          	lea    0x10(%rbx),%rdi
    6c9b:	88 44 24 0f          	mov    %al,0xf(%rsp)
    6c9f:	4c 89 74 24 10       	mov    %r14,0x10(%rsp)
    6ca4:	4c 89 ac 24 10 01 00 	mov    %r13,0x110(%rsp)
    6cab:	00 
    6cac:	48 89 4c 24 20       	mov    %rcx,0x20(%rsp)
    6cb1:	e8 7a d9 ff ff       	callq  4630 <_ZNSt13basic_filebufIcSt11char_traitsIcEE5closeEv@plt>
    6cb6:	4c 89 ff             	mov    %r15,%rdi
    6cb9:	e8 c2 de ff ff       	callq  4b80 <_ZNSt12__basic_fileIcED1Ev@plt>
    6cbe:	48 8d 15 73 d9 20 00 	lea    0x20d973(%rip),%rdx        # 214638 <_ZTVSt15basic_streambufIcSt11char_traitsIcEE@@GLIBCXX_3.4+0x10>
    6cc5:	48 8d 7b 48          	lea    0x48(%rbx),%rdi
    6cc9:	48 89 54 24 20       	mov    %rdx,0x20(%rsp)
    6cce:	e8 0d dd ff ff       	callq  49e0 <_ZNSt6localeD1Ev@plt>
    6cd3:	48 8b 45 e8          	mov    -0x18(%rbp),%rax
    6cd7:	48 8b 0d 1a db 20 00 	mov    0x20db1a(%rip),%rcx        # 2147f8 <_ZTTSt14basic_ifstreamIcSt11char_traitsIcEE@@GLIBCXX_3.4+0x10>
    6cde:	48 8d bb 00 01 00 00 	lea    0x100(%rbx),%rdi
    6ce5:	48 89 6c 24 10       	mov    %rbp,0x10(%rsp)
    6cea:	48 89 4c 04 10       	mov    %rcx,0x10(%rsp,%rax,1)
    6cef:	48 c7 44 24 18 00 00 	movq   $0x0,0x18(%rsp)
    6cf6:	00 00 
    6cf8:	4c 89 a4 24 10 01 00 	mov    %r12,0x110(%rsp)
    6cff:	00 
    6d00:	e8 ab d9 ff ff       	callq  46b0 <_ZNSt8ios_baseD2Ev@plt>
    6d05:	48 8b 94 24 18 02 00 	mov    0x218(%rsp),%rdx
    6d0c:	00 
    6d0d:	64 48 33 14 25 28 00 	xor    %fs:0x28,%rdx
    6d14:	00 00 
    6d16:	0f b6 44 24 0f       	movzbl 0xf(%rsp),%eax
    6d1b:	75 23                	jne    6d40 <_Z5existPKc+0x1e0>
    6d1d:	48 81 c4 28 02 00 00 	add    $0x228,%rsp
    6d24:	5b                   	pop    %rbx
    6d25:	5d                   	pop    %rbp
    6d26:	41 5c                	pop    %r12
    6d28:	41 5d                	pop    %r13
    6d2a:	41 5e                	pop    %r14
    6d2c:	41 5f                	pop    %r15
    6d2e:	c3                   	retq   
    6d2f:	90                   	nop
    6d30:	8b 77 20             	mov    0x20(%rdi),%esi
    6d33:	83 ce 04             	or     $0x4,%esi
    6d36:	e8 b5 dd ff ff       	callq  4af0 <_ZNSt9basic_iosIcSt11char_traitsIcEE5clearESt12_Ios_Iostate@plt>
    6d3b:	e9 44 ff ff ff       	jmpq   6c84 <_Z5existPKc+0x124>
    6d40:	e8 4b db ff ff       	callq  4890 <__stack_chk_fail@plt>
    6d45:	48 89 c5             	mov    %rax,%rbp
    6d48:	48 89 df             	mov    %rbx,%rdi
    6d4b:	e8 10 d9 ff ff       	callq  4660 <_ZNSt14basic_ifstreamIcSt11char_traitsIcEED1Ev@plt>
    6d50:	48 89 ef             	mov    %rbp,%rdi
    6d53:	e8 b8 dd ff ff       	callq  4b10 <_Unwind_Resume@plt>
    6d58:	48 89 c5             	mov    %rax,%rbp
    6d5b:	48 8d bb 00 01 00 00 	lea    0x100(%rbx),%rdi
    6d62:	4c 89 a4 24 10 01 00 	mov    %r12,0x110(%rsp)
    6d69:	00 
    6d6a:	e8 41 d9 ff ff       	callq  46b0 <_ZNSt8ios_baseD2Ev@plt>
    6d6f:	48 89 ef             	mov    %rbp,%rdi
    6d72:	e8 99 dd ff ff       	callq  4b10 <_Unwind_Resume@plt>
    6d77:	48 8d 7b 10          	lea    0x10(%rbx),%rdi
    6d7b:	49 89 c5             	mov    %rax,%r13
    6d7e:	e8 ed dc ff ff       	callq  4a70 <_ZNSt13basic_filebufIcSt11char_traitsIcEED1Ev@plt>
    6d83:	4c 89 e8             	mov    %r13,%rax
    6d86:	48 8b 55 e8          	mov    -0x18(%rbp),%rdx
    6d8a:	48 8b 0d 67 da 20 00 	mov    0x20da67(%rip),%rcx        # 2147f8 <_ZTTSt14basic_ifstreamIcSt11char_traitsIcEE@@GLIBCXX_3.4+0x10>
    6d91:	48 89 6c 24 10       	mov    %rbp,0x10(%rsp)
    6d96:	48 89 c5             	mov    %rax,%rbp
    6d99:	48 89 4c 14 10       	mov    %rcx,0x10(%rsp,%rdx,1)
    6d9e:	48 c7 44 24 18 00 00 	movq   $0x0,0x18(%rsp)
    6da5:	00 00 
    6da7:	eb b2                	jmp    6d5b <_Z5existPKc+0x1fb>
    6da9:	eb db                	jmp    6d86 <_Z5existPKc+0x226>
    6dab:	0f 1f 44 00 00       	nopl   0x0(%rax,%rax,1)

0000000000006db0 <_Z12save_privdicRKNSt7__cxx1112basic_stringIcSt11char_traitsIcESaIcEEES6_RSt6vectorIS4_SaIS4_EE>:
    6db0:	41 57                	push   %r15
    6db2:	41 56                	push   %r14
    6db4:	49 89 d7             	mov    %rdx,%r15
    6db7:	41 55                	push   %r13
    6db9:	41 54                	push   %r12
    6dbb:	55                   	push   %rbp
    6dbc:	53                   	push   %rbx
    6dbd:	48 89 fb             	mov    %rdi,%rbx
    6dc0:	48 89 f5             	mov    %rsi,%rbp
    6dc3:	48 8d 35 98 a6 00 00 	lea    0xa698(%rip),%rsi        # 11462 <_IO_stdin_used+0x1062>
    6dca:	48 83 ec 48          	sub    $0x48,%rsp
    6dce:	48 8b 3f             	mov    (%rdi),%rdi
    6dd1:	64 48 8b 04 25 28 00 	mov    %fs:0x28,%rax
    6dd8:	00 00 
    6dda:	48 89 44 24 38       	mov    %rax,0x38(%rsp)
    6ddf:	31 c0                	xor    %eax,%eax
    6de1:	e8 4a db ff ff       	callq  4930 <fopen@plt>
    6de6:	48 85 c0             	test   %rax,%rax
    6de9:	0f 84 a9 01 00 00    	je     6f98 <_Z12save_privdicRKNSt7__cxx1112basic_stringIcSt11char_traitsIcESaIcEEES6_RSt6vectorIS4_SaIS4_EE+0x1e8>
    6def:	48 89 c7             	mov    %rax,%rdi
    6df2:	e8 29 da ff ff       	callq  4820 <fclose@plt>
    6df7:	48 8b 3b             	mov    (%rbx),%rdi
    6dfa:	48 8d 35 26 a6 00 00 	lea    0xa626(%rip),%rsi        # 11427 <_IO_stdin_used+0x1027>
    6e01:	e8 2a db ff ff       	callq  4930 <fopen@plt>
    6e06:	49 89 c4             	mov    %rax,%r12
    6e09:	31 c0                	xor    %eax,%eax
    6e0b:	4d 85 e4             	test   %r12,%r12
    6e0e:	0f 84 39 01 00 00    	je     6f4d <_Z12save_privdicRKNSt7__cxx1112basic_stringIcSt11char_traitsIcESaIcEEES6_RSt6vectorIS4_SaIS4_EE+0x19d>
    6e14:	49 8b 37             	mov    (%r15),%rsi
    6e17:	49 3b 77 08          	cmp    0x8(%r15),%rsi
    6e1b:	0f 84 1f 01 00 00    	je     6f40 <_Z12save_privdicRKNSt7__cxx1112basic_stringIcSt11char_traitsIcESaIcEEES6_RSt6vectorIS4_SaIS4_EE+0x190>
    6e21:	48 8d 44 24 10       	lea    0x10(%rsp),%rax
    6e26:	31 db                	xor    %ebx,%ebx
    6e28:	48 8d 6c 24 20       	lea    0x20(%rsp),%rbp
    6e2d:	48 89 44 24 08       	mov    %rax,0x8(%rsp)
    6e32:	e9 91 00 00 00       	jmpq   6ec8 <_Z12save_privdicRKNSt7__cxx1112basic_stringIcSt11char_traitsIcESaIcEEES6_RSt6vectorIS4_SaIS4_EE+0x118>
    6e37:	66 0f 1f 84 00 00 00 	nopw   0x0(%rax,%rax,1)
    6e3e:	00 00 
    6e40:	49 8d 56 10          	lea    0x10(%r14),%rdx
    6e44:	48 39 d7             	cmp    %rdx,%rdi
    6e47:	0f 84 23 01 00 00    	je     6f70 <_Z12save_privdicRKNSt7__cxx1112basic_stringIcSt11char_traitsIcESaIcEEES6_RSt6vectorIS4_SaIS4_EE+0x1c0>
    6e4d:	49 89 06             	mov    %rax,(%r14)
    6e50:	48 8b 44 24 18       	mov    0x18(%rsp),%rax
    6e55:	48 85 ff             	test   %rdi,%rdi
    6e58:	49 8b 56 10          	mov    0x10(%r14),%rdx
    6e5c:	49 89 46 08          	mov    %rax,0x8(%r14)
    6e60:	48 8b 44 24 20       	mov    0x20(%rsp),%rax
    6e65:	49 89 46 10          	mov    %rax,0x10(%r14)
    6e69:	0f 84 16 01 00 00    	je     6f85 <_Z12save_privdicRKNSt7__cxx1112basic_stringIcSt11char_traitsIcESaIcEEES6_RSt6vectorIS4_SaIS4_EE+0x1d5>
    6e6f:	48 89 7c 24 10       	mov    %rdi,0x10(%rsp)
    6e74:	48 89 54 24 20       	mov    %rdx,0x20(%rsp)
    6e79:	48 c7 44 24 18 00 00 	movq   $0x0,0x18(%rsp)
    6e80:	00 00 
    6e82:	c6 07 00             	movb   $0x0,(%rdi)
    6e85:	48 8b 7c 24 10       	mov    0x10(%rsp),%rdi
    6e8a:	48 39 ef             	cmp    %rbp,%rdi
    6e8d:	74 05                	je     6e94 <_Z12save_privdicRKNSt7__cxx1112basic_stringIcSt11char_traitsIcESaIcEEES6_RSt6vectorIS4_SaIS4_EE+0xe4>
    6e8f:	e8 6c d9 ff ff       	callq  4800 <_ZdlPv@plt>
    6e94:	49 8b 07             	mov    (%r15),%rax
    6e97:	48 8d 15 48 a6 00 00 	lea    0xa648(%rip),%rdx        # 114e6 <_IO_stdin_used+0x10e6>
    6e9e:	be 01 00 00 00       	mov    $0x1,%esi
    6ea3:	4c 89 e7             	mov    %r12,%rdi
    6ea6:	48 83 c3 01          	add    $0x1,%rbx
    6eaa:	4a 8b 0c 28          	mov    (%rax,%r13,1),%rcx
    6eae:	31 c0                	xor    %eax,%eax
    6eb0:	e8 2b dc ff ff       	callq  4ae0 <__fprintf_chk@plt>
    6eb5:	49 8b 37             	mov    (%r15),%rsi
    6eb8:	49 8b 47 08          	mov    0x8(%r15),%rax
    6ebc:	48 29 f0             	sub    %rsi,%rax
    6ebf:	48 c1 f8 05          	sar    $0x5,%rax
    6ec3:	48 39 c3             	cmp    %rax,%rbx
    6ec6:	73 78                	jae    6f40 <_Z12save_privdicRKNSt7__cxx1112basic_stringIcSt11char_traitsIcESaIcEEES6_RSt6vectorIS4_SaIS4_EE+0x190>
    6ec8:	48 8b 7c 24 08       	mov    0x8(%rsp),%rdi
    6ecd:	49 89 dd             	mov    %rbx,%r13
    6ed0:	48 8b 0d c1 e3 20 00 	mov    0x20e3c1(%rip),%rcx        # 215298 <ui_enc>
    6ed7:	48 8b 15 b2 e3 20 00 	mov    0x20e3b2(%rip),%rdx        # 215290 <io_enc>
    6ede:	49 c1 e5 05          	shl    $0x5,%r13
    6ee2:	4c 01 ee             	add    %r13,%rsi
    6ee5:	e8 b6 f3 ff ff       	callq  62a0 <_Z5chencRKNSt7__cxx1112basic_stringIcSt11char_traitsIcESaIcEEEPKcS8_>
    6eea:	4d 8b 37             	mov    (%r15),%r14
    6eed:	48 8b 44 24 10       	mov    0x10(%rsp),%rax
    6ef2:	4d 01 ee             	add    %r13,%r14
    6ef5:	48 39 e8             	cmp    %rbp,%rax
    6ef8:	49 8b 3e             	mov    (%r14),%rdi
    6efb:	0f 85 3f ff ff ff    	jne    6e40 <_Z12save_privdicRKNSt7__cxx1112basic_stringIcSt11char_traitsIcESaIcEEES6_RSt6vectorIS4_SaIS4_EE+0x90>
    6f01:	48 8b 54 24 18       	mov    0x18(%rsp),%rdx
    6f06:	48 85 d2             	test   %rdx,%rdx
    6f09:	74 19                	je     6f24 <_Z12save_privdicRKNSt7__cxx1112basic_stringIcSt11char_traitsIcESaIcEEES6_RSt6vectorIS4_SaIS4_EE+0x174>
    6f0b:	48 83 fa 01          	cmp    $0x1,%rdx
    6f0f:	0f 85 9b 00 00 00    	jne    6fb0 <_Z12save_privdicRKNSt7__cxx1112basic_stringIcSt11char_traitsIcESaIcEEES6_RSt6vectorIS4_SaIS4_EE+0x200>
    6f15:	0f b6 44 24 20       	movzbl 0x20(%rsp),%eax
    6f1a:	88 07                	mov    %al,(%rdi)
    6f1c:	48 8b 54 24 18       	mov    0x18(%rsp),%rdx
    6f21:	49 8b 3e             	mov    (%r14),%rdi
    6f24:	49 89 56 08          	mov    %rdx,0x8(%r14)
    6f28:	c6 04 17 00          	movb   $0x0,(%rdi,%rdx,1)
    6f2c:	48 8b 7c 24 10       	mov    0x10(%rsp),%rdi
    6f31:	e9 43 ff ff ff       	jmpq   6e79 <_Z12save_privdicRKNSt7__cxx1112basic_stringIcSt11char_traitsIcESaIcEEES6_RSt6vectorIS4_SaIS4_EE+0xc9>
    6f36:	66 2e 0f 1f 84 00 00 	nopw   %cs:0x0(%rax,%rax,1)
    6f3d:	00 00 00 
    6f40:	4c 89 e7             	mov    %r12,%rdi
    6f43:	e8 d8 d8 ff ff       	callq  4820 <fclose@plt>
    6f48:	b8 01 00 00 00       	mov    $0x1,%eax
    6f4d:	48 8b 5c 24 38       	mov    0x38(%rsp),%rbx
    6f52:	64 48 33 1c 25 28 00 	xor    %fs:0x28,%rbx
    6f59:	00 00 
    6f5b:	75 75                	jne    6fd2 <_Z12save_privdicRKNSt7__cxx1112basic_stringIcSt11char_traitsIcESaIcEEES6_RSt6vectorIS4_SaIS4_EE+0x222>
    6f5d:	48 83 c4 48          	add    $0x48,%rsp
    6f61:	5b                   	pop    %rbx
    6f62:	5d                   	pop    %rbp
    6f63:	41 5c                	pop    %r12
    6f65:	41 5d                	pop    %r13
    6f67:	41 5e                	pop    %r14
    6f69:	41 5f                	pop    %r15
    6f6b:	c3                   	retq   
    6f6c:	0f 1f 40 00          	nopl   0x0(%rax)
    6f70:	49 89 06             	mov    %rax,(%r14)
    6f73:	48 8b 44 24 18       	mov    0x18(%rsp),%rax
    6f78:	49 89 46 08          	mov    %rax,0x8(%r14)
    6f7c:	48 8b 44 24 20       	mov    0x20(%rsp),%rax
    6f81:	49 89 46 10          	mov    %rax,0x10(%r14)
    6f85:	48 89 6c 24 10       	mov    %rbp,0x10(%rsp)
    6f8a:	48 89 ef             	mov    %rbp,%rdi
    6f8d:	e9 e7 fe ff ff       	jmpq   6e79 <_Z12save_privdicRKNSt7__cxx1112basic_stringIcSt11char_traitsIcESaIcEEES6_RSt6vectorIS4_SaIS4_EE+0xc9>
    6f92:	66 0f 1f 44 00 00    	nopw   0x0(%rax,%rax,1)
    6f98:	48 8b 7d 00          	mov    0x0(%rbp),%rdi
    6f9c:	48 8d 35 84 a4 00 00 	lea    0xa484(%rip),%rsi        # 11427 <_IO_stdin_used+0x1027>
    6fa3:	e8 88 d9 ff ff       	callq  4930 <fopen@plt>
    6fa8:	49 89 c4             	mov    %rax,%r12
    6fab:	e9 59 fe ff ff       	jmpq   6e09 <_Z12save_privdicRKNSt7__cxx1112basic_stringIcSt11char_traitsIcESaIcEEES6_RSt6vectorIS4_SaIS4_EE+0x59>
    6fb0:	48 89 ee             	mov    %rbp,%rsi
    6fb3:	e8 d8 d7 ff ff       	callq  4790 <memcpy@plt>
    6fb8:	48 8b 54 24 18       	mov    0x18(%rsp),%rdx
    6fbd:	49 8b 3e             	mov    (%r14),%rdi
    6fc0:	49 89 56 08          	mov    %rdx,0x8(%r14)
    6fc4:	c6 04 17 00          	movb   $0x0,(%rdi,%rdx,1)
    6fc8:	48 8b 7c 24 10       	mov    0x10(%rsp),%rdi
    6fcd:	e9 a7 fe ff ff       	jmpq   6e79 <_Z12save_privdicRKNSt7__cxx1112basic_stringIcSt11char_traitsIcESaIcEEES6_RSt6vectorIS4_SaIS4_EE+0xc9>
    6fd2:	e8 b9 d8 ff ff       	callq  4890 <__stack_chk_fail@plt>
    6fd7:	66 0f 1f 84 00 00 00 	nopw   0x0(%rax,%rax,1)
    6fde:	00 00 

0000000000006fe0 <_Z8basenamePKcc>:
    6fe0:	41 54                	push   %r12
    6fe2:	55                   	push   %rbp
    6fe3:	41 89 f4             	mov    %esi,%r12d
    6fe6:	53                   	push   %rbx
    6fe7:	48 89 fb             	mov    %rdi,%rbx
    6fea:	89 f5                	mov    %esi,%ebp
    6fec:	e8 ff d6 ff ff       	callq  46f0 <strlen@plt>
    6ff1:	48 01 d8             	add    %rbx,%rax
    6ff4:	44 3a 20             	cmp    (%rax),%r12b
    6ff7:	75 10                	jne    7009 <_Z8basenamePKcc+0x29>
    6ff9:	eb 1d                	jmp    7018 <_Z8basenamePKcc+0x38>
    6ffb:	0f 1f 44 00 00       	nopl   0x0(%rax,%rax,1)
    7000:	48 83 e8 01          	sub    $0x1,%rax
    7004:	40 38 28             	cmp    %bpl,(%rax)
    7007:	74 0f                	je     7018 <_Z8basenamePKcc+0x38>
    7009:	48 39 c3             	cmp    %rax,%rbx
    700c:	75 f2                	jne    7000 <_Z8basenamePKcc+0x20>
    700e:	5b                   	pop    %rbx
    700f:	5d                   	pop    %rbp
    7010:	41 5c                	pop    %r12
    7012:	c3                   	retq   
    7013:	0f 1f 44 00 00       	nopl   0x0(%rax,%rax,1)
    7018:	5b                   	pop    %rbx
    7019:	48 83 c0 01          	add    $0x1,%rax
    701d:	5d                   	pop    %rbp
    701e:	41 5c                	pop    %r12
    7020:	c3                   	retq   
    7021:	0f 1f 44 00 00       	nopl   0x0(%rax,%rax,1)
    7026:	66 2e 0f 1f 84 00 00 	nopw   %cs:0x0(%rax,%rax,1)
    702d:	00 00 00 

0000000000007030 <_Z5checkPP8HunspellPiRKNSt7__cxx1112basic_stringIcSt11char_traitsIcESaIcEEES2_PS8_>:
    7030:	41 57                	push   %r15
    7032:	41 56                	push   %r14
    7034:	41 55                	push   %r13
    7036:	41 54                	push   %r12
    7038:	55                   	push   %rbp
    7039:	53                   	push   %rbx
    703a:	48 81 ec b8 00 00 00 	sub    $0xb8,%rsp
    7041:	48 89 7c 24 20       	mov    %rdi,0x20(%rsp)
    7046:	8b 3d d4 e1 20 00    	mov    0x20e1d4(%rip),%edi        # 215220 <dmax>
    704c:	64 48 8b 04 25 28 00 	mov    %fs:0x28,%rax
    7053:	00 00 
    7055:	48 89 84 24 a8 00 00 	mov    %rax,0xa8(%rsp)
    705c:	00 
    705d:	31 c0                	xor    %eax,%eax
    705f:	48 89 54 24 30       	mov    %rdx,0x30(%rsp)
    7064:	48 89 4c 24 18       	mov    %rcx,0x18(%rsp)
    7069:	85 ff                	test   %edi,%edi
    706b:	4c 89 44 24 28       	mov    %r8,0x28(%rsp)
    7070:	0f 8e 4a 03 00 00    	jle    73c0 <_Z5checkPP8HunspellPiRKNSt7__cxx1112basic_stringIcSt11char_traitsIcESaIcEEES2_PS8_+0x390>
    7076:	48 8d 84 24 80 00 00 	lea    0x80(%rsp),%rax
    707d:	00 
    707e:	4c 8d 74 24 60       	lea    0x60(%rsp),%r14
    7083:	48 89 f3             	mov    %rsi,%rbx
    7086:	c7 44 24 14 00 00 00 	movl   $0x0,0x14(%rsp)
    708d:	00 
    708e:	48 8d 6c 24 40       	lea    0x40(%rsp),%rbp
    7093:	4c 8d 3d a6 e1 20 00 	lea    0x20e1a6(%rip),%r15        # 215240 <dic_enc>
    709a:	48 89 44 24 08       	mov    %rax,0x8(%rsp)
    709f:	4c 8d a4 24 90 00 00 	lea    0x90(%rsp),%r12
    70a6:	00 
    70a7:	4d 8d 6e 10          	lea    0x10(%r14),%r13
    70ab:	e9 25 01 00 00       	jmpq   71d5 <_Z5checkPP8HunspellPiRKNSt7__cxx1112basic_stringIcSt11char_traitsIcESaIcEEES2_PS8_+0x1a5>
    70b0:	48 63 13             	movslq (%rbx),%rdx
    70b3:	48 8d 3d 28 a1 00 00 	lea    0xa128(%rip),%rdi        # 111e2 <_IO_stdin_used+0xde2>
    70ba:	b9 06 00 00 00       	mov    $0x6,%ecx
    70bf:	49 8b 34 d7          	mov    (%r15,%rdx,8),%rsi
    70c3:	f3 a6                	repz cmpsb %es:(%rdi),%ds:(%rsi)
    70c5:	0f 97 c0             	seta   %al
    70c8:	1c 00                	sbb    $0x0,%al
    70ca:	84 c0                	test   %al,%al
    70cc:	74 69                	je     7137 <_Z5checkPP8HunspellPiRKNSt7__cxx1112basic_stringIcSt11char_traitsIcESaIcEEES2_PS8_+0x107>
    70ce:	48 8d 15 80 a9 00 00 	lea    0xa980(%rip),%rdx        # 11a55 <_ZTS9XMLParser+0x35d>
    70d5:	48 8b 7c 24 08       	mov    0x8(%rsp),%rdi
    70da:	4c 89 a4 24 80 00 00 	mov    %r12,0x80(%rsp)
    70e1:	00 
    70e2:	48 8d 72 ff          	lea    -0x1(%rdx),%rsi
    70e6:	e8 e5 f0 ff ff       	callq  61d0 <_ZNSt7__cxx1112basic_stringIcSt11char_traitsIcESaIcEE12_M_constructIPKcEEvT_S8_St20forward_iterator_tag.isra.52>
    70eb:	48 8d 15 f9 a0 00 00 	lea    0xa0f9(%rip),%rdx        # 111eb <_IO_stdin_used+0xdeb>
    70f2:	4c 89 f7             	mov    %r14,%rdi
    70f5:	4c 89 6c 24 60       	mov    %r13,0x60(%rsp)
    70fa:	48 8d 72 fd          	lea    -0x3(%rdx),%rsi
    70fe:	e8 cd f0 ff ff       	callq  61d0 <_ZNSt7__cxx1112basic_stringIcSt11char_traitsIcESaIcEE12_M_constructIPKcEEvT_S8_St20forward_iterator_tag.isra.52>
    7103:	48 8b 54 24 08       	mov    0x8(%rsp),%rdx
    7108:	4c 89 f6             	mov    %r14,%rsi
    710b:	48 89 ef             	mov    %rbp,%rdi
    710e:	e8 ad d7 ff ff       	callq  48c0 <_Z8mystrrepRNSt7__cxx1112basic_stringIcSt11char_traitsIcESaIcEEERKS4_S7_@plt>
    7113:	48 8b 7c 24 60       	mov    0x60(%rsp),%rdi
    7118:	4c 39 ef             	cmp    %r13,%rdi
    711b:	74 05                	je     7122 <_Z5checkPP8HunspellPiRKNSt7__cxx1112basic_stringIcSt11char_traitsIcESaIcEEES2_PS8_+0xf2>
    711d:	e8 de d6 ff ff       	callq  4800 <_ZdlPv@plt>
    7122:	48 8b bc 24 80 00 00 	mov    0x80(%rsp),%rdi
    7129:	00 
    712a:	4c 39 e7             	cmp    %r12,%rdi
    712d:	74 05                	je     7134 <_Z5checkPP8HunspellPiRKNSt7__cxx1112basic_stringIcSt11char_traitsIcESaIcEEES2_PS8_+0x104>
    712f:	e8 cc d6 ff ff       	callq  4800 <_ZdlPv@plt>
    7134:	48 63 13             	movslq (%rbx),%rdx
    7137:	48 8b 44 24 20       	mov    0x20(%rsp),%rax
    713c:	48 8b 4c 24 28       	mov    0x28(%rsp),%rcx
    7141:	48 89 ee             	mov    %rbp,%rsi
    7144:	48 8b 3c d0          	mov    (%rax,%rdx,8),%rdi
    7148:	48 8b 54 24 18       	mov    0x18(%rsp),%rdx
    714d:	e8 1e d5 ff ff       	callq  4670 <_ZN8Hunspell5spellERKNSt7__cxx1112basic_stringIcSt11char_traitsIcESaIcEEEPiPS5_@plt>
    7152:	84 c0                	test   %al,%al
    7154:	74 1c                	je     7172 <_Z5checkPP8HunspellPiRKNSt7__cxx1112basic_stringIcSt11char_traitsIcESaIcEEES2_PS8_+0x142>
    7156:	8b 0d 44 e1 20 00    	mov    0x20e144(%rip),%ecx        # 2152a0 <warn>
    715c:	85 c9                	test   %ecx,%ecx
    715e:	0f 84 1c 01 00 00    	je     7280 <_Z5checkPP8HunspellPiRKNSt7__cxx1112basic_stringIcSt11char_traitsIcESaIcEEES2_PS8_+0x250>
    7164:	48 8b 4c 24 18       	mov    0x18(%rsp),%rcx
    7169:	f6 01 40             	testb  $0x40,(%rcx)
    716c:	0f 84 0e 01 00 00    	je     7280 <_Z5checkPP8HunspellPiRKNSt7__cxx1112basic_stringIcSt11char_traitsIcESaIcEEES2_PS8_+0x250>
    7172:	48 63 13             	movslq (%rbx),%rdx
    7175:	48 8d 3d 66 a0 00 00 	lea    0xa066(%rip),%rdi        # 111e2 <_IO_stdin_used+0xde2>
    717c:	b9 06 00 00 00       	mov    $0x6,%ecx
    7181:	49 8b 34 d7          	mov    (%r15,%rdx,8),%rsi
    7185:	48 89 d0             	mov    %rdx,%rax
    7188:	f3 a6                	repz cmpsb %es:(%rdi),%ds:(%rsi)
    718a:	0f 97 c2             	seta   %dl
    718d:	80 da 00             	sbb    $0x0,%dl
    7190:	84 d2                	test   %dl,%dl
    7192:	0f 84 30 01 00 00    	je     72c8 <_Z5checkPP8HunspellPiRKNSt7__cxx1112basic_stringIcSt11char_traitsIcESaIcEEES2_PS8_+0x298>
    7198:	83 c0 01             	add    $0x1,%eax
    719b:	ba 00 00 00 00       	mov    $0x0,%edx
    71a0:	48 8b 7c 24 40       	mov    0x40(%rsp),%rdi
    71a5:	89 03                	mov    %eax,(%rbx)
    71a7:	3b 05 73 e0 20 00    	cmp    0x20e073(%rip),%eax        # 215220 <dmax>
    71ad:	0f 44 c2             	cmove  %edx,%eax
    71b0:	89 03                	mov    %eax,(%rbx)
    71b2:	48 8d 45 10          	lea    0x10(%rbp),%rax
    71b6:	48 39 c7             	cmp    %rax,%rdi
    71b9:	74 05                	je     71c0 <_Z5checkPP8HunspellPiRKNSt7__cxx1112basic_stringIcSt11char_traitsIcESaIcEEES2_PS8_+0x190>
    71bb:	e8 40 d6 ff ff       	callq  4800 <_ZdlPv@plt>
    71c0:	83 44 24 14 01       	addl   $0x1,0x14(%rsp)
    71c5:	8b 44 24 14          	mov    0x14(%rsp),%eax
    71c9:	39 05 51 e0 20 00    	cmp    %eax,0x20e051(%rip)        # 215220 <dmax>
    71cf:	0f 8e eb 01 00 00    	jle    73c0 <_Z5checkPP8HunspellPiRKNSt7__cxx1112basic_stringIcSt11char_traitsIcESaIcEEES2_PS8_+0x390>
    71d5:	48 63 03             	movslq (%rbx),%rax
    71d8:	48 8b 15 b1 e0 20 00 	mov    0x20e0b1(%rip),%rdx        # 215290 <io_enc>
    71df:	48 89 ef             	mov    %rbp,%rdi
    71e2:	48 8b 74 24 30       	mov    0x30(%rsp),%rsi
    71e7:	49 8b 0c c7          	mov    (%r15,%rax,8),%rcx
    71eb:	e8 b0 f0 ff ff       	callq  62a0 <_Z5chencRKNSt7__cxx1112basic_stringIcSt11char_traitsIcESaIcEEEPKcS8_>
    71f0:	48 8d 15 5e a8 00 00 	lea    0xa85e(%rip),%rdx        # 11a55 <_ZTS9XMLParser+0x35d>
    71f7:	48 8b 7c 24 08       	mov    0x8(%rsp),%rdi
    71fc:	4c 89 a4 24 80 00 00 	mov    %r12,0x80(%rsp)
    7203:	00 
    7204:	48 8d 72 ff          	lea    -0x1(%rdx),%rsi
    7208:	e8 c3 ef ff ff       	callq  61d0 <_ZNSt7__cxx1112basic_stringIcSt11char_traitsIcESaIcEE12_M_constructIPKcEEvT_S8_St20forward_iterator_tag.isra.52>
    720d:	48 8d 15 cd 9f 00 00 	lea    0x9fcd(%rip),%rdx        # 111e1 <_IO_stdin_used+0xde1>
    7214:	4c 89 f7             	mov    %r14,%rdi
    7217:	4c 89 6c 24 60       	mov    %r13,0x60(%rsp)
    721c:	48 8d 72 fa          	lea    -0x6(%rdx),%rsi
    7220:	e8 ab ef ff ff       	callq  61d0 <_ZNSt7__cxx1112basic_stringIcSt11char_traitsIcESaIcEE12_M_constructIPKcEEvT_S8_St20forward_iterator_tag.isra.52>
    7225:	48 8b 54 24 08       	mov    0x8(%rsp),%rdx
    722a:	4c 89 f6             	mov    %r14,%rsi
    722d:	48 89 ef             	mov    %rbp,%rdi
    7230:	e8 8b d6 ff ff       	callq  48c0 <_Z8mystrrepRNSt7__cxx1112basic_stringIcSt11char_traitsIcESaIcEEERKS4_S7_@plt>
    7235:	48 8b 7c 24 60       	mov    0x60(%rsp),%rdi
    723a:	4c 39 ef             	cmp    %r13,%rdi
    723d:	74 05                	je     7244 <_Z5checkPP8HunspellPiRKNSt7__cxx1112basic_stringIcSt11char_traitsIcESaIcEEES2_PS8_+0x214>
    723f:	e8 bc d5 ff ff       	callq  4800 <_ZdlPv@plt>
    7244:	48 8b bc 24 80 00 00 	mov    0x80(%rsp),%rdi
    724b:	00 
    724c:	4c 39 e7             	cmp    %r12,%rdi
    724f:	74 05                	je     7256 <_Z5checkPP8HunspellPiRKNSt7__cxx1112basic_stringIcSt11char_traitsIcESaIcEEES2_PS8_+0x226>
    7251:	e8 aa d5 ff ff       	callq  4800 <_ZdlPv@plt>
    7256:	8b 35 48 e0 20 00    	mov    0x20e048(%rip),%esi        # 2152a4 <checkapos>
    725c:	85 f6                	test   %esi,%esi
    725e:	0f 84 4c fe ff ff    	je     70b0 <_Z5checkPP8HunspellPiRKNSt7__cxx1112basic_stringIcSt11char_traitsIcESaIcEEES2_PS8_+0x80>
    7264:	31 d2                	xor    %edx,%edx
    7266:	be 27 00 00 00       	mov    $0x27,%esi
    726b:	48 89 ef             	mov    %rbp,%rdi
    726e:	e8 3d d7 ff ff       	callq  49b0 <_ZNKSt7__cxx1112basic_stringIcSt11char_traitsIcESaIcEE4findEcm@plt>
    7273:	48 83 f8 ff          	cmp    $0xffffffffffffffff,%rax
    7277:	0f 84 33 fe ff ff    	je     70b0 <_Z5checkPP8HunspellPiRKNSt7__cxx1112basic_stringIcSt11char_traitsIcESaIcEEES2_PS8_+0x80>
    727d:	31 c0                	xor    %eax,%eax
    727f:	90                   	nop
    7280:	48 8b 7c 24 40       	mov    0x40(%rsp),%rdi
    7285:	48 83 c5 10          	add    $0x10,%rbp
    7289:	48 39 ef             	cmp    %rbp,%rdi
    728c:	74 0e                	je     729c <_Z5checkPP8HunspellPiRKNSt7__cxx1112basic_stringIcSt11char_traitsIcESaIcEEES2_PS8_+0x26c>
    728e:	88 44 24 08          	mov    %al,0x8(%rsp)
    7292:	e8 69 d5 ff ff       	callq  4800 <_ZdlPv@plt>
    7297:	0f b6 44 24 08       	movzbl 0x8(%rsp),%eax
    729c:	48 8b 9c 24 a8 00 00 	mov    0xa8(%rsp),%rbx
    72a3:	00 
    72a4:	64 48 33 1c 25 28 00 	xor    %fs:0x28,%rbx
    72ab:	00 00 
    72ad:	0f 85 6c 01 00 00    	jne    741f <_Z5checkPP8HunspellPiRKNSt7__cxx1112basic_stringIcSt11char_traitsIcESaIcEEES2_PS8_+0x3ef>
    72b3:	48 81 c4 b8 00 00 00 	add    $0xb8,%rsp
    72ba:	5b                   	pop    %rbx
    72bb:	5d                   	pop    %rbp
    72bc:	41 5c                	pop    %r12
    72be:	41 5d                	pop    %r13
    72c0:	41 5e                	pop    %r14
    72c2:	41 5f                	pop    %r15
    72c4:	c3                   	retq   
    72c5:	0f 1f 00             	nopl   (%rax)
    72c8:	48 8d 35 19 9f 00 00 	lea    0x9f19(%rip),%rsi        # 111e8 <_IO_stdin_used+0xde8>
    72cf:	31 d2                	xor    %edx,%edx
    72d1:	b9 03 00 00 00       	mov    $0x3,%ecx
    72d6:	48 89 ef             	mov    %rbp,%rdi
    72d9:	e8 22 d8 ff ff       	callq  4b00 <_ZNKSt7__cxx1112basic_stringIcSt11char_traitsIcESaIcEE4findEPKcmm@plt>
    72de:	48 83 f8 ff          	cmp    $0xffffffffffffffff,%rax
    72e2:	0f 84 b6 00 00 00    	je     739e <_Z5checkPP8HunspellPiRKNSt7__cxx1112basic_stringIcSt11char_traitsIcESaIcEEES2_PS8_+0x36e>
    72e8:	48 63 03             	movslq (%rbx),%rax
    72eb:	48 8b 4c 24 20       	mov    0x20(%rsp),%rcx
    72f0:	48 8d 15 5e a7 00 00 	lea    0xa75e(%rip),%rdx        # 11a55 <_ZTS9XMLParser+0x35d>
    72f7:	48 8b 7c 24 08       	mov    0x8(%rsp),%rdi
    72fc:	4c 89 a4 24 80 00 00 	mov    %r12,0x80(%rsp)
    7303:	00 
    7304:	48 8d 72 ff          	lea    -0x1(%rdx),%rsi
    7308:	48 8b 04 c1          	mov    (%rcx,%rax,8),%rax
    730c:	48 89 44 24 38       	mov    %rax,0x38(%rsp)
    7311:	e8 ba ee ff ff       	callq  61d0 <_ZNSt7__cxx1112basic_stringIcSt11char_traitsIcESaIcEE12_M_constructIPKcEEvT_S8_St20forward_iterator_tag.isra.52>
    7316:	48 8d 15 ce 9e 00 00 	lea    0x9ece(%rip),%rdx        # 111eb <_IO_stdin_used+0xdeb>
    731d:	4c 89 f7             	mov    %r14,%rdi
    7320:	4c 89 6c 24 60       	mov    %r13,0x60(%rsp)
    7325:	48 8d 72 fd          	lea    -0x3(%rdx),%rsi
    7329:	e8 a2 ee ff ff       	callq  61d0 <_ZNSt7__cxx1112basic_stringIcSt11char_traitsIcESaIcEE12_M_constructIPKcEEvT_S8_St20forward_iterator_tag.isra.52>
    732e:	48 8b 54 24 08       	mov    0x8(%rsp),%rdx
    7333:	4c 89 f6             	mov    %r14,%rsi
    7336:	48 89 ef             	mov    %rbp,%rdi
    7339:	e8 82 d5 ff ff       	callq  48c0 <_Z8mystrrepRNSt7__cxx1112basic_stringIcSt11char_traitsIcESaIcEEERKS4_S7_@plt>
    733e:	48 8b 4c 24 28       	mov    0x28(%rsp),%rcx
    7343:	48 8b 54 24 18       	mov    0x18(%rsp),%rdx
    7348:	48 89 c6             	mov    %rax,%rsi
    734b:	48 8b 7c 24 38       	mov    0x38(%rsp),%rdi
    7350:	e8 1b d3 ff ff       	callq  4670 <_ZN8Hunspell5spellERKNSt7__cxx1112basic_stringIcSt11char_traitsIcESaIcEEEPiPS5_@plt>
    7355:	84 c0                	test   %al,%al
    7357:	74 0a                	je     7363 <_Z5checkPP8HunspellPiRKNSt7__cxx1112basic_stringIcSt11char_traitsIcESaIcEEES2_PS8_+0x333>
    7359:	8b 15 41 df 20 00    	mov    0x20df41(%rip),%edx        # 2152a0 <warn>
    735f:	85 d2                	test   %edx,%edx
    7361:	75 45                	jne    73a8 <_Z5checkPP8HunspellPiRKNSt7__cxx1112basic_stringIcSt11char_traitsIcESaIcEEES2_PS8_+0x378>
    7363:	48 8b 7c 24 60       	mov    0x60(%rsp),%rdi
    7368:	4c 39 ef             	cmp    %r13,%rdi
    736b:	74 0e                	je     737b <_Z5checkPP8HunspellPiRKNSt7__cxx1112basic_stringIcSt11char_traitsIcESaIcEEES2_PS8_+0x34b>
    736d:	88 44 24 38          	mov    %al,0x38(%rsp)
    7371:	e8 8a d4 ff ff       	callq  4800 <_ZdlPv@plt>
    7376:	0f b6 44 24 38       	movzbl 0x38(%rsp),%eax
    737b:	48 8b bc 24 80 00 00 	mov    0x80(%rsp),%rdi
    7382:	00 
    7383:	4c 39 e7             	cmp    %r12,%rdi
    7386:	74 0e                	je     7396 <_Z5checkPP8HunspellPiRKNSt7__cxx1112basic_stringIcSt11char_traitsIcESaIcEEES2_PS8_+0x366>
    7388:	88 44 24 38          	mov    %al,0x38(%rsp)
    738c:	e8 6f d4 ff ff       	callq  4800 <_ZdlPv@plt>
    7391:	0f b6 44 24 38       	movzbl 0x38(%rsp),%eax
    7396:	84 c0                	test   %al,%al
    7398:	0f 85 e2 fe ff ff    	jne    7280 <_Z5checkPP8HunspellPiRKNSt7__cxx1112basic_stringIcSt11char_traitsIcESaIcEEES2_PS8_+0x250>
    739e:	8b 03                	mov    (%rbx),%eax
    73a0:	e9 f3 fd ff ff       	jmpq   7198 <_Z5checkPP8HunspellPiRKNSt7__cxx1112basic_stringIcSt11char_traitsIcESaIcEEES2_PS8_+0x168>
    73a5:	0f 1f 00             	nopl   (%rax)
    73a8:	48 8b 44 24 18       	mov    0x18(%rsp),%rax
    73ad:	8b 00                	mov    (%rax),%eax
    73af:	89 44 24 38          	mov    %eax,0x38(%rsp)
    73b3:	c1 e8 06             	shr    $0x6,%eax
    73b6:	83 f0 01             	xor    $0x1,%eax
    73b9:	83 e0 01             	and    $0x1,%eax
    73bc:	eb a5                	jmp    7363 <_Z5checkPP8HunspellPiRKNSt7__cxx1112basic_stringIcSt11char_traitsIcESaIcEEES2_PS8_+0x333>
    73be:	66 90                	xchg   %ax,%ax
    73c0:	31 c0                	xor    %eax,%eax
    73c2:	e9 d5 fe ff ff       	jmpq   729c <_Z5checkPP8HunspellPiRKNSt7__cxx1112basic_stringIcSt11char_traitsIcESaIcEEES2_PS8_+0x26c>
    73c7:	48 8b 7c 24 60       	mov    0x60(%rsp),%rdi
    73cc:	49 83 c6 10          	add    $0x10,%r14
    73d0:	48 89 c3             	mov    %rax,%rbx
    73d3:	4c 39 f7             	cmp    %r14,%rdi
    73d6:	74 05                	je     73dd <_Z5checkPP8HunspellPiRKNSt7__cxx1112basic_stringIcSt11char_traitsIcESaIcEEES2_PS8_+0x3ad>
    73d8:	e8 23 d4 ff ff       	callq  4800 <_ZdlPv@plt>
    73dd:	48 8b 44 24 08       	mov    0x8(%rsp),%rax
    73e2:	48 8b bc 24 80 00 00 	mov    0x80(%rsp),%rdi
    73e9:	00 
    73ea:	48 83 c0 10          	add    $0x10,%rax
    73ee:	48 39 c7             	cmp    %rax,%rdi
    73f1:	74 05                	je     73f8 <_Z5checkPP8HunspellPiRKNSt7__cxx1112basic_stringIcSt11char_traitsIcESaIcEEES2_PS8_+0x3c8>
    73f3:	e8 08 d4 ff ff       	callq  4800 <_ZdlPv@plt>
    73f8:	48 8b 7c 24 40       	mov    0x40(%rsp),%rdi
    73fd:	48 83 c5 10          	add    $0x10,%rbp
    7401:	48 39 ef             	cmp    %rbp,%rdi
    7404:	74 05                	je     740b <_Z5checkPP8HunspellPiRKNSt7__cxx1112basic_stringIcSt11char_traitsIcESaIcEEES2_PS8_+0x3db>
    7406:	e8 f5 d3 ff ff       	callq  4800 <_ZdlPv@plt>
    740b:	48 89 df             	mov    %rbx,%rdi
    740e:	e8 fd d6 ff ff       	callq  4b10 <_Unwind_Resume@plt>
    7413:	eb b2                	jmp    73c7 <_Z5checkPP8HunspellPiRKNSt7__cxx1112basic_stringIcSt11char_traitsIcESaIcEEES2_PS8_+0x397>
    7415:	48 89 c3             	mov    %rax,%rbx
    7418:	eb c3                	jmp    73dd <_Z5checkPP8HunspellPiRKNSt7__cxx1112basic_stringIcSt11char_traitsIcESaIcEEES2_PS8_+0x3ad>
    741a:	48 89 c3             	mov    %rax,%rbx
    741d:	eb d9                	jmp    73f8 <_Z5checkPP8HunspellPiRKNSt7__cxx1112basic_stringIcSt11char_traitsIcESaIcEEES2_PS8_+0x3c8>
    741f:	e8 6c d4 ff ff       	callq  4890 <__stack_chk_fail@plt>
    7424:	eb ef                	jmp    7415 <_Z5checkPP8HunspellPiRKNSt7__cxx1112basic_stringIcSt11char_traitsIcESaIcEEES2_PS8_+0x3e5>
    7426:	eb f2                	jmp    741a <_Z5checkPP8HunspellPiRKNSt7__cxx1112basic_stringIcSt11char_traitsIcESaIcEEES2_PS8_+0x3ea>
    7428:	eb f0                	jmp    741a <_Z5checkPP8HunspellPiRKNSt7__cxx1112basic_stringIcSt11char_traitsIcESaIcEEES2_PS8_+0x3ea>
    742a:	eb 9b                	jmp    73c7 <_Z5checkPP8HunspellPiRKNSt7__cxx1112basic_stringIcSt11char_traitsIcESaIcEEES2_PS8_+0x397>
    742c:	eb e7                	jmp    7415 <_Z5checkPP8HunspellPiRKNSt7__cxx1112basic_stringIcSt11char_traitsIcESaIcEEES2_PS8_+0x3e5>
    742e:	66 90                	xchg   %ax,%ax

0000000000007430 <_Z9mymkdtempPc>:
    7430:	e9 3b d7 ff ff       	jmpq   4b70 <mkdtemp@plt>
    7435:	90                   	nop
    7436:	66 2e 0f 1f 84 00 00 	nopw   %cs:0x0(%rax,%rax,1)
    743d:	00 00 00 

0000000000007440 <_Z6exist2PciPKcS1_>:
    7440:	41 55                	push   %r13
    7442:	41 54                	push   %r12
    7444:	49 89 d5             	mov    %rdx,%r13
    7447:	55                   	push   %rbp
    7448:	53                   	push   %rbx
    7449:	48 8d 2d c4 9f 00 00 	lea    0x9fc4(%rip),%rbp        # 11414 <_IO_stdin_used+0x1014>
    7450:	49 89 cc             	mov    %rcx,%r12
    7453:	4c 63 c6             	movslq %esi,%r8
    7456:	48 89 f9             	mov    %rdi,%rcx
    7459:	48 83 ec 48          	sub    $0x48,%rsp
    745d:	48 8d 5c 24 10       	lea    0x10(%rsp),%rbx
    7462:	48 c7 44 24 18 00 00 	movq   $0x0,0x18(%rsp)
    7469:	00 00 
    746b:	c6 44 24 20 00       	movb   $0x0,0x20(%rsp)
    7470:	64 48 8b 04 25 28 00 	mov    %fs:0x28,%rax
    7477:	00 00 
    7479:	48 89 44 24 38       	mov    %rax,0x38(%rsp)
    747e:	31 c0                	xor    %eax,%eax
    7480:	48 8d 43 10          	lea    0x10(%rbx),%rax
    7484:	85 f6                	test   %esi,%esi
    7486:	48 89 df             	mov    %rbx,%rdi
    7489:	48 89 44 24 10       	mov    %rax,0x10(%rsp)
    748e:	48 8d 05 04 a6 00 00 	lea    0xa604(%rip),%rax        # 11a99 <_ZTS9ManParser+0x19>
    7495:	48 0f 45 e8          	cmovne %rax,%rbp
    7499:	31 d2                	xor    %edx,%edx
    749b:	31 f6                	xor    %esi,%esi
    749d:	e8 be d5 ff ff       	callq  4a60 <_ZNSt7__cxx1112basic_stringIcSt11char_traitsIcESaIcEE10_M_replaceEmmPKcm@plt>
    74a2:	48 89 ef             	mov    %rbp,%rdi
    74a5:	e8 46 d2 ff ff       	callq  46f0 <strlen@plt>
    74aa:	48 b9 ff ff ff ff ff 	movabs $0x7fffffffffffffff,%rcx
    74b1:	ff ff 7f 
    74b4:	48 2b 4c 24 18       	sub    0x18(%rsp),%rcx
    74b9:	48 39 c8             	cmp    %rcx,%rax
    74bc:	0f 87 5d 01 00 00    	ja     761f <_Z6exist2PciPKcS1_+0x1df>
    74c2:	48 89 c2             	mov    %rax,%rdx
    74c5:	48 89 ee             	mov    %rbp,%rsi
    74c8:	48 89 df             	mov    %rbx,%rdi
    74cb:	e8 d0 d1 ff ff       	callq  46a0 <_ZNSt7__cxx1112basic_stringIcSt11char_traitsIcESaIcEE9_M_appendEPKcm@plt>
    74d0:	4c 89 ef             	mov    %r13,%rdi
    74d3:	e8 18 d2 ff ff       	callq  46f0 <strlen@plt>
    74d8:	48 b9 ff ff ff ff ff 	movabs $0x7fffffffffffffff,%rcx
    74df:	ff ff 7f 
    74e2:	48 2b 4c 24 18       	sub    0x18(%rsp),%rcx
    74e7:	48 39 c8             	cmp    %rcx,%rax
    74ea:	0f 87 23 01 00 00    	ja     7613 <_Z6exist2PciPKcS1_+0x1d3>
    74f0:	48 89 c2             	mov    %rax,%rdx
    74f3:	4c 89 ee             	mov    %r13,%rsi
    74f6:	48 89 df             	mov    %rbx,%rdi
    74f9:	e8 a2 d1 ff ff       	callq  46a0 <_ZNSt7__cxx1112basic_stringIcSt11char_traitsIcESaIcEE9_M_appendEPKcm@plt>
    74fe:	4c 89 e7             	mov    %r12,%rdi
    7501:	e8 ea d1 ff ff       	callq  46f0 <strlen@plt>
    7506:	48 b9 ff ff ff ff ff 	movabs $0x7fffffffffffffff,%rcx
    750d:	ff ff 7f 
    7510:	48 2b 4c 24 18       	sub    0x18(%rsp),%rcx
    7515:	48 39 c8             	cmp    %rcx,%rax
    7518:	0f 87 cb 00 00 00    	ja     75e9 <_Z6exist2PciPKcS1_+0x1a9>
    751e:	48 89 c2             	mov    %rax,%rdx
    7521:	4c 89 e6             	mov    %r12,%rsi
    7524:	48 89 df             	mov    %rbx,%rdi
    7527:	e8 74 d1 ff ff       	callq  46a0 <_ZNSt7__cxx1112basic_stringIcSt11char_traitsIcESaIcEE9_M_appendEPKcm@plt>
    752c:	48 8b 7c 24 10       	mov    0x10(%rsp),%rdi
    7531:	e8 2a f6 ff ff       	callq  6b60 <_Z5existPKc>
    7536:	84 c0                	test   %al,%al
    7538:	75 5c                	jne    7596 <_Z6exist2PciPKcS1_+0x156>
    753a:	48 b8 ff ff ff ff ff 	movabs $0x7fffffffffffffff,%rax
    7541:	ff ff 7f 
    7544:	48 2b 44 24 18       	sub    0x18(%rsp),%rax
    7549:	48 83 f8 02          	cmp    $0x2,%rax
    754d:	0f 86 ed 00 00 00    	jbe    7640 <_Z6exist2PciPKcS1_+0x200>
    7553:	48 8d 35 c4 9c 00 00 	lea    0x9cc4(%rip),%rsi        # 1121e <_IO_stdin_used+0xe1e>
    755a:	ba 03 00 00 00       	mov    $0x3,%edx
    755f:	48 89 df             	mov    %rbx,%rdi
    7562:	e8 39 d1 ff ff       	callq  46a0 <_ZNSt7__cxx1112basic_stringIcSt11char_traitsIcESaIcEE9_M_appendEPKcm@plt>
    7567:	48 8b 7c 24 10       	mov    0x10(%rsp),%rdi
    756c:	e8 ef f5 ff ff       	callq  6b60 <_Z5existPKc>
    7571:	84 c0                	test   %al,%al
    7573:	74 6b                	je     75e0 <_Z6exist2PciPKcS1_+0x1a0>
    7575:	48 8b 4c 24 18       	mov    0x18(%rsp),%rcx
    757a:	48 8d 51 fd          	lea    -0x3(%rcx),%rdx
    757e:	48 39 ca             	cmp    %rcx,%rdx
    7581:	0f 87 a4 00 00 00    	ja     762b <_Z6exist2PciPKcS1_+0x1eb>
    7587:	48 8b 44 24 10       	mov    0x10(%rsp),%rax
    758c:	48 89 54 24 18       	mov    %rdx,0x18(%rsp)
    7591:	c6 44 08 fd 00       	movb   $0x0,-0x3(%rax,%rcx,1)
    7596:	48 8b 7c 24 10       	mov    0x10(%rsp),%rdi
    759b:	e8 60 d0 ff ff       	callq  4600 <_Z8mystrdupPKc@plt>
    75a0:	48 8b 7c 24 10       	mov    0x10(%rsp),%rdi
    75a5:	48 83 c3 10          	add    $0x10,%rbx
    75a9:	48 39 df             	cmp    %rbx,%rdi
    75ac:	74 0f                	je     75bd <_Z6exist2PciPKcS1_+0x17d>
    75ae:	48 89 44 24 08       	mov    %rax,0x8(%rsp)
    75b3:	e8 48 d2 ff ff       	callq  4800 <_ZdlPv@plt>
    75b8:	48 8b 44 24 08       	mov    0x8(%rsp),%rax
    75bd:	48 8b 54 24 38       	mov    0x38(%rsp),%rdx
    75c2:	64 48 33 14 25 28 00 	xor    %fs:0x28,%rdx
    75c9:	00 00 
    75cb:	75 17                	jne    75e4 <_Z6exist2PciPKcS1_+0x1a4>
    75cd:	48 83 c4 48          	add    $0x48,%rsp
    75d1:	5b                   	pop    %rbx
    75d2:	5d                   	pop    %rbp
    75d3:	41 5c                	pop    %r12
    75d5:	41 5d                	pop    %r13
    75d7:	c3                   	retq   
    75d8:	0f 1f 84 00 00 00 00 	nopl   0x0(%rax,%rax,1)
    75df:	00 
    75e0:	31 c0                	xor    %eax,%eax
    75e2:	eb bc                	jmp    75a0 <_Z6exist2PciPKcS1_+0x160>
    75e4:	e8 a7 d2 ff ff       	callq  4890 <__stack_chk_fail@plt>
    75e9:	48 8d 3d fc 9b 00 00 	lea    0x9bfc(%rip),%rdi        # 111ec <_IO_stdin_used+0xdec>
    75f0:	e8 2b d1 ff ff       	callq  4720 <_ZSt20__throw_length_errorPKc@plt>
    75f5:	48 8b 7c 24 10       	mov    0x10(%rsp),%rdi
    75fa:	48 83 c3 10          	add    $0x10,%rbx
    75fe:	48 89 c5             	mov    %rax,%rbp
    7601:	48 39 df             	cmp    %rbx,%rdi
    7604:	74 05                	je     760b <_Z6exist2PciPKcS1_+0x1cb>
    7606:	e8 f5 d1 ff ff       	callq  4800 <_ZdlPv@plt>
    760b:	48 89 ef             	mov    %rbp,%rdi
    760e:	e8 fd d4 ff ff       	callq  4b10 <_Unwind_Resume@plt>
    7613:	48 8d 3d d2 9b 00 00 	lea    0x9bd2(%rip),%rdi        # 111ec <_IO_stdin_used+0xdec>
    761a:	e8 01 d1 ff ff       	callq  4720 <_ZSt20__throw_length_errorPKc@plt>
    761f:	48 8d 3d c6 9b 00 00 	lea    0x9bc6(%rip),%rdi        # 111ec <_IO_stdin_used+0xdec>
    7626:	e8 f5 d0 ff ff       	callq  4720 <_ZSt20__throw_length_errorPKc@plt>
    762b:	48 8d 35 cf 9b 00 00 	lea    0x9bcf(%rip),%rsi        # 11201 <_IO_stdin_used+0xe01>
    7632:	48 8d 3d ff 8d 00 00 	lea    0x8dff(%rip),%rdi        # 10438 <_IO_stdin_used+0x38>
    7639:	31 c0                	xor    %eax,%eax
    763b:	e8 00 d4 ff ff       	callq  4a40 <_ZSt24__throw_out_of_range_fmtPKcz@plt>
    7640:	48 8d 3d a5 9b 00 00 	lea    0x9ba5(%rip),%rdi        # 111ec <_IO_stdin_used+0xdec>
    7647:	e8 d4 d0 ff ff       	callq  4720 <_ZSt20__throw_length_errorPKc@plt>
    764c:	0f 1f 40 00          	nopl   0x0(%rax)

0000000000007650 <_Z11listdicpathPci>:
    7650:	41 57                	push   %r15
    7652:	41 56                	push   %r14
    7654:	48 89 f9             	mov    %rdi,%rcx
    7657:	41 55                	push   %r13
    7659:	41 54                	push   %r12
    765b:	4c 63 c6             	movslq %esi,%r8
    765e:	55                   	push   %rbp
    765f:	53                   	push   %rbx
    7660:	48 8d 1d ad 9d 00 00 	lea    0x9dad(%rip),%rbx        # 11414 <_IO_stdin_used+0x1014>
    7667:	48 83 ec 38          	sub    $0x38,%rsp
    766b:	49 89 e6             	mov    %rsp,%r14
    766e:	48 c7 44 24 08 00 00 	movq   $0x0,0x8(%rsp)
    7675:	00 00 
    7677:	c6 44 24 10 00       	movb   $0x0,0x10(%rsp)
    767c:	64 48 8b 04 25 28 00 	mov    %fs:0x28,%rax
    7683:	00 00 
    7685:	48 89 44 24 28       	mov    %rax,0x28(%rsp)
    768a:	31 c0                	xor    %eax,%eax
    768c:	49 8d 46 10          	lea    0x10(%r14),%rax
    7690:	85 f6                	test   %esi,%esi
    7692:	4c 89 f7             	mov    %r14,%rdi
    7695:	48 89 04 24          	mov    %rax,(%rsp)
    7699:	48 8d 05 f9 a3 00 00 	lea    0xa3f9(%rip),%rax        # 11a99 <_ZTS9ManParser+0x19>
    76a0:	48 0f 45 d8          	cmovne %rax,%rbx
    76a4:	31 d2                	xor    %edx,%edx
    76a6:	31 f6                	xor    %esi,%esi
    76a8:	e8 b3 d3 ff ff       	callq  4a60 <_ZNSt7__cxx1112basic_stringIcSt11char_traitsIcESaIcEE10_M_replaceEmmPKcm@plt>
    76ad:	48 89 df             	mov    %rbx,%rdi
    76b0:	e8 3b d0 ff ff       	callq  46f0 <strlen@plt>
    76b5:	48 b9 ff ff ff ff ff 	movabs $0x7fffffffffffffff,%rcx
    76bc:	ff ff 7f 
    76bf:	48 2b 4c 24 08       	sub    0x8(%rsp),%rcx
    76c4:	48 39 c8             	cmp    %rcx,%rax
    76c7:	0f 87 37 01 00 00    	ja     7804 <_Z11listdicpathPci+0x1b4>
    76cd:	48 89 c2             	mov    %rax,%rdx
    76d0:	48 89 de             	mov    %rbx,%rsi
    76d3:	4c 89 f7             	mov    %r14,%rdi
    76d6:	e8 c5 cf ff ff       	callq  46a0 <_ZNSt7__cxx1112basic_stringIcSt11char_traitsIcESaIcEE9_M_appendEPKcm@plt>
    76db:	48 8b 3c 24          	mov    (%rsp),%rdi
    76df:	e8 4c d3 ff ff       	callq  4a30 <opendir@plt>
    76e4:	48 85 c0             	test   %rax,%rax
    76e7:	49 89 c4             	mov    %rax,%r12
    76ea:	0f 84 10 01 00 00    	je     7800 <_Z11listdicpathPci+0x1b0>
    76f0:	4c 8d 3d 2b 9b 00 00 	lea    0x9b2b(%rip),%r15        # 11222 <_IO_stdin_used+0xe22>
    76f7:	4c 89 e7             	mov    %r12,%rdi
    76fa:	e8 51 d3 ff ff       	callq  4a50 <readdir@plt>
    76ff:	48 85 c0             	test   %rax,%rax
    7702:	0f 84 ae 00 00 00    	je     77b6 <_Z11listdicpathPci+0x166>
    7708:	48 8d 68 13          	lea    0x13(%rax),%rbp
    770c:	48 89 ef             	mov    %rbp,%rdi
    770f:	e8 dc cf ff ff       	callq  46f0 <strlen@plt>
    7714:	83 f8 04             	cmp    $0x4,%eax
    7717:	48 89 c3             	mov    %rax,%rbx
    771a:	7e db                	jle    76f7 <_Z11listdicpathPci+0xa7>
    771c:	4c 63 e8             	movslq %eax,%r13
    771f:	48 8d 3d ef 9a 00 00 	lea    0x9aef(%rip),%rdi        # 11215 <_IO_stdin_used+0xe15>
    7726:	b9 05 00 00 00       	mov    $0x5,%ecx
    772b:	4a 8d 74 2d fc       	lea    -0x4(%rbp,%r13,1),%rsi
    7730:	f3 a6                	repz cmpsb %es:(%rdi),%ds:(%rsi)
    7732:	0f 97 c0             	seta   %al
    7735:	1c 00                	sbb    $0x0,%al
    7737:	84 c0                	test   %al,%al
    7739:	74 21                	je     775c <_Z11listdicpathPci+0x10c>
    773b:	83 fb 07             	cmp    $0x7,%ebx
    773e:	7e b7                	jle    76f7 <_Z11listdicpathPci+0xa7>
    7740:	4a 8d 74 2d f9       	lea    -0x7(%rbp,%r13,1),%rsi
    7745:	48 8d 3d ce 9a 00 00 	lea    0x9ace(%rip),%rdi        # 1121a <_IO_stdin_used+0xe1a>
    774c:	b9 08 00 00 00       	mov    $0x8,%ecx
    7751:	f3 a6                	repz cmpsb %es:(%rdi),%ds:(%rsi)
    7753:	0f 97 c0             	seta   %al
    7756:	1c 00                	sbb    $0x0,%al
    7758:	84 c0                	test   %al,%al
    775a:	75 9b                	jne    76f7 <_Z11listdicpathPci+0xa7>
    775c:	48 89 ef             	mov    %rbp,%rdi
    775f:	e8 9c ce ff ff       	callq  4600 <_Z8mystrdupPKc@plt>
    7764:	48 89 c5             	mov    %rax,%rbp
    7767:	31 c0                	xor    %eax,%eax
    7769:	4c 89 fa             	mov    %r15,%rdx
    776c:	42 80 7c 2d ff 7a    	cmpb   $0x7a,-0x1(%rbp,%r13,1)
    7772:	49 89 e8             	mov    %rbp,%r8
    7775:	be 01 00 00 00       	mov    $0x1,%esi
    777a:	0f 94 c0             	sete   %al
    777d:	8d 44 40 04          	lea    0x4(%rax,%rax,2),%eax
    7781:	29 c3                	sub    %eax,%ebx
    7783:	31 c0                	xor    %eax,%eax
    7785:	48 63 db             	movslq %ebx,%rbx
    7788:	c6 44 1d 00 00       	movb   $0x0,0x0(%rbp,%rbx,1)
    778d:	48 8b 0c 24          	mov    (%rsp),%rcx
    7791:	48 8b 3d 68 da 20 00 	mov    0x20da68(%rip),%rdi        # 215200 <stderr@@GLIBC_2.2.5>
    7798:	e8 43 d3 ff ff       	callq  4ae0 <__fprintf_chk@plt>
    779d:	48 89 ef             	mov    %rbp,%rdi
    77a0:	e8 ab d1 ff ff       	callq  4950 <free@plt>
    77a5:	4c 89 e7             	mov    %r12,%rdi
    77a8:	e8 a3 d2 ff ff       	callq  4a50 <readdir@plt>
    77ad:	48 85 c0             	test   %rax,%rax
    77b0:	0f 85 52 ff ff ff    	jne    7708 <_Z11listdicpathPci+0xb8>
    77b6:	4c 89 e7             	mov    %r12,%rdi
    77b9:	e8 e2 d2 ff ff       	callq  4aa0 <closedir@plt>
    77be:	bb 01 00 00 00       	mov    $0x1,%ebx
    77c3:	48 8b 3c 24          	mov    (%rsp),%rdi
    77c7:	49 83 c6 10          	add    $0x10,%r14
    77cb:	4c 39 f7             	cmp    %r14,%rdi
    77ce:	74 05                	je     77d5 <_Z11listdicpathPci+0x185>
    77d0:	e8 2b d0 ff ff       	callq  4800 <_ZdlPv@plt>
    77d5:	48 8b 54 24 28       	mov    0x28(%rsp),%rdx
    77da:	64 48 33 14 25 28 00 	xor    %fs:0x28,%rdx
    77e1:	00 00 
    77e3:	89 d8                	mov    %ebx,%eax
    77e5:	75 46                	jne    782d <_Z11listdicpathPci+0x1dd>
    77e7:	48 83 c4 38          	add    $0x38,%rsp
    77eb:	5b                   	pop    %rbx
    77ec:	5d                   	pop    %rbp
    77ed:	41 5c                	pop    %r12
    77ef:	41 5d                	pop    %r13
    77f1:	41 5e                	pop    %r14
    77f3:	41 5f                	pop    %r15
    77f5:	c3                   	retq   
    77f6:	66 2e 0f 1f 84 00 00 	nopw   %cs:0x0(%rax,%rax,1)
    77fd:	00 00 00 
    7800:	31 db                	xor    %ebx,%ebx
    7802:	eb bf                	jmp    77c3 <_Z11listdicpathPci+0x173>
    7804:	48 8d 3d e1 99 00 00 	lea    0x99e1(%rip),%rdi        # 111ec <_IO_stdin_used+0xdec>
    780b:	e8 10 cf ff ff       	callq  4720 <_ZSt20__throw_length_errorPKc@plt>
    7810:	48 8b 3c 24          	mov    (%rsp),%rdi
    7814:	49 83 c6 10          	add    $0x10,%r14
    7818:	48 89 c3             	mov    %rax,%rbx
    781b:	4c 39 f7             	cmp    %r14,%rdi
    781e:	74 05                	je     7825 <_Z11listdicpathPci+0x1d5>
    7820:	e8 db cf ff ff       	callq  4800 <_ZdlPv@plt>
    7825:	48 89 df             	mov    %rbx,%rdi
    7828:	e8 e3 d2 ff ff       	callq  4b10 <_Unwind_Resume@plt>
    782d:	e8 5e d0 ff ff       	callq  4890 <__stack_chk_fail@plt>
    7832:	0f 1f 40 00          	nopl   0x0(%rax)
    7836:	66 2e 0f 1f 84 00 00 	nopw   %cs:0x0(%rax,%rax,1)
    783d:	00 00 00 

0000000000007840 <_Z6searchPcS_PKc>:
    7840:	41 54                	push   %r12
    7842:	49 89 d4             	mov    %rdx,%r12
    7845:	55                   	push   %rbp
    7846:	48 89 f5             	mov    %rsi,%rbp
    7849:	53                   	push   %rbx
    784a:	48 8d 5f 01          	lea    0x1(%rdi),%rbx
    784e:	eb 1d                	jmp    786d <_Z6searchPcS_PKc+0x2d>
    7850:	4c 89 e1             	mov    %r12,%rcx
    7853:	48 89 ea             	mov    %rbp,%rdx
    7856:	e8 e5 fb ff ff       	callq  7440 <_Z6exist2PciPKcS1_>
    785b:	80 7b ff 00          	cmpb   $0x0,-0x1(%rbx)
    785f:	74 31                	je     7892 <_Z6searchPcS_PKc+0x52>
    7861:	48 85 c0             	test   %rax,%rax
    7864:	75 2c                	jne    7892 <_Z6searchPcS_PKc+0x52>
    7866:	48 89 df             	mov    %rbx,%rdi
    7869:	48 83 c3 01          	add    $0x1,%rbx
    786d:	0f b6 43 ff          	movzbl -0x1(%rbx),%eax
    7871:	3c 3a                	cmp    $0x3a,%al
    7873:	74 04                	je     7879 <_Z6searchPcS_PKc+0x39>
    7875:	84 c0                	test   %al,%al
    7877:	75 f0                	jne    7869 <_Z6searchPcS_PKc+0x29>
    7879:	48 8d 73 ff          	lea    -0x1(%rbx),%rsi
    787d:	48 29 fe             	sub    %rdi,%rsi
    7880:	48 85 ed             	test   %rbp,%rbp
    7883:	75 cb                	jne    7850 <_Z6searchPcS_PKc+0x10>
    7885:	e8 c6 fd ff ff       	callq  7650 <_Z11listdicpathPci>
    788a:	80 7b ff 00          	cmpb   $0x0,-0x1(%rbx)
    788e:	75 d6                	jne    7866 <_Z6searchPcS_PKc+0x26>
    7890:	31 c0                	xor    %eax,%eax
    7892:	5b                   	pop    %rbx
    7893:	5d                   	pop    %rbp
    7894:	41 5c                	pop    %r12
    7896:	c3                   	retq   
    7897:	66 0f 1f 84 00 00 00 	nopw   0x0(%rax,%rax,1)
    789e:	00 00 

00000000000078a0 <_ZSt16__introsort_loopIN9__gnu_cxx17__normal_iteratorIP6w_charSt6vectorIS2_SaIS2_EEEElNS0_5__ops15_Iter_less_iterEEvT_SA_T0_T1_.isra.89>:
    78a0:	41 57                	push   %r15
    78a2:	41 56                	push   %r14
    78a4:	41 55                	push   %r13
    78a6:	49 89 d5             	mov    %rdx,%r13
    78a9:	41 54                	push   %r12
    78ab:	48 89 f2             	mov    %rsi,%rdx
    78ae:	55                   	push   %rbp
    78af:	53                   	push   %rbx
    78b0:	48 29 fa             	sub    %rdi,%rdx
    78b3:	48 83 ec 18          	sub    $0x18,%rsp
    78b7:	48 83 fa 20          	cmp    $0x20,%rdx
    78bb:	0f 8e 46 02 00 00    	jle    7b07 <_ZSt16__introsort_loopIN9__gnu_cxx17__normal_iteratorIP6w_charSt6vectorIS2_SaIS2_EEEElNS0_5__ops15_Iter_less_iterEEvT_SA_T0_T1_.isra.89+0x267>
    78c1:	4d 85 ed             	test   %r13,%r13
    78c4:	48 89 fd             	mov    %rdi,%rbp
    78c7:	49 89 f4             	mov    %rsi,%r12
    78ca:	0f 84 b7 01 00 00    	je     7a87 <_ZSt16__introsort_loopIN9__gnu_cxx17__normal_iteratorIP6w_charSt6vectorIS2_SaIS2_EEEElNS0_5__ops15_Iter_less_iterEEvT_SA_T0_T1_.isra.89+0x1e7>
    78d0:	48 8d 47 02          	lea    0x2(%rdi),%rax
    78d4:	48 89 f3             	mov    %rsi,%rbx
    78d7:	48 89 44 24 08       	mov    %rax,0x8(%rsp)
    78dc:	48 29 eb             	sub    %rbp,%rbx
    78df:	0f b6 4d 03          	movzbl 0x3(%rbp),%ecx
    78e3:	0f b6 55 02          	movzbl 0x2(%rbp),%edx
    78e7:	48 d1 fb             	sar    %rbx
    78ea:	44 0f b6 46 fe       	movzbl -0x2(%rsi),%r8d
    78ef:	49 83 ed 01          	sub    $0x1,%r13
    78f3:	48 89 d8             	mov    %rbx,%rax
    78f6:	44 0f b6 4d 00       	movzbl 0x0(%rbp),%r9d
    78fb:	44 0f b6 55 01       	movzbl 0x1(%rbp),%r10d
    7900:	48 c1 e8 3f          	shr    $0x3f,%rax
    7904:	48 01 c3             	add    %rax,%rbx
    7907:	c1 e1 08             	shl    $0x8,%ecx
    790a:	48 83 e3 fe          	and    $0xfffffffffffffffe,%rbx
    790e:	01 d1                	add    %edx,%ecx
    7910:	48 8d 44 1d 00       	lea    0x0(%rbp,%rbx,1),%rax
    7915:	0f b6 50 01          	movzbl 0x1(%rax),%edx
    7919:	0f b6 38             	movzbl (%rax),%edi
    791c:	c1 e2 08             	shl    $0x8,%edx
    791f:	01 fa                	add    %edi,%edx
    7921:	0f b6 7e ff          	movzbl -0x1(%rsi),%edi
    7925:	c1 e7 08             	shl    $0x8,%edi
    7928:	44 01 c7             	add    %r8d,%edi
    792b:	66 39 d1             	cmp    %dx,%cx
    792e:	0f 83 e4 00 00 00    	jae    7a18 <_ZSt16__introsort_loopIN9__gnu_cxx17__normal_iteratorIP6w_charSt6vectorIS2_SaIS2_EEEElNS0_5__ops15_Iter_less_iterEEvT_SA_T0_T1_.isra.89+0x178>
    7934:	66 39 fa             	cmp    %di,%dx
    7937:	0f 82 d9 01 00 00    	jb     7b16 <_ZSt16__introsort_loopIN9__gnu_cxx17__normal_iteratorIP6w_charSt6vectorIS2_SaIS2_EEEElNS0_5__ops15_Iter_less_iterEEvT_SA_T0_T1_.isra.89+0x276>
    793d:	66 39 f9             	cmp    %di,%cx
    7940:	0f 82 e4 00 00 00    	jb     7a2a <_ZSt16__introsort_loopIN9__gnu_cxx17__normal_iteratorIP6w_charSt6vectorIS2_SaIS2_EEEElNS0_5__ops15_Iter_less_iterEEvT_SA_T0_T1_.isra.89+0x18a>
    7946:	0f b7 45 02          	movzwl 0x2(%rbp),%eax
    794a:	44 88 4d 02          	mov    %r9b,0x2(%rbp)
    794e:	44 88 55 03          	mov    %r10b,0x3(%rbp)
    7952:	66 89 45 00          	mov    %ax,0x0(%rbp)
    7956:	44 0f b6 46 fe       	movzbl -0x2(%rsi),%r8d
    795b:	44 0f b6 7e ff       	movzbl -0x1(%rsi),%r15d
    7960:	44 0f b6 75 01       	movzbl 0x1(%rbp),%r14d
    7965:	44 0f b6 5d 00       	movzbl 0x0(%rbp),%r11d
    796a:	48 89 f0             	mov    %rsi,%rax
    796d:	48 8b 5c 24 08       	mov    0x8(%rsp),%rbx
    7972:	41 0f b6 c8          	movzbl %r8b,%ecx
    7976:	66 2e 0f 1f 84 00 00 	nopw   %cs:0x0(%rax,%rax,1)
    797d:	00 00 00 
    7980:	45 89 f0             	mov    %r14d,%r8d
    7983:	44 89 d2             	mov    %r10d,%edx
    7986:	41 0f b6 f9          	movzbl %r9b,%edi
    798a:	41 c1 e0 08          	shl    $0x8,%r8d
    798e:	c1 e2 08             	shl    $0x8,%edx
    7991:	49 89 dc             	mov    %rbx,%r12
    7994:	45 01 d8             	add    %r11d,%r8d
    7997:	01 fa                	add    %edi,%edx
    7999:	66 44 39 c2          	cmp    %r8w,%dx
    799d:	72 63                	jb     7a02 <_ZSt16__introsort_loopIN9__gnu_cxx17__normal_iteratorIP6w_charSt6vectorIS2_SaIS2_EEEElNS0_5__ops15_Iter_less_iterEEvT_SA_T0_T1_.isra.89+0x162>
    799f:	41 c1 e7 08          	shl    $0x8,%r15d
    79a3:	48 8d 50 fe          	lea    -0x2(%rax),%rdx
    79a7:	41 01 cf             	add    %ecx,%r15d
    79aa:	66 45 39 f8          	cmp    %r15w,%r8w
    79ae:	0f 83 9c 00 00 00    	jae    7a50 <_ZSt16__introsort_loopIN9__gnu_cxx17__normal_iteratorIP6w_charSt6vectorIS2_SaIS2_EEEElNS0_5__ops15_Iter_less_iterEEvT_SA_T0_T1_.isra.89+0x1b0>
    79b4:	48 8d 78 fc          	lea    -0x4(%rax),%rdi
    79b8:	0f 1f 84 00 00 00 00 	nopl   0x0(%rax,%rax,1)
    79bf:	00 
    79c0:	48 89 f8             	mov    %rdi,%rax
    79c3:	48 83 ef 02          	sub    $0x2,%rdi
    79c7:	0f b6 50 01          	movzbl 0x1(%rax),%edx
    79cb:	0f b6 08             	movzbl (%rax),%ecx
    79ce:	c1 e2 08             	shl    $0x8,%edx
    79d1:	01 ca                	add    %ecx,%edx
    79d3:	66 41 39 d0          	cmp    %dx,%r8w
    79d7:	72 e7                	jb     79c0 <_ZSt16__introsort_loopIN9__gnu_cxx17__normal_iteratorIP6w_charSt6vectorIS2_SaIS2_EEEElNS0_5__ops15_Iter_less_iterEEvT_SA_T0_T1_.isra.89+0x120>
    79d9:	48 39 c3             	cmp    %rax,%rbx
    79dc:	0f 83 7e 00 00 00    	jae    7a60 <_ZSt16__introsort_loopIN9__gnu_cxx17__normal_iteratorIP6w_charSt6vectorIS2_SaIS2_EEEElNS0_5__ops15_Iter_less_iterEEvT_SA_T0_T1_.isra.89+0x1c0>
    79e2:	0f b7 10             	movzwl (%rax),%edx
    79e5:	66 89 13             	mov    %dx,(%rbx)
    79e8:	44 88 08             	mov    %r9b,(%rax)
    79eb:	44 88 50 01          	mov    %r10b,0x1(%rax)
    79ef:	0f b6 48 fe          	movzbl -0x2(%rax),%ecx
    79f3:	44 0f b6 78 ff       	movzbl -0x1(%rax),%r15d
    79f8:	44 0f b6 75 01       	movzbl 0x1(%rbp),%r14d
    79fd:	44 0f b6 5d 00       	movzbl 0x0(%rbp),%r11d
    7a02:	44 0f b6 4b 02       	movzbl 0x2(%rbx),%r9d
    7a07:	44 0f b6 53 03       	movzbl 0x3(%rbx),%r10d
    7a0c:	48 83 c3 02          	add    $0x2,%rbx
    7a10:	e9 6b ff ff ff       	jmpq   7980 <_ZSt16__introsort_loopIN9__gnu_cxx17__normal_iteratorIP6w_charSt6vectorIS2_SaIS2_EEEElNS0_5__ops15_Iter_less_iterEEvT_SA_T0_T1_.isra.89+0xe0>
    7a15:	0f 1f 00             	nopl   (%rax)
    7a18:	66 39 f9             	cmp    %di,%cx
    7a1b:	0f 82 25 ff ff ff    	jb     7946 <_ZSt16__introsort_loopIN9__gnu_cxx17__normal_iteratorIP6w_charSt6vectorIS2_SaIS2_EEEElNS0_5__ops15_Iter_less_iterEEvT_SA_T0_T1_.isra.89+0xa6>
    7a21:	66 39 fa             	cmp    %di,%dx
    7a24:	0f 83 ec 00 00 00    	jae    7b16 <_ZSt16__introsort_loopIN9__gnu_cxx17__normal_iteratorIP6w_charSt6vectorIS2_SaIS2_EEEElNS0_5__ops15_Iter_less_iterEEvT_SA_T0_T1_.isra.89+0x276>
    7a2a:	0f b7 46 fe          	movzwl -0x2(%rsi),%eax
    7a2e:	45 89 d7             	mov    %r10d,%r15d
    7a31:	45 89 c8             	mov    %r9d,%r8d
    7a34:	66 89 45 00          	mov    %ax,0x0(%rbp)
    7a38:	44 88 4e fe          	mov    %r9b,-0x2(%rsi)
    7a3c:	44 88 56 ff          	mov    %r10b,-0x1(%rsi)
    7a40:	44 0f b6 55 03       	movzbl 0x3(%rbp),%r10d
    7a45:	44 0f b6 4d 02       	movzbl 0x2(%rbp),%r9d
    7a4a:	e9 11 ff ff ff       	jmpq   7960 <_ZSt16__introsort_loopIN9__gnu_cxx17__normal_iteratorIP6w_charSt6vectorIS2_SaIS2_EEEElNS0_5__ops15_Iter_less_iterEEvT_SA_T0_T1_.isra.89+0xc0>
    7a4f:	90                   	nop
    7a50:	48 89 d0             	mov    %rdx,%rax
    7a53:	48 39 c3             	cmp    %rax,%rbx
    7a56:	0f 82 86 ff ff ff    	jb     79e2 <_ZSt16__introsort_loopIN9__gnu_cxx17__normal_iteratorIP6w_charSt6vectorIS2_SaIS2_EEEElNS0_5__ops15_Iter_less_iterEEvT_SA_T0_T1_.isra.89+0x142>
    7a5c:	0f 1f 40 00          	nopl   0x0(%rax)
    7a60:	4c 89 ea             	mov    %r13,%rdx
    7a63:	48 89 df             	mov    %rbx,%rdi
    7a66:	e8 35 fe ff ff       	callq  78a0 <_ZSt16__introsort_loopIN9__gnu_cxx17__normal_iteratorIP6w_charSt6vectorIS2_SaIS2_EEEElNS0_5__ops15_Iter_less_iterEEvT_SA_T0_T1_.isra.89>
    7a6b:	48 89 da             	mov    %rbx,%rdx
    7a6e:	48 29 ea             	sub    %rbp,%rdx
    7a71:	48 83 fa 20          	cmp    $0x20,%rdx
    7a75:	0f 8e 8c 00 00 00    	jle    7b07 <_ZSt16__introsort_loopIN9__gnu_cxx17__normal_iteratorIP6w_charSt6vectorIS2_SaIS2_EEEElNS0_5__ops15_Iter_less_iterEEvT_SA_T0_T1_.isra.89+0x267>
    7a7b:	4d 85 ed             	test   %r13,%r13
    7a7e:	48 89 de             	mov    %rbx,%rsi
    7a81:	0f 85 55 fe ff ff    	jne    78dc <_ZSt16__introsort_loopIN9__gnu_cxx17__normal_iteratorIP6w_charSt6vectorIS2_SaIS2_EEEElNS0_5__ops15_Iter_less_iterEEvT_SA_T0_T1_.isra.89+0x3c>
    7a87:	48 89 d3             	mov    %rdx,%rbx
    7a8a:	48 d1 fb             	sar    %rbx
    7a8d:	4c 8d 6b fe          	lea    -0x2(%rbx),%r13
    7a91:	49 d1 fd             	sar    %r13
    7a94:	eb 0e                	jmp    7aa4 <_ZSt16__introsort_loopIN9__gnu_cxx17__normal_iteratorIP6w_charSt6vectorIS2_SaIS2_EEEElNS0_5__ops15_Iter_less_iterEEvT_SA_T0_T1_.isra.89+0x204>
    7a96:	66 2e 0f 1f 84 00 00 	nopw   %cs:0x0(%rax,%rax,1)
    7a9d:	00 00 00 
    7aa0:	49 83 ed 01          	sub    $0x1,%r13
    7aa4:	42 0f b7 4c 6d 00    	movzwl 0x0(%rbp,%r13,2),%ecx
    7aaa:	48 83 ec 08          	sub    $0x8,%rsp
    7aae:	4c 89 ee             	mov    %r13,%rsi
    7ab1:	6a 00                	pushq  $0x0
    7ab3:	48 89 da             	mov    %rbx,%rdx
    7ab6:	48 89 ef             	mov    %rbp,%rdi
    7ab9:	e8 d2 4b 00 00       	callq  c690 <_ZSt13__adjust_heapIN9__gnu_cxx17__normal_iteratorIP6w_charSt6vectorIS2_SaIS2_EEEElS2_NS0_5__ops15_Iter_less_iterEEvT_T0_SB_T1_T2_>
    7abe:	4d 85 ed             	test   %r13,%r13
    7ac1:	59                   	pop    %rcx
    7ac2:	5e                   	pop    %rsi
    7ac3:	75 db                	jne    7aa0 <_ZSt16__introsort_loopIN9__gnu_cxx17__normal_iteratorIP6w_charSt6vectorIS2_SaIS2_EEEElNS0_5__ops15_Iter_less_iterEEvT_SA_T0_T1_.isra.89+0x200>
    7ac5:	49 83 ec 02          	sub    $0x2,%r12
    7ac9:	0f 1f 80 00 00 00 00 	nopl   0x0(%rax)
    7ad0:	0f b7 45 00          	movzwl 0x0(%rbp),%eax
    7ad4:	41 0f b7 0c 24       	movzwl (%r12),%ecx
    7ad9:	4c 89 e3             	mov    %r12,%rbx
    7adc:	48 83 ec 08          	sub    $0x8,%rsp
    7ae0:	48 29 eb             	sub    %rbp,%rbx
    7ae3:	31 f6                	xor    %esi,%esi
    7ae5:	48 89 da             	mov    %rbx,%rdx
    7ae8:	48 89 ef             	mov    %rbp,%rdi
    7aeb:	49 83 ec 02          	sub    $0x2,%r12
    7aef:	48 d1 fa             	sar    %rdx
    7af2:	66 41 89 44 24 02    	mov    %ax,0x2(%r12)
    7af8:	6a 00                	pushq  $0x0
    7afa:	e8 91 4b 00 00       	callq  c690 <_ZSt13__adjust_heapIN9__gnu_cxx17__normal_iteratorIP6w_charSt6vectorIS2_SaIS2_EEEElS2_NS0_5__ops15_Iter_less_iterEEvT_T0_SB_T1_T2_>
    7aff:	48 83 fb 02          	cmp    $0x2,%rbx
    7b03:	58                   	pop    %rax
    7b04:	5a                   	pop    %rdx
    7b05:	7f c9                	jg     7ad0 <_ZSt16__introsort_loopIN9__gnu_cxx17__normal_iteratorIP6w_charSt6vectorIS2_SaIS2_EEEElNS0_5__ops15_Iter_less_iterEEvT_SA_T0_T1_.isra.89+0x230>
    7b07:	48 83 c4 18          	add    $0x18,%rsp
    7b0b:	5b                   	pop    %rbx
    7b0c:	5d                   	pop    %rbp
    7b0d:	41 5c                	pop    %r12
    7b0f:	41 5d                	pop    %r13
    7b11:	41 5e                	pop    %r14
    7b13:	41 5f                	pop    %r15
    7b15:	c3                   	retq   
    7b16:	0f b7 10             	movzwl (%rax),%edx
    7b19:	66 89 55 00          	mov    %dx,0x0(%rbp)
    7b1d:	44 88 08             	mov    %r9b,(%rax)
    7b20:	44 88 50 01          	mov    %r10b,0x1(%rax)
    7b24:	44 0f b6 46 fe       	movzbl -0x2(%rsi),%r8d
    7b29:	44 0f b6 4d 02       	movzbl 0x2(%rbp),%r9d
    7b2e:	44 0f b6 55 03       	movzbl 0x3(%rbp),%r10d
    7b33:	44 0f b6 7e ff       	movzbl -0x1(%rsi),%r15d
    7b38:	e9 23 fe ff ff       	jmpq   7960 <_ZSt16__introsort_loopIN9__gnu_cxx17__normal_iteratorIP6w_charSt6vectorIS2_SaIS2_EEEElNS0_5__ops15_Iter_less_iterEEvT_SA_T0_T1_.isra.89+0xc0>
    7b3d:	0f 1f 00             	nopl   (%rax)

0000000000007b40 <_Z10get_parseriPKcP8Hunspell>:
    7b40:	41 57                	push   %r15
    7b42:	41 56                	push   %r14
    7b44:	41 55                	push   %r13
    7b46:	41 54                	push   %r12
    7b48:	55                   	push   %rbp
    7b49:	53                   	push   %rbx
    7b4a:	48 81 ec f8 20 00 00 	sub    $0x20f8,%rsp
    7b51:	89 7c 24 5c          	mov    %edi,0x5c(%rsp)
    7b55:	48 89 d7             	mov    %rdx,%rdi
    7b58:	48 89 74 24 60       	mov    %rsi,0x60(%rsp)
    7b5d:	48 89 54 24 50       	mov    %rdx,0x50(%rsp)
    7b62:	64 48 8b 04 25 28 00 	mov    %fs:0x28,%rax
    7b69:	00 00 
    7b6b:	48 89 84 24 e8 20 00 	mov    %rax,0x20e8(%rsp)
    7b72:	00 
    7b73:	31 c0                	xor    %eax,%eax
    7b75:	e8 86 cb ff ff       	callq  4700 <_ZNK8Hunspell17get_dict_encodingB5cxx11Ev@plt>
    7b7a:	48 8b 00             	mov    (%rax),%rax
    7b7d:	48 89 44 24 40       	mov    %rax,0x40(%rsp)
    7b82:	e8 f9 cc ff ff       	callq  4880 <_Z18initialize_utf_tblv@plt>
    7b87:	48 8b 05 02 d7 20 00 	mov    0x20d702(%rip),%rax        # 215290 <io_enc>
    7b8e:	48 85 c0             	test   %rax,%rax
    7b91:	0f 84 11 06 00 00    	je     81a8 <_Z10get_parseriPKcP8Hunspell+0x668>
    7b97:	48 8d 3d 44 96 00 00 	lea    0x9644(%rip),%rdi        # 111e2 <_IO_stdin_used+0xde2>
    7b9e:	b9 06 00 00 00       	mov    $0x6,%ecx
    7ba3:	48 89 c6             	mov    %rax,%rsi
    7ba6:	48 89 7c 24 48       	mov    %rdi,0x48(%rsp)
    7bab:	f3 a6                	repz cmpsb %es:(%rdi),%ds:(%rsi)
    7bad:	0f 97 c2             	seta   %dl
    7bb0:	80 da 00             	sbb    $0x0,%dl
    7bb3:	84 d2                	test   %dl,%dl
    7bb5:	0f 85 35 02 00 00    	jne    7df0 <_Z10get_parseriPKcP8Hunspell+0x2b0>
    7bbb:	48 8b 44 24 48       	mov    0x48(%rsp),%rax
    7bc0:	48 89 05 c9 d6 20 00 	mov    %rax,0x20d6c9(%rip)        # 215290 <io_enc>
    7bc7:	4c 8b 7c 24 50       	mov    0x50(%rsp),%r15
    7bcc:	4c 89 ff             	mov    %r15,%rdi
    7bcf:	e8 4c ce ff ff       	callq  4a20 <_ZNK8Hunspell19get_wordchars_utf16Ev@plt>
    7bd4:	4c 89 ff             	mov    %r15,%rdi
    7bd7:	48 89 c3             	mov    %rax,%rbx
    7bda:	e8 c1 cc ff ff       	callq  48a0 <_ZNK8Hunspell17get_wordchars_cppB5cxx11Ev@plt>
    7bdf:	48 8b 0b             	mov    (%rbx),%rcx
    7be2:	48 8b 53 08          	mov    0x8(%rbx),%rdx
    7be6:	48 8b 74 24 40       	mov    0x40(%rsp),%rsi
    7beb:	48 8b 7c 24 48       	mov    0x48(%rsp),%rdi
    7bf0:	48 29 ca             	sub    %rcx,%rdx
    7bf3:	48 d1 fa             	sar    %rdx
    7bf6:	85 d2                	test   %edx,%edx
    7bf8:	89 15 da d6 20 00    	mov    %edx,0x20d6da(%rip)        # 2152d8 <wordchars_utf16_len>
    7bfe:	ba 00 00 00 00       	mov    $0x0,%edx
    7c03:	48 0f 44 ca          	cmove  %rdx,%rcx
    7c07:	48 89 0d ea d6 20 00 	mov    %rcx,0x20d6ea(%rip)        # 2152f8 <wordchars_utf16>
    7c0e:	b9 06 00 00 00       	mov    $0x6,%ecx
    7c13:	f3 a6                	repz cmpsb %es:(%rdi),%ds:(%rsi)
    7c15:	0f 97 c2             	seta   %dl
    7c18:	80 da 00             	sbb    $0x0,%dl
    7c1b:	84 d2                	test   %dl,%dl
    7c1d:	0f 84 ad 01 00 00    	je     7dd0 <_Z10get_parseriPKcP8Hunspell+0x290>
    7c23:	48 8b 50 08          	mov    0x8(%rax),%rdx
    7c27:	48 85 d2             	test   %rdx,%rdx
    7c2a:	0f 84 a0 01 00 00    	je     7dd0 <_Z10get_parseriPKcP8Hunspell+0x290>
    7c30:	48 8b 00             	mov    (%rax),%rax
    7c33:	48 8b 74 24 40       	mov    0x40(%rsp),%rsi
    7c38:	48 8d 1d 01 d7 20 00 	lea    0x20d701(%rip),%rbx        # 215340 <text_conv>
    7c3f:	48 8d 3d 3d 95 00 00 	lea    0x953d(%rip),%rdi        # 11183 <_IO_stdin_used+0xd83>
    7c46:	48 89 94 24 80 00 00 	mov    %rdx,0x80(%rsp)
    7c4d:	00 
    7c4e:	48 c7 84 24 88 00 00 	movq   $0x2000,0x88(%rsp)
    7c55:	00 00 20 00 00 
    7c5a:	48 89 9c 24 90 00 00 	mov    %rbx,0x90(%rsp)
    7c61:	00 
    7c62:	b9 0c 00 00 00       	mov    $0xc,%ecx
    7c67:	48 89 44 24 78       	mov    %rax,0x78(%rsp)
    7c6c:	f3 a6                	repz cmpsb %es:(%rdi),%ds:(%rsi)
    7c6e:	48 8d 35 07 95 00 00 	lea    0x9507(%rip),%rsi        # 1117c <_IO_stdin_used+0xd7c>
    7c75:	48 8d 3d 66 95 00 00 	lea    0x9566(%rip),%rdi        # 111e2 <_IO_stdin_used+0xde2>
    7c7c:	0f 97 c0             	seta   %al
    7c7f:	1c 00                	sbb    $0x0,%al
    7c81:	84 c0                	test   %al,%al
    7c83:	48 0f 45 74 24 40    	cmovne 0x40(%rsp),%rsi
    7c89:	e8 d2 ca ff ff       	callq  4760 <iconv_open@plt>
    7c8e:	48 83 f8 ff          	cmp    $0xffffffffffffffff,%rax
    7c92:	48 89 c5             	mov    %rax,%rbp
    7c95:	0f 84 69 06 00 00    	je     8304 <_Z10get_parseriPKcP8Hunspell+0x7c4>
    7c9b:	48 8d 94 24 80 00 00 	lea    0x80(%rsp),%rdx
    7ca2:	00 
    7ca3:	48 8d 74 24 78       	lea    0x78(%rsp),%rsi
    7ca8:	48 8d 8c 24 90 00 00 	lea    0x90(%rsp),%rcx
    7caf:	00 
    7cb0:	4c 8d 84 24 88 00 00 	lea    0x88(%rsp),%r8
    7cb7:	00 
    7cb8:	48 89 c7             	mov    %rax,%rdi
    7cbb:	e8 60 ce ff ff       	callq  4b20 <iconv@plt>
    7cc0:	48 89 ef             	mov    %rbp,%rdi
    7cc3:	48 8d ac 24 b0 00 00 	lea    0xb0(%rsp),%rbp
    7cca:	00 
    7ccb:	e8 b0 ca ff ff       	callq  4780 <iconv_close@plt>
    7cd0:	48 8d 45 10          	lea    0x10(%rbp),%rax
    7cd4:	48 89 de             	mov    %rbx,%rsi
    7cd7:	48 89 da             	mov    %rbx,%rdx
    7cda:	48 89 84 24 b0 00 00 	mov    %rax,0xb0(%rsp)
    7ce1:	00 
    7ce2:	8b 0a                	mov    (%rdx),%ecx
    7ce4:	48 83 c2 04          	add    $0x4,%rdx
    7ce8:	8d 81 ff fe fe fe    	lea    -0x1010101(%rcx),%eax
    7cee:	f7 d1                	not    %ecx
    7cf0:	21 c8                	and    %ecx,%eax
    7cf2:	25 80 80 80 80       	and    $0x80808080,%eax
    7cf7:	74 e9                	je     7ce2 <_Z10get_parseriPKcP8Hunspell+0x1a2>
    7cf9:	89 c1                	mov    %eax,%ecx
    7cfb:	48 89 ef             	mov    %rbp,%rdi
    7cfe:	c1 e9 10             	shr    $0x10,%ecx
    7d01:	a9 80 80 00 00       	test   $0x8080,%eax
    7d06:	0f 44 c1             	cmove  %ecx,%eax
    7d09:	48 8d 4a 02          	lea    0x2(%rdx),%rcx
    7d0d:	48 0f 44 d1          	cmove  %rcx,%rdx
    7d11:	89 c1                	mov    %eax,%ecx
    7d13:	00 c1                	add    %al,%cl
    7d15:	48 83 da 03          	sbb    $0x3,%rdx
    7d19:	48 29 f2             	sub    %rsi,%rdx
    7d1c:	48 8d 35 1d d6 20 00 	lea    0x20d61d(%rip),%rsi        # 215340 <text_conv>
    7d23:	48 01 da             	add    %rbx,%rdx
    7d26:	e8 a5 e4 ff ff       	callq  61d0 <_ZNSt7__cxx1112basic_stringIcSt11char_traitsIcESaIcEE12_M_constructIPKcEEvT_S8_St20forward_iterator_tag.isra.52>
    7d2b:	48 8d 3d ae d5 20 00 	lea    0x20d5ae(%rip),%rdi        # 2152e0 <new_wordchars_utf16>
    7d32:	48 89 ee             	mov    %rbp,%rsi
    7d35:	e8 96 ce ff ff       	callq  4bd0 <_Z6u8_u16RSt6vectorI6w_charSaIS0_EERKNSt7__cxx1112basic_stringIcSt11char_traitsIcESaIcEEE@plt>
    7d3a:	48 8b bc 24 b0 00 00 	mov    0xb0(%rsp),%rdi
    7d41:	00 
    7d42:	48 83 c5 10          	add    $0x10,%rbp
    7d46:	48 39 ef             	cmp    %rbp,%rdi
    7d49:	74 05                	je     7d50 <_Z10get_parseriPKcP8Hunspell+0x210>
    7d4b:	e8 b0 ca ff ff       	callq  4800 <_ZdlPv@plt>
    7d50:	48 8b 2d 91 d5 20 00 	mov    0x20d591(%rip),%rbp        # 2152e8 <new_wordchars_utf16+0x8>
    7d57:	48 8b 1d 82 d5 20 00 	mov    0x20d582(%rip),%rbx        # 2152e0 <new_wordchars_utf16>
    7d5e:	49 89 ec             	mov    %rbp,%r12
    7d61:	49 29 dc             	sub    %rbx,%r12
    7d64:	4c 89 e0             	mov    %r12,%rax
    7d67:	48 d1 f8             	sar    %rax
    7d6a:	48 39 dd             	cmp    %rbx,%rbp
    7d6d:	74 51                	je     7dc0 <_Z10get_parseriPKcP8Hunspell+0x280>
    7d6f:	48 0f bd c0          	bsr    %rax,%rax
    7d73:	ba 3f 00 00 00       	mov    $0x3f,%edx
    7d78:	48 89 ee             	mov    %rbp,%rsi
    7d7b:	48 83 f0 3f          	xor    $0x3f,%rax
    7d7f:	48 89 df             	mov    %rbx,%rdi
    7d82:	48 98                	cltq   
    7d84:	48 29 c2             	sub    %rax,%rdx
    7d87:	48 01 d2             	add    %rdx,%rdx
    7d8a:	e8 11 fb ff ff       	callq  78a0 <_ZSt16__introsort_loopIN9__gnu_cxx17__normal_iteratorIP6w_charSt6vectorIS2_SaIS2_EEEElNS0_5__ops15_Iter_less_iterEEvT_SA_T0_T1_.isra.89>
    7d8f:	49 83 fc 20          	cmp    $0x20,%r12
    7d93:	0f 8f 1a 07 00 00    	jg     84b3 <_Z10get_parseriPKcP8Hunspell+0x973>
    7d99:	48 83 ec 08          	sub    $0x8,%rsp
    7d9d:	48 89 df             	mov    %rbx,%rdi
    7da0:	48 89 ee             	mov    %rbp,%rsi
    7da3:	6a 00                	pushq  $0x0
    7da5:	e8 e6 47 00 00       	callq  c590 <_ZSt16__insertion_sortIN9__gnu_cxx17__normal_iteratorIP6w_charSt6vectorIS2_SaIS2_EEEENS0_5__ops15_Iter_less_iterEEvT_SA_T0_>
    7daa:	48 8b 1d 2f d5 20 00 	mov    0x20d52f(%rip),%rbx        # 2152e0 <new_wordchars_utf16>
    7db1:	48 8b 05 30 d5 20 00 	mov    0x20d530(%rip),%rax        # 2152e8 <new_wordchars_utf16+0x8>
    7db8:	5a                   	pop    %rdx
    7db9:	59                   	pop    %rcx
    7dba:	48 29 d8             	sub    %rbx,%rax
    7dbd:	48 d1 f8             	sar    %rax
    7dc0:	48 89 1d 31 d5 20 00 	mov    %rbx,0x20d531(%rip)        # 2152f8 <wordchars_utf16>
    7dc7:	89 05 0b d5 20 00    	mov    %eax,0x20d50b(%rip)        # 2152d8 <wordchars_utf16_len>
    7dcd:	0f 1f 00             	nopl   (%rax)
    7dd0:	8b 44 24 5c          	mov    0x5c(%rsp),%eax
    7dd4:	83 f8 06             	cmp    $0x6,%eax
    7dd7:	0f 87 7c 07 00 00    	ja     8559 <_Z10get_parseriPKcP8Hunspell+0xa19>
    7ddd:	48 8d 15 30 97 00 00 	lea    0x9730(%rip),%rdx        # 11514 <_IO_stdin_used+0x1114>
    7de4:	48 63 04 82          	movslq (%rdx,%rax,4),%rax
    7de8:	48 01 d0             	add    %rdx,%rax
    7deb:	ff e0                	jmpq   *%rax
    7ded:	0f 1f 00             	nopl   (%rax)
    7df0:	48 8d 3d 31 94 00 00 	lea    0x9431(%rip),%rdi        # 11228 <_IO_stdin_used+0xe28>
    7df7:	b9 06 00 00 00       	mov    $0x6,%ecx
    7dfc:	48 89 c6             	mov    %rax,%rsi
    7dff:	f3 a6                	repz cmpsb %es:(%rdi),%ds:(%rsi)
    7e01:	0f 97 c2             	seta   %dl
    7e04:	80 da 00             	sbb    $0x0,%dl
    7e07:	84 d2                	test   %dl,%dl
    7e09:	0f 84 ac fd ff ff    	je     7bbb <_Z10get_parseriPKcP8Hunspell+0x7b>
    7e0f:	48 8d 3d 18 94 00 00 	lea    0x9418(%rip),%rdi        # 1122e <_IO_stdin_used+0xe2e>
    7e16:	b9 05 00 00 00       	mov    $0x5,%ecx
    7e1b:	48 89 c6             	mov    %rax,%rsi
    7e1e:	f3 a6                	repz cmpsb %es:(%rdi),%ds:(%rsi)
    7e20:	0f 97 c2             	seta   %dl
    7e23:	80 da 00             	sbb    $0x0,%dl
    7e26:	84 d2                	test   %dl,%dl
    7e28:	0f 84 8d fd ff ff    	je     7bbb <_Z10get_parseriPKcP8Hunspell+0x7b>
    7e2e:	48 8d 3d fe 93 00 00 	lea    0x93fe(%rip),%rdi        # 11233 <_IO_stdin_used+0xe33>
    7e35:	b9 05 00 00 00       	mov    $0x5,%ecx
    7e3a:	48 89 c6             	mov    %rax,%rsi
    7e3d:	f3 a6                	repz cmpsb %es:(%rdi),%ds:(%rsi)
    7e3f:	0f 97 c2             	seta   %dl
    7e42:	80 da 00             	sbb    $0x0,%dl
    7e45:	84 d2                	test   %dl,%dl
    7e47:	0f 84 6e fd ff ff    	je     7bbb <_Z10get_parseriPKcP8Hunspell+0x7b>
    7e4d:	48 8d 3d 2f 93 00 00 	lea    0x932f(%rip),%rdi        # 11183 <_IO_stdin_used+0xd83>
    7e54:	48 89 c6             	mov    %rax,%rsi
    7e57:	c6 84 24 e0 00 00 00 	movb   $0x0,0xe0(%rsp)
    7e5e:	00 
    7e5f:	b9 0c 00 00 00       	mov    $0xc,%ecx
    7e64:	f3 a6                	repz cmpsb %es:(%rdi),%ds:(%rsi)
    7e66:	48 8d 3d 75 93 00 00 	lea    0x9375(%rip),%rdi        # 111e2 <_IO_stdin_used+0xde2>
    7e6d:	0f 97 c2             	seta   %dl
    7e70:	80 da 00             	sbb    $0x0,%dl
    7e73:	84 d2                	test   %dl,%dl
    7e75:	48 8d 15 00 93 00 00 	lea    0x9300(%rip),%rdx        # 1117c <_IO_stdin_used+0xd7c>
    7e7c:	48 0f 44 c2          	cmove  %rdx,%rax
    7e80:	48 89 c6             	mov    %rax,%rsi
    7e83:	e8 d8 c8 ff ff       	callq  4760 <iconv_open@plt>
    7e88:	48 83 f8 ff          	cmp    $0xffffffffffffffff,%rax
    7e8c:	49 89 c5             	mov    %rax,%r13
    7e8f:	0f 84 66 08 00 00    	je     86fb <_Z10get_parseriPKcP8Hunspell+0xbbb>
    7e95:	48 8d 84 24 e0 00 00 	lea    0xe0(%rsp),%rax
    7e9c:	00 
    7e9d:	48 8d ac 24 d6 00 00 	lea    0xd6(%rsp),%rbp
    7ea4:	00 
    7ea5:	4c 8d b4 24 d4 00 00 	lea    0xd4(%rsp),%r14
    7eac:	00 
    7ead:	4c 8d bc 24 c0 00 00 	lea    0xc0(%rsp),%r15
    7eb4:	00 
    7eb5:	bb 20 00 00 00       	mov    $0x20,%ebx
    7eba:	48 89 44 24 68       	mov    %rax,0x68(%rsp)
    7ebf:	48 89 44 24 30       	mov    %rax,0x30(%rsp)
    7ec4:	48 8d 84 24 88 00 00 	lea    0x88(%rsp),%rax
    7ecb:	00 
    7ecc:	48 89 44 24 20       	mov    %rax,0x20(%rsp)
    7ed1:	48 8d 84 24 80 00 00 	lea    0x80(%rsp),%rax
    7ed8:	00 
    7ed9:	48 89 44 24 18       	mov    %rax,0x18(%rsp)
    7ede:	48 8d 44 24 78       	lea    0x78(%rsp),%rax
    7ee3:	48 89 44 24 10       	mov    %rax,0x10(%rsp)
    7ee8:	48 8d 44 24 70       	lea    0x70(%rsp),%rax
    7eed:	48 89 44 24 08       	mov    %rax,0x8(%rsp)
    7ef2:	48 8d 84 24 b0 00 00 	lea    0xb0(%rsp),%rax
    7ef9:	00 
    7efa:	48 89 44 24 28       	mov    %rax,0x28(%rsp)
    7eff:	48 8d 84 24 90 00 00 	lea    0x90(%rsp),%rax
    7f06:	00 
    7f07:	48 89 44 24 38       	mov    %rax,0x38(%rsp)
    7f0c:	0f 1f 40 00          	nopl   0x0(%rax)
    7f10:	4c 8b 44 24 10       	mov    0x10(%rsp),%r8
    7f15:	48 8b 4c 24 18       	mov    0x18(%rsp),%rcx
    7f1a:	4c 89 ef             	mov    %r13,%rdi
    7f1d:	48 8b 54 24 08       	mov    0x8(%rsp),%rdx
    7f22:	48 8b 74 24 20       	mov    0x20(%rsp),%rsi
    7f27:	41 89 dc             	mov    %ebx,%r12d
    7f2a:	48 c7 44 24 70 01 00 	movq   $0x1,0x70(%rsp)
    7f31:	00 00 
    7f33:	48 c7 44 24 78 0a 00 	movq   $0xa,0x78(%rsp)
    7f3a:	00 00 
    7f3c:	48 89 ac 24 80 00 00 	mov    %rbp,0x80(%rsp)
    7f43:	00 
    7f44:	c6 84 24 d6 00 00 00 	movb   $0x0,0xd6(%rsp)
    7f4b:	00 
    7f4c:	4c 89 b4 24 88 00 00 	mov    %r14,0x88(%rsp)
    7f53:	00 
    7f54:	88 9c 24 d4 00 00 00 	mov    %bl,0xd4(%rsp)
    7f5b:	c6 84 24 d5 00 00 00 	movb   $0x0,0xd5(%rsp)
    7f62:	00 
    7f63:	e8 b8 cb ff ff       	callq  4b20 <iconv@plt>
    7f68:	48 83 f8 ff          	cmp    $0xffffffffffffffff,%rax
    7f6c:	0f 84 b1 00 00 00    	je     8023 <_Z10get_parseriPKcP8Hunspell+0x4e3>
    7f72:	48 8b 94 24 80 00 00 	mov    0x80(%rsp),%rdx
    7f79:	00 
    7f7a:	48 8b 7c 24 28       	mov    0x28(%rsp),%rdi
    7f7f:	48 89 ee             	mov    %rbp,%rsi
    7f82:	48 c7 84 24 90 00 00 	movq   $0x0,0x90(%rsp)
    7f89:	00 00 00 00 00 
    7f8e:	48 c7 84 24 98 00 00 	movq   $0x0,0x98(%rsp)
    7f95:	00 00 00 00 00 
    7f9a:	48 c7 84 24 a0 00 00 	movq   $0x0,0xa0(%rsp)
    7fa1:	00 00 00 00 00 
    7fa6:	4c 89 bc 24 b0 00 00 	mov    %r15,0xb0(%rsp)
    7fad:	00 
    7fae:	e8 1d e2 ff ff       	callq  61d0 <_ZNSt7__cxx1112basic_stringIcSt11char_traitsIcESaIcEE12_M_constructIPKcEEvT_S8_St20forward_iterator_tag.isra.52>
    7fb3:	48 8b 74 24 28       	mov    0x28(%rsp),%rsi
    7fb8:	48 8b 7c 24 38       	mov    0x38(%rsp),%rdi
    7fbd:	e8 0e cc ff ff       	callq  4bd0 <_Z6u8_u16RSt6vectorI6w_charSaIS0_EERKNSt7__cxx1112basic_stringIcSt11char_traitsIcESaIcEEE@plt>
    7fc2:	48 8b bc 24 b0 00 00 	mov    0xb0(%rsp),%rdi
    7fc9:	00 
    7fca:	4c 39 ff             	cmp    %r15,%rdi
    7fcd:	74 05                	je     7fd4 <_Z10get_parseriPKcP8Hunspell+0x494>
    7fcf:	e8 2c c8 ff ff       	callq  4800 <_ZdlPv@plt>
    7fd4:	48 8b 84 24 90 00 00 	mov    0x90(%rsp),%rax
    7fdb:	00 
    7fdc:	31 ff                	xor    %edi,%edi
    7fde:	48 3b 84 24 98 00 00 	cmp    0x98(%rsp),%rax
    7fe5:	00 
    7fe6:	74 0f                	je     7ff7 <_Z10get_parseriPKcP8Hunspell+0x4b7>
    7fe8:	0f b6 78 01          	movzbl 0x1(%rax),%edi
    7fec:	0f b6 00             	movzbl (%rax),%eax
    7fef:	c1 e7 08             	shl    $0x8,%edi
    7ff2:	01 c7                	add    %eax,%edi
    7ff4:	0f b7 ff             	movzwl %di,%edi
    7ff7:	e8 74 c7 ff ff       	callq  4770 <_Z14unicodeisalphat@plt>
    7ffc:	85 c0                	test   %eax,%eax
    7ffe:	74 11                	je     8011 <_Z10get_parseriPKcP8Hunspell+0x4d1>
    8000:	48 8b 44 24 30       	mov    0x30(%rsp),%rax
    8005:	44 88 20             	mov    %r12b,(%rax)
    8008:	48 83 c0 01          	add    $0x1,%rax
    800c:	48 89 44 24 30       	mov    %rax,0x30(%rsp)
    8011:	48 8b bc 24 90 00 00 	mov    0x90(%rsp),%rdi
    8018:	00 
    8019:	48 85 ff             	test   %rdi,%rdi
    801c:	74 05                	je     8023 <_Z10get_parseriPKcP8Hunspell+0x4e3>
    801e:	e8 dd c7 ff ff       	callq  4800 <_ZdlPv@plt>
    8023:	83 c3 01             	add    $0x1,%ebx
    8026:	81 fb 00 01 00 00    	cmp    $0x100,%ebx
    802c:	0f 85 de fe ff ff    	jne    7f10 <_Z10get_parseriPKcP8Hunspell+0x3d0>
    8032:	4c 89 ef             	mov    %r13,%rdi
    8035:	e8 46 c7 ff ff       	callq  4780 <iconv_close@plt>
    803a:	48 8b 44 24 30       	mov    0x30(%rsp),%rax
    803f:	48 8b 7c 24 50       	mov    0x50(%rsp),%rdi
    8044:	c6 00 00             	movb   $0x0,(%rax)
    8047:	e8 54 c8 ff ff       	callq  48a0 <_ZNK8Hunspell17get_wordchars_cppB5cxx11Ev@plt>
    804c:	48 8b 50 08          	mov    0x8(%rax),%rdx
    8050:	48 89 c3             	mov    %rax,%rbx
    8053:	48 85 d2             	test   %rdx,%rdx
    8056:	0f 84 1a 01 00 00    	je     8176 <_Z10get_parseriPKcP8Hunspell+0x636>
    805c:	48 8b 74 24 40       	mov    0x40(%rsp),%rsi
    8061:	48 8b 7c 24 48       	mov    0x48(%rsp),%rdi
    8066:	b9 06 00 00 00       	mov    $0x6,%ecx
    806b:	f3 a6                	repz cmpsb %es:(%rdi),%ds:(%rsi)
    806d:	0f 97 c0             	seta   %al
    8070:	1c 00                	sbb    $0x0,%al
    8072:	84 c0                	test   %al,%al
    8074:	0f 84 cc 06 00 00    	je     8746 <_Z10get_parseriPKcP8Hunspell+0xc06>
    807a:	48 8b 4c 24 68       	mov    0x68(%rsp),%rcx
    807f:	8b 31                	mov    (%rcx),%esi
    8081:	48 83 c1 04          	add    $0x4,%rcx
    8085:	8d 86 ff fe fe fe    	lea    -0x1010101(%rsi),%eax
    808b:	f7 d6                	not    %esi
    808d:	21 f0                	and    %esi,%eax
    808f:	25 80 80 80 80       	and    $0x80808080,%eax
    8094:	74 e9                	je     807f <_Z10get_parseriPKcP8Hunspell+0x53f>
    8096:	89 c6                	mov    %eax,%esi
    8098:	48 8d 3d e4 90 00 00 	lea    0x90e4(%rip),%rdi        # 11183 <_IO_stdin_used+0xd83>
    809f:	4c 8d 05 d6 90 00 00 	lea    0x90d6(%rip),%r8        # 1117c <_IO_stdin_used+0xd7c>
    80a6:	c1 ee 10             	shr    $0x10,%esi
    80a9:	a9 80 80 00 00       	test   $0x8080,%eax
    80ae:	0f 44 c6             	cmove  %esi,%eax
    80b1:	48 8d 71 02          	lea    0x2(%rcx),%rsi
    80b5:	48 0f 44 ce          	cmove  %rsi,%rcx
    80b9:	89 c6                	mov    %eax,%esi
    80bb:	40 00 c6             	add    %al,%sil
    80be:	48 8b 74 24 40       	mov    0x40(%rsp),%rsi
    80c3:	48 83 d9 03          	sbb    $0x3,%rcx
    80c7:	48 83 c2 01          	add    $0x1,%rdx
    80cb:	48 89 4c 24 78       	mov    %rcx,0x78(%rsp)
    80d0:	48 89 94 24 80 00 00 	mov    %rdx,0x80(%rsp)
    80d7:	00 
    80d8:	b9 0c 00 00 00       	mov    $0xc,%ecx
    80dd:	48 89 94 24 88 00 00 	mov    %rdx,0x88(%rsp)
    80e4:	00 
    80e5:	f3 a6                	repz cmpsb %es:(%rdi),%ds:(%rsi)
    80e7:	48 8b 74 24 40       	mov    0x40(%rsp),%rsi
    80ec:	48 8d 3d 90 90 00 00 	lea    0x9090(%rip),%rdi        # 11183 <_IO_stdin_used+0xd83>
    80f3:	b9 0c 00 00 00       	mov    $0xc,%ecx
    80f8:	0f 97 c0             	seta   %al
    80fb:	1c 00                	sbb    $0x0,%al
    80fd:	84 c0                	test   %al,%al
    80ff:	48 8b 05 8a d1 20 00 	mov    0x20d18a(%rip),%rax        # 215290 <io_enc>
    8106:	49 0f 44 f0          	cmove  %r8,%rsi
    810a:	49 89 f1             	mov    %rsi,%r9
    810d:	48 89 c6             	mov    %rax,%rsi
    8110:	f3 a6                	repz cmpsb %es:(%rdi),%ds:(%rsi)
    8112:	4c 89 ce             	mov    %r9,%rsi
    8115:	0f 97 c2             	seta   %dl
    8118:	80 da 00             	sbb    $0x0,%dl
    811b:	84 d2                	test   %dl,%dl
    811d:	49 0f 44 c0          	cmove  %r8,%rax
    8121:	48 89 c7             	mov    %rax,%rdi
    8124:	e8 37 c6 ff ff       	callq  4760 <iconv_open@plt>
    8129:	48 83 f8 ff          	cmp    $0xffffffffffffffff,%rax
    812d:	48 89 c5             	mov    %rax,%rbp
    8130:	0f 84 e9 04 00 00    	je     861f <_Z10get_parseriPKcP8Hunspell+0xadf>
    8136:	48 8b 03             	mov    (%rbx),%rax
    8139:	48 8d 4c 24 78       	lea    0x78(%rsp),%rcx
    813e:	48 8d 94 24 80 00 00 	lea    0x80(%rsp),%rdx
    8145:	00 
    8146:	48 8d b4 24 90 00 00 	lea    0x90(%rsp),%rsi
    814d:	00 
    814e:	4c 8d 84 24 88 00 00 	lea    0x88(%rsp),%r8
    8155:	00 
    8156:	48 89 ef             	mov    %rbp,%rdi
    8159:	48 89 84 24 90 00 00 	mov    %rax,0x90(%rsp)
    8160:	00 
    8161:	e8 ba c9 ff ff       	callq  4b20 <iconv@plt>
    8166:	48 89 ef             	mov    %rbp,%rdi
    8169:	e8 12 c6 ff ff       	callq  4780 <iconv_close@plt>
    816e:	48 8b 44 24 78       	mov    0x78(%rsp),%rax
    8173:	c6 00 00             	movb   $0x0,(%rax)
    8176:	80 bc 24 e0 00 00 00 	cmpb   $0x0,0xe0(%rsp)
    817d:	00 
    817e:	0f 85 d0 02 00 00    	jne    8454 <_Z10get_parseriPKcP8Hunspell+0x914>
    8184:	8b 44 24 5c          	mov    0x5c(%rsp),%eax
    8188:	83 f8 06             	cmp    $0x6,%eax
    818b:	0f 87 87 04 00 00    	ja     8618 <_Z10get_parseriPKcP8Hunspell+0xad8>
    8191:	48 8d 15 98 93 00 00 	lea    0x9398(%rip),%rdx        # 11530 <_IO_stdin_used+0x1130>
    8198:	48 63 04 82          	movslq (%rdx,%rax,4),%rax
    819c:	48 01 d0             	add    %rdx,%rax
    819f:	ff e0                	jmpq   *%rax
    81a1:	0f 1f 80 00 00 00 00 	nopl   0x0(%rax)
    81a8:	48 8b 05 e9 d0 20 00 	mov    0x20d0e9(%rip),%rax        # 215298 <ui_enc>
    81af:	48 85 c0             	test   %rax,%rax
    81b2:	0f 84 65 02 00 00    	je     841d <_Z10get_parseriPKcP8Hunspell+0x8dd>
    81b8:	48 8d 3d 23 90 00 00 	lea    0x9023(%rip),%rdi        # 111e2 <_IO_stdin_used+0xde2>
    81bf:	48 89 05 ca d0 20 00 	mov    %rax,0x20d0ca(%rip)        # 215290 <io_enc>
    81c6:	b9 06 00 00 00       	mov    $0x6,%ecx
    81cb:	48 89 c6             	mov    %rax,%rsi
    81ce:	48 89 7c 24 48       	mov    %rdi,0x48(%rsp)
    81d3:	f3 a6                	repz cmpsb %es:(%rdi),%ds:(%rsi)
    81d5:	0f 97 c2             	seta   %dl
    81d8:	80 da 00             	sbb    $0x0,%dl
    81db:	84 d2                	test   %dl,%dl
    81dd:	0f 85 6a fc ff ff    	jne    7e4d <_Z10get_parseriPKcP8Hunspell+0x30d>
    81e3:	e9 df f9 ff ff       	jmpq   7bc7 <_Z10get_parseriPKcP8Hunspell+0x87>
    81e8:	bf 10 01 00 00       	mov    $0x110,%edi
    81ed:	e8 3e c6 ff ff       	callq  4830 <_Znwm@plt>
    81f2:	8b 15 e0 d0 20 00    	mov    0x20d0e0(%rip),%edx        # 2152d8 <wordchars_utf16_len>
    81f8:	48 8b 35 f9 d0 20 00 	mov    0x20d0f9(%rip),%rsi        # 2152f8 <wordchars_utf16>
    81ff:	48 89 c7             	mov    %rax,%rdi
    8202:	48 89 c3             	mov    %rax,%rbx
    8205:	e8 56 81 00 00       	callq  10360 <_ZN9ODFParserC1EPK6w_chari>
    820a:	66 0f 1f 44 00 00    	nopw   0x0(%rax,%rax,1)
    8210:	8b 35 92 d0 20 00    	mov    0x20d092(%rip),%esi        # 2152a8 <checkurl>
    8216:	48 89 df             	mov    %rbx,%rdi
    8219:	e8 32 6a 00 00       	callq  ec50 <_ZN10TextParser16set_url_checkingEi>
    821e:	48 8b 8c 24 e8 20 00 	mov    0x20e8(%rsp),%rcx
    8225:	00 
    8226:	64 48 33 0c 25 28 00 	xor    %fs:0x28,%rcx
    822d:	00 00 
    822f:	48 89 d8             	mov    %rbx,%rax
    8232:	0f 85 a9 07 00 00    	jne    89e1 <_Z10get_parseriPKcP8Hunspell+0xea1>
    8238:	48 81 c4 f8 20 00 00 	add    $0x20f8,%rsp
    823f:	5b                   	pop    %rbx
    8240:	5d                   	pop    %rbp
    8241:	41 5c                	pop    %r12
    8243:	41 5d                	pop    %r13
    8245:	41 5e                	pop    %r14
    8247:	41 5f                	pop    %r15
    8249:	c3                   	retq   
    824a:	bf 10 01 00 00       	mov    $0x110,%edi
    824f:	e8 dc c5 ff ff       	callq  4830 <_Znwm@plt>
    8254:	8b 15 7e d0 20 00    	mov    0x20d07e(%rip),%edx        # 2152d8 <wordchars_utf16_len>
    825a:	48 8b 35 97 d0 20 00 	mov    0x20d097(%rip),%rsi        # 2152f8 <wordchars_utf16>
    8261:	48 89 c7             	mov    %rax,%rdi
    8264:	48 89 c3             	mov    %rax,%rbx
    8267:	e8 84 49 00 00       	callq  cbf0 <_ZN9XMLParserC1EPK6w_chari>
    826c:	eb a2                	jmp    8210 <_Z10get_parseriPKcP8Hunspell+0x6d0>
    826e:	48 8b 2d ab d0 20 00 	mov    0x20d0ab(%rip),%rbp        # 215320 <_Z9wordcharsB5cxx11>
    8275:	bf f8 00 00 00       	mov    $0xf8,%edi
    827a:	e8 b1 c5 ff ff       	callq  4830 <_Znwm@plt>
    827f:	48 89 c7             	mov    %rax,%rdi
    8282:	48 89 c3             	mov    %rax,%rbx
    8285:	48 89 ee             	mov    %rbp,%rsi
    8288:	e8 f3 47 00 00       	callq  ca80 <_ZN11FirstParserC1EPKc>
    828d:	eb 81                	jmp    8210 <_Z10get_parseriPKcP8Hunspell+0x6d0>
    828f:	bf f8 00 00 00       	mov    $0xf8,%edi
    8294:	e8 97 c5 ff ff       	callq  4830 <_Znwm@plt>
    8299:	8b 15 39 d0 20 00    	mov    0x20d039(%rip),%edx        # 2152d8 <wordchars_utf16_len>
    829f:	48 8b 35 52 d0 20 00 	mov    0x20d052(%rip),%rsi        # 2152f8 <wordchars_utf16>
    82a6:	48 89 c7             	mov    %rax,%rdi
    82a9:	48 89 c3             	mov    %rax,%rbx
    82ac:	e8 cf 60 00 00       	callq  e380 <_ZN9ManParserC1EPK6w_chari>
    82b1:	e9 5a ff ff ff       	jmpq   8210 <_Z10get_parseriPKcP8Hunspell+0x6d0>
    82b6:	bf 10 01 00 00       	mov    $0x110,%edi
    82bb:	e8 70 c5 ff ff       	callq  4830 <_Znwm@plt>
    82c0:	8b 15 12 d0 20 00    	mov    0x20d012(%rip),%edx        # 2152d8 <wordchars_utf16_len>
    82c6:	48 8b 35 2b d0 20 00 	mov    0x20d02b(%rip),%rsi        # 2152f8 <wordchars_utf16>
    82cd:	48 89 c7             	mov    %rax,%rdi
    82d0:	48 89 c3             	mov    %rax,%rbx
    82d3:	e8 88 7f 00 00       	callq  10260 <_ZN10HTMLParserC1EPK6w_chari>
    82d8:	e9 33 ff ff ff       	jmpq   8210 <_Z10get_parseriPKcP8Hunspell+0x6d0>
    82dd:	bf 08 01 00 00       	mov    $0x108,%edi
    82e2:	e8 49 c5 ff ff       	callq  4830 <_Znwm@plt>
    82e7:	8b 15 eb cf 20 00    	mov    0x20cfeb(%rip),%edx        # 2152d8 <wordchars_utf16_len>
    82ed:	48 8b 35 04 d0 20 00 	mov    0x20d004(%rip),%rsi        # 2152f8 <wordchars_utf16>
    82f4:	48 89 c7             	mov    %rax,%rdi
    82f7:	48 89 c3             	mov    %rax,%rbx
    82fa:	e8 11 57 00 00       	callq  da10 <_ZN11LaTeXParserC1EPK6w_chari>
    82ff:	e9 0c ff ff ff       	jmpq   8210 <_Z10get_parseriPKcP8Hunspell+0x6d0>
    8304:	48 8d 3d 65 81 00 00 	lea    0x8165(%rip),%rdi        # 10470 <_IO_stdin_used+0x70>
    830b:	e8 00 c3 ff ff       	callq  4610 <gettext@plt>
    8310:	48 8b 4c 24 40       	mov    0x40(%rsp),%rcx
    8315:	48 8b 3d e4 ce 20 00 	mov    0x20cee4(%rip),%rdi        # 215200 <stderr@@GLIBC_2.2.5>
    831c:	48 89 c2             	mov    %rax,%rdx
    831f:	be 01 00 00 00       	mov    $0x1,%esi
    8324:	31 c0                	xor    %eax,%eax
    8326:	e8 b5 c7 ff ff       	callq  4ae0 <__fprintf_chk@plt>
    832b:	48 c7 05 c2 cf 20 00 	movq   $0x0,0x20cfc2(%rip)        # 2152f8 <wordchars_utf16>
    8332:	00 00 00 00 
    8336:	c7 05 98 cf 20 00 00 	movl   $0x0,0x20cf98(%rip)        # 2152d8 <wordchars_utf16_len>
    833d:	00 00 00 
    8340:	e9 8b fa ff ff       	jmpq   7dd0 <_Z10get_parseriPKcP8Hunspell+0x290>
    8345:	48 8b 2d d4 cf 20 00 	mov    0x20cfd4(%rip),%rbp        # 215320 <_Z9wordcharsB5cxx11>
    834c:	bf 10 01 00 00       	mov    $0x110,%edi
    8351:	e8 da c4 ff ff       	callq  4830 <_Znwm@plt>
    8356:	48 89 c7             	mov    %rax,%rdi
    8359:	48 89 c3             	mov    %rax,%rbx
    835c:	48 89 ee             	mov    %rbp,%rsi
    835f:	e8 dc 7f 00 00       	callq  10340 <_ZN9ODFParserC1EPKc>
    8364:	e9 a7 fe ff ff       	jmpq   8210 <_Z10get_parseriPKcP8Hunspell+0x6d0>
    8369:	48 8b 2d b0 cf 20 00 	mov    0x20cfb0(%rip),%rbp        # 215320 <_Z9wordcharsB5cxx11>
    8370:	bf 10 01 00 00       	mov    $0x110,%edi
    8375:	e8 b6 c4 ff ff       	callq  4830 <_Znwm@plt>
    837a:	48 89 c7             	mov    %rax,%rdi
    837d:	48 89 c3             	mov    %rax,%rbx
    8380:	48 89 ee             	mov    %rbp,%rsi
    8383:	e8 28 48 00 00       	callq  cbb0 <_ZN9XMLParserC1EPKc>
    8388:	e9 83 fe ff ff       	jmpq   8210 <_Z10get_parseriPKcP8Hunspell+0x6d0>
    838d:	48 8b 2d 8c cf 20 00 	mov    0x20cf8c(%rip),%rbp        # 215320 <_Z9wordcharsB5cxx11>
    8394:	bf f8 00 00 00       	mov    $0xf8,%edi
    8399:	e8 92 c4 ff ff       	callq  4830 <_Znwm@plt>
    839e:	48 89 c7             	mov    %rax,%rdi
    83a1:	48 89 c3             	mov    %rax,%rbx
    83a4:	48 89 ee             	mov    %rbp,%rsi
    83a7:	e8 d4 46 00 00       	callq  ca80 <_ZN11FirstParserC1EPKc>
    83ac:	e9 5f fe ff ff       	jmpq   8210 <_Z10get_parseriPKcP8Hunspell+0x6d0>
    83b1:	48 8b 2d 68 cf 20 00 	mov    0x20cf68(%rip),%rbp        # 215320 <_Z9wordcharsB5cxx11>
    83b8:	bf f8 00 00 00       	mov    $0xf8,%edi
    83bd:	e8 6e c4 ff ff       	callq  4830 <_Znwm@plt>
    83c2:	48 89 c7             	mov    %rax,%rdi
    83c5:	48 89 c3             	mov    %rax,%rbx
    83c8:	48 89 ee             	mov    %rbp,%rsi
    83cb:	e8 90 5f 00 00       	callq  e360 <_ZN9ManParserC1EPKc>
    83d0:	e9 3b fe ff ff       	jmpq   8210 <_Z10get_parseriPKcP8Hunspell+0x6d0>
    83d5:	48 8b 2d 44 cf 20 00 	mov    0x20cf44(%rip),%rbp        # 215320 <_Z9wordcharsB5cxx11>
    83dc:	bf 10 01 00 00       	mov    $0x110,%edi
    83e1:	e8 4a c4 ff ff       	callq  4830 <_Znwm@plt>
    83e6:	48 89 c7             	mov    %rax,%rdi
    83e9:	48 89 c3             	mov    %rax,%rbx
    83ec:	48 89 ee             	mov    %rbp,%rsi
    83ef:	e8 4c 7e 00 00       	callq  10240 <_ZN10HTMLParserC1EPKc>
    83f4:	e9 17 fe ff ff       	jmpq   8210 <_Z10get_parseriPKcP8Hunspell+0x6d0>
    83f9:	48 8b 2d 20 cf 20 00 	mov    0x20cf20(%rip),%rbp        # 215320 <_Z9wordcharsB5cxx11>
    8400:	bf 08 01 00 00       	mov    $0x108,%edi
    8405:	e8 26 c4 ff ff       	callq  4830 <_Znwm@plt>
    840a:	48 89 c7             	mov    %rax,%rdi
    840d:	48 89 c3             	mov    %rax,%rbx
    8410:	48 89 ee             	mov    %rbp,%rsi
    8413:	e8 c8 55 00 00       	callq  d9e0 <_ZN11LaTeXParserC1EPKc>
    8418:	e9 f3 fd ff ff       	jmpq   8210 <_Z10get_parseriPKcP8Hunspell+0x6d0>
    841d:	48 8b 54 24 40       	mov    0x40(%rsp),%rdx
    8422:	48 8d 3d b9 8d 00 00 	lea    0x8db9(%rip),%rdi        # 111e2 <_IO_stdin_used+0xde2>
    8429:	b9 06 00 00 00       	mov    $0x6,%ecx
    842e:	48 89 7c 24 48       	mov    %rdi,0x48(%rsp)
    8433:	48 89 d6             	mov    %rdx,%rsi
    8436:	48 89 15 53 ce 20 00 	mov    %rdx,0x20ce53(%rip)        # 215290 <io_enc>
    843d:	f3 a6                	repz cmpsb %es:(%rdi),%ds:(%rsi)
    843f:	0f 97 c0             	seta   %al
    8442:	1c 00                	sbb    $0x0,%al
    8444:	84 c0                	test   %al,%al
    8446:	0f 84 7b f7 ff ff    	je     7bc7 <_Z10get_parseriPKcP8Hunspell+0x87>
    844c:	48 89 d0             	mov    %rdx,%rax
    844f:	e9 f9 f9 ff ff       	jmpq   7e4d <_Z10get_parseriPKcP8Hunspell+0x30d>
    8454:	4c 8b 44 24 68       	mov    0x68(%rsp),%r8
    8459:	41 8b 10             	mov    (%r8),%edx
    845c:	49 83 c0 04          	add    $0x4,%r8
    8460:	8d 82 ff fe fe fe    	lea    -0x1010101(%rdx),%eax
    8466:	f7 d2                	not    %edx
    8468:	21 d0                	and    %edx,%eax
    846a:	25 80 80 80 80       	and    $0x80808080,%eax
    846f:	74 e8                	je     8459 <_Z10get_parseriPKcP8Hunspell+0x919>
    8471:	89 c2                	mov    %eax,%edx
    8473:	48 8d 3d a6 ce 20 00 	lea    0x20cea6(%rip),%rdi        # 215320 <_Z9wordcharsB5cxx11>
    847a:	c1 ea 10             	shr    $0x10,%edx
    847d:	a9 80 80 00 00       	test   $0x8080,%eax
    8482:	0f 44 c2             	cmove  %edx,%eax
    8485:	49 8d 50 02          	lea    0x2(%r8),%rdx
    8489:	89 c1                	mov    %eax,%ecx
    848b:	4c 0f 44 c2          	cmove  %rdx,%r8
    848f:	00 c1                	add    %al,%cl
    8491:	48 8b 44 24 68       	mov    0x68(%rsp),%rax
    8496:	48 8b 15 8b ce 20 00 	mov    0x20ce8b(%rip),%rdx        # 215328 <_Z9wordcharsB5cxx11+0x8>
    849d:	49 83 d8 03          	sbb    $0x3,%r8
    84a1:	31 f6                	xor    %esi,%esi
    84a3:	49 29 c0             	sub    %rax,%r8
    84a6:	48 89 c1             	mov    %rax,%rcx
    84a9:	e8 b2 c5 ff ff       	callq  4a60 <_ZNSt7__cxx1112basic_stringIcSt11char_traitsIcESaIcEE10_M_replaceEmmPKcm@plt>
    84ae:	e9 d1 fc ff ff       	jmpq   8184 <_Z10get_parseriPKcP8Hunspell+0x644>
    84b3:	48 83 ec 08          	sub    $0x8,%rsp
    84b7:	4c 8d 63 20          	lea    0x20(%rbx),%r12
    84bb:	48 89 df             	mov    %rbx,%rdi
    84be:	6a 00                	pushq  $0x0
    84c0:	4c 89 e6             	mov    %r12,%rsi
    84c3:	e8 c8 40 00 00       	callq  c590 <_ZSt16__insertion_sortIN9__gnu_cxx17__normal_iteratorIP6w_charSt6vectorIS2_SaIS2_EEEENS0_5__ops15_Iter_less_iterEEvT_SA_T0_>
    84c8:	4c 39 e5             	cmp    %r12,%rbp
    84cb:	4d 89 e0             	mov    %r12,%r8
    84ce:	49 89 eb             	mov    %rbp,%r11
    84d1:	5e                   	pop    %rsi
    84d2:	5f                   	pop    %rdi
    84d3:	74 6b                	je     8540 <_Z10get_parseriPKcP8Hunspell+0xa00>
    84d5:	0f 1f 00             	nopl   (%rax)
    84d8:	45 0f b6 48 01       	movzbl 0x1(%r8),%r9d
    84dd:	41 0f b6 10          	movzbl (%r8),%edx
    84e1:	49 8d 40 fe          	lea    -0x2(%r8),%rax
    84e5:	41 0f b6 48 fe       	movzbl -0x2(%r8),%ecx
    84ea:	44 89 cf             	mov    %r9d,%edi
    84ed:	41 89 d2             	mov    %edx,%r10d
    84f0:	c1 e7 08             	shl    $0x8,%edi
    84f3:	01 d7                	add    %edx,%edi
    84f5:	41 0f b6 50 ff       	movzbl -0x1(%r8),%edx
    84fa:	c1 e2 08             	shl    $0x8,%edx
    84fd:	01 ca                	add    %ecx,%edx
    84ff:	66 39 fa             	cmp    %di,%dx
    8502:	77 0f                	ja     8513 <_Z10get_parseriPKcP8Hunspell+0x9d3>
    8504:	e9 35 02 00 00       	jmpq   873e <_Z10get_parseriPKcP8Hunspell+0xbfe>
    8509:	0f 1f 80 00 00 00 00 	nopl   0x0(%rax)
    8510:	48 89 f0             	mov    %rsi,%rax
    8513:	0f b7 10             	movzwl (%rax),%edx
    8516:	0f b6 48 fe          	movzbl -0x2(%rax),%ecx
    851a:	48 8d 70 fe          	lea    -0x2(%rax),%rsi
    851e:	66 89 50 02          	mov    %dx,0x2(%rax)
    8522:	0f b6 50 ff          	movzbl -0x1(%rax),%edx
    8526:	c1 e2 08             	shl    $0x8,%edx
    8529:	01 ca                	add    %ecx,%edx
    852b:	66 39 d7             	cmp    %dx,%di
    852e:	72 e0                	jb     8510 <_Z10get_parseriPKcP8Hunspell+0x9d0>
    8530:	49 83 c0 02          	add    $0x2,%r8
    8534:	44 88 10             	mov    %r10b,(%rax)
    8537:	44 88 48 01          	mov    %r9b,0x1(%rax)
    853b:	4d 39 c3             	cmp    %r8,%r11
    853e:	75 98                	jne    84d8 <_Z10get_parseriPKcP8Hunspell+0x998>
    8540:	48 8b 1d 99 cd 20 00 	mov    0x20cd99(%rip),%rbx        # 2152e0 <new_wordchars_utf16>
    8547:	48 8b 05 9a cd 20 00 	mov    0x20cd9a(%rip),%rax        # 2152e8 <new_wordchars_utf16+0x8>
    854e:	48 29 d8             	sub    %rbx,%rax
    8551:	48 d1 f8             	sar    %rax
    8554:	e9 67 f8 ff ff       	jmpq   7dc0 <_Z10get_parseriPKcP8Hunspell+0x280>
    8559:	bb 01 00 00 00       	mov    $0x1,%ebx
    855e:	48 8b 54 24 60       	mov    0x60(%rsp),%rdx
    8563:	48 85 d2             	test   %rdx,%rdx
    8566:	48 89 d6             	mov    %rdx,%rsi
    8569:	0f 84 e9 00 00 00    	je     8658 <_Z10get_parseriPKcP8Hunspell+0xb18>
    856f:	48 8d 3d c7 8c 00 00 	lea    0x8cc7(%rip),%rdi        # 1123d <_IO_stdin_used+0xe3d>
    8576:	b9 05 00 00 00       	mov    $0x5,%ecx
    857b:	f3 a6                	repz cmpsb %es:(%rdi),%ds:(%rsi)
    857d:	0f 97 c0             	seta   %al
    8580:	1c 00                	sbb    $0x0,%al
    8582:	84 c0                	test   %al,%al
    8584:	0f 84 22 01 00 00    	je     86ac <_Z10get_parseriPKcP8Hunspell+0xb6c>
    858a:	48 8d 3d a7 8c 00 00 	lea    0x8ca7(%rip),%rdi        # 11238 <_IO_stdin_used+0xe38>
    8591:	b9 04 00 00 00       	mov    $0x4,%ecx
    8596:	48 89 d6             	mov    %rdx,%rsi
    8599:	f3 a6                	repz cmpsb %es:(%rdi),%ds:(%rsi)
    859b:	0f 97 c0             	seta   %al
    859e:	1c 00                	sbb    $0x0,%al
    85a0:	84 c0                	test   %al,%al
    85a2:	0f 84 04 01 00 00    	je     86ac <_Z10get_parseriPKcP8Hunspell+0xb6c>
    85a8:	48 8d 3d 8d 8c 00 00 	lea    0x8c8d(%rip),%rdi        # 1123c <_IO_stdin_used+0xe3c>
    85af:	b9 06 00 00 00       	mov    $0x6,%ecx
    85b4:	48 89 d6             	mov    %rdx,%rsi
    85b7:	f3 a6                	repz cmpsb %es:(%rdi),%ds:(%rsi)
    85b9:	0f 97 c0             	seta   %al
    85bc:	1c 00                	sbb    $0x0,%al
    85be:	84 c0                	test   %al,%al
    85c0:	0f 84 e6 00 00 00    	je     86ac <_Z10get_parseriPKcP8Hunspell+0xb6c>
    85c6:	48 8b 74 24 60       	mov    0x60(%rsp),%rsi
    85cb:	48 8d 3d 9d 8c 00 00 	lea    0x8c9d(%rip),%rdi        # 1126f <_IO_stdin_used+0xe6f>
    85d2:	b9 04 00 00 00       	mov    $0x4,%ecx
    85d7:	f3 a6                	repz cmpsb %es:(%rdi),%ds:(%rsi)
    85d9:	0f 97 c0             	seta   %al
    85dc:	1c 00                	sbb    $0x0,%al
    85de:	84 c0                	test   %al,%al
    85e0:	0f 85 79 01 00 00    	jne    875f <_Z10get_parseriPKcP8Hunspell+0xc1f>
    85e6:	85 db                	test   %ebx,%ebx
    85e8:	0f 84 ca 01 00 00    	je     87b8 <_Z10get_parseriPKcP8Hunspell+0xc78>
    85ee:	bf 10 01 00 00       	mov    $0x110,%edi
    85f3:	e8 38 c2 ff ff       	callq  4830 <_Znwm@plt>
    85f8:	8b 15 da cc 20 00    	mov    0x20ccda(%rip),%edx        # 2152d8 <wordchars_utf16_len>
    85fe:	48 8b 35 f3 cc 20 00 	mov    0x20ccf3(%rip),%rsi        # 2152f8 <wordchars_utf16>
    8605:	48 89 c7             	mov    %rax,%rdi
    8608:	48 89 c3             	mov    %rax,%rbx
    860b:	e8 e0 45 00 00       	callq  cbf0 <_ZN9XMLParserC1EPK6w_chari>
    8610:	e9 fb fb ff ff       	jmpq   8210 <_Z10get_parseriPKcP8Hunspell+0x6d0>
    8615:	0f 1f 00             	nopl   (%rax)
    8618:	31 db                	xor    %ebx,%ebx
    861a:	e9 3f ff ff ff       	jmpq   855e <_Z10get_parseriPKcP8Hunspell+0xa1e>
    861f:	48 8d 3d 69 8b 00 00 	lea    0x8b69(%rip),%rdi        # 1118f <_IO_stdin_used+0xd8f>
    8626:	48 8b 1d 63 cc 20 00 	mov    0x20cc63(%rip),%rbx        # 215290 <io_enc>
    862d:	e8 de bf ff ff       	callq  4610 <gettext@plt>
    8632:	4c 8b 44 24 40       	mov    0x40(%rsp),%r8
    8637:	48 8b 3d c2 cb 20 00 	mov    0x20cbc2(%rip),%rdi        # 215200 <stderr@@GLIBC_2.2.5>
    863e:	48 89 c2             	mov    %rax,%rdx
    8641:	48 89 d9             	mov    %rbx,%rcx
    8644:	be 01 00 00 00       	mov    $0x1,%esi
    8649:	31 c0                	xor    %eax,%eax
    864b:	e8 90 c4 ff ff       	callq  4ae0 <__fprintf_chk@plt>
    8650:	e9 21 fb ff ff       	jmpq   8176 <_Z10get_parseriPKcP8Hunspell+0x636>
    8655:	0f 1f 00             	nopl   (%rax)
    8658:	85 db                	test   %ebx,%ebx
    865a:	74 2c                	je     8688 <_Z10get_parseriPKcP8Hunspell+0xb48>
    865c:	bf f8 00 00 00       	mov    $0xf8,%edi
    8661:	e8 ca c1 ff ff       	callq  4830 <_Znwm@plt>
    8666:	8b 15 6c cc 20 00    	mov    0x20cc6c(%rip),%edx        # 2152d8 <wordchars_utf16_len>
    866c:	48 8b 35 85 cc 20 00 	mov    0x20cc85(%rip),%rsi        # 2152f8 <wordchars_utf16>
    8673:	48 89 c7             	mov    %rax,%rdi
    8676:	48 89 c3             	mov    %rax,%rbx
    8679:	e8 c2 60 00 00       	callq  e740 <_ZN10TextParserC1EPK6w_chari>
    867e:	e9 8d fb ff ff       	jmpq   8210 <_Z10get_parseriPKcP8Hunspell+0x6d0>
    8683:	0f 1f 44 00 00       	nopl   0x0(%rax,%rax,1)
    8688:	48 8b 2d 91 cc 20 00 	mov    0x20cc91(%rip),%rbp        # 215320 <_Z9wordcharsB5cxx11>
    868f:	bf f8 00 00 00       	mov    $0xf8,%edi
    8694:	e8 97 c1 ff ff       	callq  4830 <_Znwm@plt>
    8699:	48 89 c7             	mov    %rax,%rdi
    869c:	48 89 c3             	mov    %rax,%rbx
    869f:	48 89 ee             	mov    %rbp,%rsi
    86a2:	e8 c9 6b 00 00       	callq  f270 <_ZN10TextParserC1EPKc>
    86a7:	e9 64 fb ff ff       	jmpq   8210 <_Z10get_parseriPKcP8Hunspell+0x6d0>
    86ac:	85 db                	test   %ebx,%ebx
    86ae:	74 27                	je     86d7 <_Z10get_parseriPKcP8Hunspell+0xb97>
    86b0:	bf 10 01 00 00       	mov    $0x110,%edi
    86b5:	e8 76 c1 ff ff       	callq  4830 <_Znwm@plt>
    86ba:	8b 15 18 cc 20 00    	mov    0x20cc18(%rip),%edx        # 2152d8 <wordchars_utf16_len>
    86c0:	48 8b 35 31 cc 20 00 	mov    0x20cc31(%rip),%rsi        # 2152f8 <wordchars_utf16>
    86c7:	48 89 c7             	mov    %rax,%rdi
    86ca:	48 89 c3             	mov    %rax,%rbx
    86cd:	e8 8e 7b 00 00       	callq  10260 <_ZN10HTMLParserC1EPK6w_chari>
    86d2:	e9 39 fb ff ff       	jmpq   8210 <_Z10get_parseriPKcP8Hunspell+0x6d0>
    86d7:	48 8b 2d 42 cc 20 00 	mov    0x20cc42(%rip),%rbp        # 215320 <_Z9wordcharsB5cxx11>
    86de:	bf 10 01 00 00       	mov    $0x110,%edi
    86e3:	e8 48 c1 ff ff       	callq  4830 <_Znwm@plt>
    86e8:	48 89 c7             	mov    %rax,%rdi
    86eb:	48 89 c3             	mov    %rax,%rbx
    86ee:	48 89 ee             	mov    %rbp,%rsi
    86f1:	e8 4a 7b 00 00       	callq  10240 <_ZN10HTMLParserC1EPKc>
    86f6:	e9 15 fb ff ff       	jmpq   8210 <_Z10get_parseriPKcP8Hunspell+0x6d0>
    86fb:	48 8d 3d 6e 7d 00 00 	lea    0x7d6e(%rip),%rdi        # 10470 <_IO_stdin_used+0x70>
    8702:	48 8b 1d 87 cb 20 00 	mov    0x20cb87(%rip),%rbx        # 215290 <io_enc>
    8709:	e8 02 bf ff ff       	callq  4610 <gettext@plt>
    870e:	48 8b 3d eb ca 20 00 	mov    0x20caeb(%rip),%rdi        # 215200 <stderr@@GLIBC_2.2.5>
    8715:	48 89 c2             	mov    %rax,%rdx
    8718:	48 89 d9             	mov    %rbx,%rcx
    871b:	be 01 00 00 00       	mov    $0x1,%esi
    8720:	31 c0                	xor    %eax,%eax
    8722:	e8 b9 c3 ff ff       	callq  4ae0 <__fprintf_chk@plt>
    8727:	48 8d 84 24 e0 00 00 	lea    0xe0(%rsp),%rax
    872e:	00 
    872f:	48 89 44 24 68       	mov    %rax,0x68(%rsp)
    8734:	48 89 44 24 30       	mov    %rax,0x30(%rsp)
    8739:	e9 fc f8 ff ff       	jmpq   803a <_Z10get_parseriPKcP8Hunspell+0x4fa>
    873e:	4c 89 c0             	mov    %r8,%rax
    8741:	e9 ea fd ff ff       	jmpq   8530 <_Z10get_parseriPKcP8Hunspell+0x9f0>
    8746:	48 8b 7c 24 50       	mov    0x50(%rsp),%rdi
    874b:	e8 d0 c2 ff ff       	callq  4a20 <_ZNK8Hunspell19get_wordchars_utf16Ev@plt>
    8750:	48 8b 50 08          	mov    0x8(%rax),%rdx
    8754:	48 2b 10             	sub    (%rax),%rdx
    8757:	48 d1 fa             	sar    %rdx
    875a:	e9 1b f9 ff ff       	jmpq   807a <_Z10get_parseriPKcP8Hunspell+0x53a>
    875f:	48 8b 7c 24 60       	mov    0x60(%rsp),%rdi
    8764:	e8 87 bf ff ff       	callq  46f0 <strlen@plt>
    8769:	48 83 f8 03          	cmp    $0x3,%rax
    876d:	0f 84 2d 01 00 00    	je     88a0 <_Z10get_parseriPKcP8Hunspell+0xd60>
    8773:	48 8b 4c 24 60       	mov    0x60(%rsp),%rcx
    8778:	48 83 f8 04          	cmp    $0x4,%rax
    877c:	0f b6 11             	movzbl (%rcx),%edx
    877f:	74 7f                	je     8800 <_Z10get_parseriPKcP8Hunspell+0xcc0>
    8781:	83 ea 31             	sub    $0x31,%edx
    8784:	80 fa 08             	cmp    $0x8,%dl
    8787:	0f 87 c0 00 00 00    	ja     884d <_Z10get_parseriPKcP8Hunspell+0xd0d>
    878d:	85 db                	test   %ebx,%ebx
    878f:	74 4b                	je     87dc <_Z10get_parseriPKcP8Hunspell+0xc9c>
    8791:	bf f8 00 00 00       	mov    $0xf8,%edi
    8796:	e8 95 c0 ff ff       	callq  4830 <_Znwm@plt>
    879b:	8b 15 37 cb 20 00    	mov    0x20cb37(%rip),%edx        # 2152d8 <wordchars_utf16_len>
    87a1:	48 8b 35 50 cb 20 00 	mov    0x20cb50(%rip),%rsi        # 2152f8 <wordchars_utf16>
    87a8:	48 89 c7             	mov    %rax,%rdi
    87ab:	48 89 c3             	mov    %rax,%rbx
    87ae:	e8 cd 5b 00 00       	callq  e380 <_ZN9ManParserC1EPK6w_chari>
    87b3:	e9 58 fa ff ff       	jmpq   8210 <_Z10get_parseriPKcP8Hunspell+0x6d0>
    87b8:	48 8b 2d 61 cb 20 00 	mov    0x20cb61(%rip),%rbp        # 215320 <_Z9wordcharsB5cxx11>
    87bf:	bf 10 01 00 00       	mov    $0x110,%edi
    87c4:	e8 67 c0 ff ff       	callq  4830 <_Znwm@plt>
    87c9:	48 89 c7             	mov    %rax,%rdi
    87cc:	48 89 c3             	mov    %rax,%rbx
    87cf:	48 89 ee             	mov    %rbp,%rsi
    87d2:	e8 d9 43 00 00       	callq  cbb0 <_ZN9XMLParserC1EPKc>
    87d7:	e9 34 fa ff ff       	jmpq   8210 <_Z10get_parseriPKcP8Hunspell+0x6d0>
    87dc:	48 8b 2d 3d cb 20 00 	mov    0x20cb3d(%rip),%rbp        # 215320 <_Z9wordcharsB5cxx11>
    87e3:	bf f8 00 00 00       	mov    $0xf8,%edi
    87e8:	e8 43 c0 ff ff       	callq  4830 <_Znwm@plt>
    87ed:	48 89 c7             	mov    %rax,%rdi
    87f0:	48 89 c3             	mov    %rax,%rbx
    87f3:	48 89 ee             	mov    %rbp,%rsi
    87f6:	e8 65 5b 00 00       	callq  e360 <_ZN9ManParserC1EPKc>
    87fb:	e9 10 fa ff ff       	jmpq   8210 <_Z10get_parseriPKcP8Hunspell+0x6d0>
    8800:	80 fa 66             	cmp    $0x66,%dl
    8803:	0f 85 78 ff ff ff    	jne    8781 <_Z10get_parseriPKcP8Hunspell+0xc41>
    8809:	48 8d 71 01          	lea    0x1(%rcx),%rsi
    880d:	48 8d 3d 84 7c 00 00 	lea    0x7c84(%rip),%rdi        # 10498 <_IO_stdin_used+0x98>
    8814:	e8 07 be ff ff       	callq  4620 <strstr@plt>
    8819:	48 85 c0             	test   %rax,%rax
    881c:	74 2f                	je     884d <_Z10get_parseriPKcP8Hunspell+0xd0d>
    881e:	85 db                	test   %ebx,%ebx
    8820:	0f 84 aa 00 00 00    	je     88d0 <_Z10get_parseriPKcP8Hunspell+0xd90>
    8826:	bf 10 01 00 00       	mov    $0x110,%edi
    882b:	e8 00 c0 ff ff       	callq  4830 <_Znwm@plt>
    8830:	8b 15 a2 ca 20 00    	mov    0x20caa2(%rip),%edx        # 2152d8 <wordchars_utf16_len>
    8836:	48 8b 35 bb ca 20 00 	mov    0x20cabb(%rip),%rsi        # 2152f8 <wordchars_utf16>
    883d:	48 89 c7             	mov    %rax,%rdi
    8840:	48 89 c3             	mov    %rax,%rbx
    8843:	e8 18 7b 00 00       	callq  10360 <_ZN9ODFParserC1EPK6w_chari>
    8848:	e9 c3 f9 ff ff       	jmpq   8210 <_Z10get_parseriPKcP8Hunspell+0x6d0>
    884d:	48 8b 74 24 60       	mov    0x60(%rsp),%rsi
    8852:	48 8d 3d e9 89 00 00 	lea    0x89e9(%rip),%rdi        # 11242 <_IO_stdin_used+0xe42>
    8859:	b9 04 00 00 00       	mov    $0x4,%ecx
    885e:	f3 a6                	repz cmpsb %es:(%rdi),%ds:(%rsi)
    8860:	0f 97 c0             	seta   %al
    8863:	1c 00                	sbb    $0x0,%al
    8865:	84 c0                	test   %al,%al
    8867:	0f 85 eb fd ff ff    	jne    8658 <_Z10get_parseriPKcP8Hunspell+0xb18>
    886d:	85 db                	test   %ebx,%ebx
    886f:	0f 84 b1 00 00 00    	je     8926 <_Z10get_parseriPKcP8Hunspell+0xde6>
    8875:	bf 08 01 00 00       	mov    $0x108,%edi
    887a:	e8 b1 bf ff ff       	callq  4830 <_Znwm@plt>
    887f:	8b 15 53 ca 20 00    	mov    0x20ca53(%rip),%edx        # 2152d8 <wordchars_utf16_len>
    8885:	48 8b 35 6c ca 20 00 	mov    0x20ca6c(%rip),%rsi        # 2152f8 <wordchars_utf16>
    888c:	48 89 c7             	mov    %rax,%rdi
    888f:	48 89 c3             	mov    %rax,%rbx
    8892:	e8 79 51 00 00       	callq  da10 <_ZN11LaTeXParserC1EPK6w_chari>
    8897:	e9 74 f9 ff ff       	jmpq   8210 <_Z10get_parseriPKcP8Hunspell+0x6d0>
    889c:	0f 1f 40 00          	nopl   0x0(%rax)
    88a0:	48 8b 74 24 60       	mov    0x60(%rsp),%rsi
    88a5:	48 8d 3d ec 7b 00 00 	lea    0x7bec(%rip),%rdi        # 10498 <_IO_stdin_used+0x98>
    88ac:	e8 6f bd ff ff       	callq  4620 <strstr@plt>
    88b1:	48 85 c0             	test   %rax,%rax
    88b4:	0f 85 64 ff ff ff    	jne    881e <_Z10get_parseriPKcP8Hunspell+0xcde>
    88ba:	48 8b 44 24 60       	mov    0x60(%rsp),%rax
    88bf:	0f b6 10             	movzbl (%rax),%edx
    88c2:	e9 ba fe ff ff       	jmpq   8781 <_Z10get_parseriPKcP8Hunspell+0xc41>
    88c7:	66 0f 1f 84 00 00 00 	nopw   0x0(%rax,%rax,1)
    88ce:	00 00 
    88d0:	48 8b 2d 49 ca 20 00 	mov    0x20ca49(%rip),%rbp        # 215320 <_Z9wordcharsB5cxx11>
    88d7:	bf 10 01 00 00       	mov    $0x110,%edi
    88dc:	e8 4f bf ff ff       	callq  4830 <_Znwm@plt>
    88e1:	48 89 c7             	mov    %rax,%rdi
    88e4:	48 89 c3             	mov    %rax,%rbx
    88e7:	48 89 ee             	mov    %rbp,%rsi
    88ea:	e8 51 7a 00 00       	callq  10340 <_ZN9ODFParserC1EPKc>
    88ef:	e9 1c f9 ff ff       	jmpq   8210 <_Z10get_parseriPKcP8Hunspell+0x6d0>
    88f4:	48 89 c5             	mov    %rax,%rbp
    88f7:	48 89 df             	mov    %rbx,%rdi
    88fa:	be 10 01 00 00       	mov    $0x110,%esi
    88ff:	e8 5c bf ff ff       	callq  4860 <_ZdlPvm@plt>
    8904:	48 89 ef             	mov    %rbp,%rdi
    8907:	e8 04 c2 ff ff       	callq  4b10 <_Unwind_Resume@plt>
    890c:	eb e6                	jmp    88f4 <_Z10get_parseriPKcP8Hunspell+0xdb4>
    890e:	48 89 c5             	mov    %rax,%rbp
    8911:	48 89 df             	mov    %rbx,%rdi
    8914:	be 08 01 00 00       	mov    $0x108,%esi
    8919:	e8 42 bf ff ff       	callq  4860 <_ZdlPvm@plt>
    891e:	48 89 ef             	mov    %rbp,%rdi
    8921:	e8 ea c1 ff ff       	callq  4b10 <_Unwind_Resume@plt>
    8926:	48 8b 2d f3 c9 20 00 	mov    0x20c9f3(%rip),%rbp        # 215320 <_Z9wordcharsB5cxx11>
    892d:	bf 08 01 00 00       	mov    $0x108,%edi
    8932:	e8 f9 be ff ff       	callq  4830 <_Znwm@plt>
    8937:	48 89 c7             	mov    %rax,%rdi
    893a:	48 89 c3             	mov    %rax,%rbx
    893d:	48 89 ee             	mov    %rbp,%rsi
    8940:	e8 9b 50 00 00       	callq  d9e0 <_ZN11LaTeXParserC1EPKc>
    8945:	e9 c6 f8 ff ff       	jmpq   8210 <_Z10get_parseriPKcP8Hunspell+0x6d0>
    894a:	eb a8                	jmp    88f4 <_Z10get_parseriPKcP8Hunspell+0xdb4>
    894c:	48 89 c5             	mov    %rax,%rbp
    894f:	48 89 df             	mov    %rbx,%rdi
    8952:	be f8 00 00 00       	mov    $0xf8,%esi
    8957:	e8 04 bf ff ff       	callq  4860 <_ZdlPvm@plt>
    895c:	48 89 ef             	mov    %rbp,%rdi
    895f:	e8 ac c1 ff ff       	callq  4b10 <_Unwind_Resume@plt>
    8964:	eb 8e                	jmp    88f4 <_Z10get_parseriPKcP8Hunspell+0xdb4>
    8966:	eb 8c                	jmp    88f4 <_Z10get_parseriPKcP8Hunspell+0xdb4>
    8968:	eb 8a                	jmp    88f4 <_Z10get_parseriPKcP8Hunspell+0xdb4>
    896a:	eb 88                	jmp    88f4 <_Z10get_parseriPKcP8Hunspell+0xdb4>
    896c:	eb de                	jmp    894c <_Z10get_parseriPKcP8Hunspell+0xe0c>
    896e:	eb 9e                	jmp    890e <_Z10get_parseriPKcP8Hunspell+0xdce>
    8970:	eb 9c                	jmp    890e <_Z10get_parseriPKcP8Hunspell+0xdce>
    8972:	48 89 c3             	mov    %rax,%rbx
    8975:	48 8b bc 24 90 00 00 	mov    0x90(%rsp),%rdi
    897c:	00 
    897d:	48 85 ff             	test   %rdi,%rdi
    8980:	74 05                	je     8987 <_Z10get_parseriPKcP8Hunspell+0xe47>
    8982:	e8 79 be ff ff       	callq  4800 <_ZdlPv@plt>
    8987:	48 89 df             	mov    %rbx,%rdi
    898a:	e8 81 c1 ff ff       	callq  4b10 <_Unwind_Resume@plt>
    898f:	e9 60 ff ff ff       	jmpq   88f4 <_Z10get_parseriPKcP8Hunspell+0xdb4>
    8994:	e9 5b ff ff ff       	jmpq   88f4 <_Z10get_parseriPKcP8Hunspell+0xdb4>
    8999:	eb b1                	jmp    894c <_Z10get_parseriPKcP8Hunspell+0xe0c>
    899b:	eb af                	jmp    894c <_Z10get_parseriPKcP8Hunspell+0xe0c>
    899d:	eb ad                	jmp    894c <_Z10get_parseriPKcP8Hunspell+0xe0c>
    899f:	48 8b 54 24 28       	mov    0x28(%rsp),%rdx
    89a4:	48 8b bc 24 b0 00 00 	mov    0xb0(%rsp),%rdi
    89ab:	00 
    89ac:	48 89 c3             	mov    %rax,%rbx
    89af:	48 83 c2 10          	add    $0x10,%rdx
    89b3:	48 39 d7             	cmp    %rdx,%rdi
    89b6:	74 bd                	je     8975 <_Z10get_parseriPKcP8Hunspell+0xe35>
    89b8:	e8 43 be ff ff       	callq  4800 <_ZdlPv@plt>
    89bd:	eb b6                	jmp    8975 <_Z10get_parseriPKcP8Hunspell+0xe35>
    89bf:	eb 8b                	jmp    894c <_Z10get_parseriPKcP8Hunspell+0xe0c>
    89c1:	48 8b bc 24 b0 00 00 	mov    0xb0(%rsp),%rdi
    89c8:	00 
    89c9:	48 83 c5 10          	add    $0x10,%rbp
    89cd:	48 89 c3             	mov    %rax,%rbx
    89d0:	48 39 ef             	cmp    %rbp,%rdi
    89d3:	75 ad                	jne    8982 <_Z10get_parseriPKcP8Hunspell+0xe42>
    89d5:	eb b0                	jmp    8987 <_Z10get_parseriPKcP8Hunspell+0xe47>
    89d7:	e9 18 ff ff ff       	jmpq   88f4 <_Z10get_parseriPKcP8Hunspell+0xdb4>
    89dc:	e9 13 ff ff ff       	jmpq   88f4 <_Z10get_parseriPKcP8Hunspell+0xdb4>
    89e1:	e8 aa be ff ff       	callq  4890 <__stack_chk_fail@plt>
    89e6:	e9 23 ff ff ff       	jmpq   890e <_Z10get_parseriPKcP8Hunspell+0xdce>
    89eb:	e9 04 ff ff ff       	jmpq   88f4 <_Z10get_parseriPKcP8Hunspell+0xdb4>
    89f0:	e9 57 ff ff ff       	jmpq   894c <_Z10get_parseriPKcP8Hunspell+0xe0c>
    89f5:	e9 52 ff ff ff       	jmpq   894c <_Z10get_parseriPKcP8Hunspell+0xe0c>
    89fa:	66 0f 1f 44 00 00    	nopw   0x0(%rax,%rax,1)

0000000000008a00 <_Z14pipe_interfacePP8HunspelliP8_IO_FILEPc>:
    8a00:	55                   	push   %rbp
    8a01:	48 89 e5             	mov    %rsp,%rbp
    8a04:	41 57                	push   %r15
    8a06:	41 56                	push   %r14
    8a08:	41 55                	push   %r13
    8a0a:	41 54                	push   %r12
    8a0c:	49 89 cc             	mov    %rcx,%r12
    8a0f:	53                   	push   %rbx
    8a10:	48 81 ec 98 23 00 00 	sub    $0x2398,%rsp
    8a17:	48 89 bd 98 dc ff ff 	mov    %rdi,-0x2368(%rbp)
    8a1e:	89 b5 5c dc ff ff    	mov    %esi,-0x23a4(%rbp)
    8a24:	64 48 8b 04 25 28 00 	mov    %fs:0x28,%rax
    8a2b:	00 00 
    8a2d:	48 89 45 c8          	mov    %rax,-0x38(%rbp)
    8a31:	31 c0                	xor    %eax,%eax
    8a33:	0f b6 05 7e c8 20 00 	movzbl 0x20c87e(%rip),%eax        # 2152b8 <multiple_files>
    8a3a:	48 89 95 88 dc ff ff 	mov    %rdx,-0x2378(%rbp)
    8a41:	48 c7 85 c0 dc ff ff 	movq   $0x0,-0x2340(%rbp)
    8a48:	00 00 00 00 
    8a4c:	48 c7 85 c8 dc ff ff 	movq   $0x0,-0x2338(%rbp)
    8a53:	00 00 00 00 
    8a57:	48 c7 85 d0 dc ff ff 	movq   $0x0,-0x2330(%rbp)
    8a5e:	00 00 00 00 
    8a62:	c7 85 bc dc ff ff 00 	movl   $0x0,-0x2344(%rbp)
    8a69:	00 00 00 
    8a6c:	84 c0                	test   %al,%al
    8a6e:	41 89 c6             	mov    %eax,%r14d
    8a71:	0f 84 69 03 00 00    	je     8de0 <_Z14pipe_interfacePP8HunspelliP8_IO_FILEPc+0x3e0>
    8a77:	48 8d 9d 20 de ff ff 	lea    -0x21e0(%rbp),%rbx
    8a7e:	48 8d 15 d7 88 00 00 	lea    0x88d7(%rip),%rdx        # 1135c <_IO_stdin_used+0xf5c>
    8a85:	48 8d 43 10          	lea    0x10(%rbx),%rax
    8a89:	48 8d 72 fe          	lea    -0x2(%rdx),%rsi
    8a8d:	48 89 df             	mov    %rbx,%rdi
    8a90:	48 89 85 20 de ff ff 	mov    %rax,-0x21e0(%rbp)
    8a97:	e8 34 d7 ff ff       	callq  61d0 <_ZNSt7__cxx1112basic_stringIcSt11char_traitsIcESaIcEE12_M_constructIPKcEEvT_S8_St20forward_iterator_tag.isra.52>
    8a9c:	4c 89 e7             	mov    %r12,%rdi
    8a9f:	e8 4c bc ff ff       	callq  46f0 <strlen@plt>
    8aa4:	4c 89 e1             	mov    %r12,%rcx
    8aa7:	49 89 c0             	mov    %rax,%r8
    8aaa:	31 d2                	xor    %edx,%edx
    8aac:	31 f6                	xor    %esi,%esi
    8aae:	48 89 df             	mov    %rbx,%rdi
    8ab1:	e8 aa bf ff ff       	callq  4a60 <_ZNSt7__cxx1112basic_stringIcSt11char_traitsIcESaIcEE10_M_replaceEmmPKcm@plt>
    8ab6:	48 8d 8d 20 dd ff ff 	lea    -0x22e0(%rbp),%rcx
    8abd:	48 8d 51 10          	lea    0x10(%rcx),%rdx
    8ac1:	48 89 8d 40 dc ff ff 	mov    %rcx,-0x23c0(%rbp)
    8ac8:	48 89 95 20 dd ff ff 	mov    %rdx,-0x22e0(%rbp)
    8acf:	48 8b 08             	mov    (%rax),%rcx
    8ad2:	48 8d 50 10          	lea    0x10(%rax),%rdx
    8ad6:	48 39 d1             	cmp    %rdx,%rcx
    8ad9:	0f 84 51 23 00 00    	je     ae30 <_Z14pipe_interfacePP8HunspelliP8_IO_FILEPc+0x2430>
    8adf:	48 89 8d 20 dd ff ff 	mov    %rcx,-0x22e0(%rbp)
    8ae6:	48 8b 48 10          	mov    0x10(%rax),%rcx
    8aea:	48 89 8d 30 dd ff ff 	mov    %rcx,-0x22d0(%rbp)
    8af1:	48 8b 48 08          	mov    0x8(%rax),%rcx
    8af5:	c6 40 10 00          	movb   $0x0,0x10(%rax)
    8af9:	48 83 c3 10          	add    $0x10,%rbx
    8afd:	48 89 8d 28 dd ff ff 	mov    %rcx,-0x22d8(%rbp)
    8b04:	48 89 10             	mov    %rdx,(%rax)
    8b07:	48 c7 40 08 00 00 00 	movq   $0x0,0x8(%rax)
    8b0e:	00 
    8b0f:	48 8b bd 20 de ff ff 	mov    -0x21e0(%rbp),%rdi
    8b16:	48 39 df             	cmp    %rbx,%rdi
    8b19:	74 05                	je     8b20 <_Z14pipe_interfacePP8HunspelliP8_IO_FILEPc+0x120>
    8b1b:	e8 e0 bc ff ff       	callq  4800 <_ZdlPv@plt>
    8b20:	be 2e 00 00 00       	mov    $0x2e,%esi
    8b25:	4c 89 e7             	mov    %r12,%rdi
    8b28:	e8 b3 e4 ff ff       	callq  6fe0 <_Z8basenamePKcc>
    8b2d:	48 89 c3             	mov    %rax,%rbx
    8b30:	48 8b 85 98 dc ff ff 	mov    -0x2368(%rbp),%rax
    8b37:	8b bd 5c dc ff ff    	mov    -0x23a4(%rbp),%edi
    8b3d:	48 89 de             	mov    %rbx,%rsi
    8b40:	48 8b 10             	mov    (%rax),%rdx
    8b43:	e8 f8 ef ff ff       	callq  7b40 <_Z10get_parseriPKcP8Hunspell>
    8b48:	66 0f 6f 05 30 8b 00 	movdqa 0x8b30(%rip),%xmm0        # 11680 <_IO_stdin_used+0x1280>
    8b4f:	00 
    8b50:	48 85 c0             	test   %rax,%rax
    8b53:	48 89 85 a8 dc ff ff 	mov    %rax,-0x2358(%rbp)
    8b5a:	c7 85 b0 df ff ff 58 	movl   $0x585858,-0x2050(%rbp)
    8b61:	58 58 00 
    8b64:	0f 29 85 a0 df ff ff 	movaps %xmm0,-0x2060(%rbp)
    8b6b:	0f 84 4f 1b 00 00    	je     a6c0 <_Z14pipe_interfacePP8HunspelliP8_IO_FILEPc+0x1cc0>
    8b71:	48 8d 15 b0 be 20 00 	lea    0x20beb0(%rip),%rdx        # 214a28 <_ZTVN10__cxxabiv120__si_class_type_infoE@CXXABI_1.3>
    8b78:	48 8d 35 49 be 20 00 	lea    0x20be49(%rip),%rsi        # 2149c8 <_ZTVN10__cxxabiv117__class_type_infoE@CXXABI_1.3>
    8b7f:	31 c9                	xor    %ecx,%ecx
    8b81:	48 89 c7             	mov    %rax,%rdi
    8b84:	e8 47 bd ff ff       	callq  48d0 <__dynamic_cast@plt>
    8b89:	48 85 db             	test   %rbx,%rbx
    8b8c:	48 c7 85 60 dc ff ff 	movq   $0x0,-0x23a0(%rbp)
    8b93:	00 00 00 00 
    8b97:	0f 95 c2             	setne  %dl
    8b9a:	48 85 c0             	test   %rax,%rax
    8b9d:	0f 95 c0             	setne  %al
    8ba0:	20 c2                	and    %al,%dl
    8ba2:	88 95 5b dc ff ff    	mov    %dl,-0x23a5(%rbp)
    8ba8:	0f 85 02 0e 00 00    	jne    99b0 <_Z14pipe_interfacePP8HunspelliP8_IO_FILEPc+0xfb0>
    8bae:	44 8b 1d ff c6 20 00 	mov    0x20c6ff(%rip),%r11d        # 2152b4 <filter_mode>
    8bb5:	45 85 db             	test   %r11d,%r11d
    8bb8:	0f 84 24 1b 00 00    	je     a6e2 <_Z14pipe_interfacePP8HunspelliP8_IO_FILEPc+0x1ce2>
    8bbe:	48 8d 85 c0 df ff ff 	lea    -0x2040(%rbp),%rax
    8bc5:	48 8d 9d 20 de ff ff 	lea    -0x21e0(%rbp),%rbx
    8bcc:	c7 85 48 dc ff ff 00 	movl   $0x0,-0x23b8(%rbp)
    8bd3:	00 00 00 
    8bd6:	c7 85 4c dc ff ff 00 	movl   $0x0,-0x23b4(%rbp)
    8bdd:	00 00 00 
    8be0:	c7 85 80 dc ff ff 00 	movl   $0x0,-0x2380(%rbp)
    8be7:	00 00 00 
    8bea:	48 89 85 90 dc ff ff 	mov    %rax,-0x2370(%rbp)
    8bf1:	48 8d 43 10          	lea    0x10(%rbx),%rax
    8bf5:	48 89 85 a0 dc ff ff 	mov    %rax,-0x2360(%rbp)
    8bfc:	4c 8b bd 90 dc ff ff 	mov    -0x2370(%rbp),%r15
    8c03:	48 8b 95 88 dc ff ff 	mov    -0x2378(%rbp),%rdx
    8c0a:	be 00 20 00 00       	mov    $0x2000,%esi
    8c0f:	4c 89 ff             	mov    %r15,%rdi
    8c12:	e8 69 be ff ff       	callq  4a80 <fgets@plt>
    8c17:	48 85 c0             	test   %rax,%rax
    8c1a:	0f 84 70 0c 00 00    	je     9890 <_Z14pipe_interfacePP8HunspelliP8_IO_FILEPc+0xe90>
    8c20:	48 8d 35 ec 87 00 00 	lea    0x87ec(%rip),%rsi        # 11413 <_IO_stdin_used+0x1013>
    8c27:	4c 89 ff             	mov    %r15,%rdi
    8c2a:	e8 b1 b9 ff ff       	callq  45e0 <strcspn@plt>
    8c2f:	83 85 80 dc ff ff 01 	addl   $0x1,-0x2380(%rbp)
    8c36:	83 3d 77 c6 20 00 06 	cmpl   $0x6,0x20c677(%rip)        # 2152b4 <filter_mode>
    8c3d:	4c 89 fe             	mov    %r15,%rsi
    8c40:	c6 84 05 c0 df ff ff 	movb   $0x0,-0x2040(%rbp,%rax,1)
    8c47:	00 
    8c48:	c7 85 78 dc ff ff 00 	movl   $0x0,-0x2388(%rbp)
    8c4f:	00 00 00 
    8c52:	0f 84 f0 0b 00 00    	je     9848 <_Z14pipe_interfacePP8HunspelliP8_IO_FILEPc+0xe48>
    8c58:	48 8b bd a8 dc ff ff 	mov    -0x2358(%rbp),%rdi
    8c5f:	e8 7c 6b 00 00       	callq  f7e0 <_ZN10TextParser8put_lineEPKc>
    8c64:	4c 8d bd e0 dd ff ff 	lea    -0x2220(%rbp),%r15
    8c6b:	48 c7 85 e8 dd ff ff 	movq   $0x0,-0x2218(%rbp)
    8c72:	00 00 00 00 
    8c76:	c6 85 f0 dd ff ff 00 	movb   $0x0,-0x2210(%rbp)
    8c7d:	c7 85 68 dc ff ff 00 	movl   $0x0,-0x2398(%rbp)
    8c84:	00 00 00 
    8c87:	49 8d 47 10          	lea    0x10(%r15),%rax
    8c8b:	48 89 85 e0 dd ff ff 	mov    %rax,-0x2220(%rbp)
    8c92:	66 0f 1f 44 00 00    	nopw   0x0(%rax,%rax,1)
    8c98:	4c 8d a5 00 de ff ff 	lea    -0x2200(%rbp),%r12
    8c9f:	4c 8d 6b 10          	lea    0x10(%rbx),%r13
    8ca3:	4d 8d 74 24 10       	lea    0x10(%r12),%r14
    8ca8:	48 8b 8d a8 dc ff ff 	mov    -0x2358(%rbp),%rcx
    8caf:	4c 89 fe             	mov    %r15,%rsi
    8cb2:	48 8b 01             	mov    (%rcx),%rax
    8cb5:	48 89 cf             	mov    %rcx,%rdi
    8cb8:	ff 50 10             	callq  *0x10(%rax)
    8cbb:	84 c0                	test   %al,%al
    8cbd:	0f 84 8d 1d 00 00    	je     aa50 <_Z14pipe_interfacePP8HunspelliP8_IO_FILEPc+0x2050>
    8cc3:	48 8b b5 a8 dc ff ff 	mov    -0x2358(%rbp),%rsi
    8cca:	4c 89 fa             	mov    %r15,%rdx
    8ccd:	48 89 df             	mov    %rbx,%rdi
    8cd0:	48 8b 06             	mov    (%rsi),%rax
    8cd3:	ff 50 18             	callq  *0x18(%rax)
    8cd6:	48 8b 85 20 de ff ff 	mov    -0x21e0(%rbp),%rax
    8cdd:	48 8b bd e0 dd ff ff 	mov    -0x2220(%rbp),%rdi
    8ce4:	48 8b 95 28 de ff ff 	mov    -0x21d8(%rbp),%rdx
    8ceb:	4c 39 e8             	cmp    %r13,%rax
    8cee:	0f 84 ec 0a 00 00    	je     97e0 <_Z14pipe_interfacePP8HunspelliP8_IO_FILEPc+0xde0>
    8cf4:	49 8d 4f 10          	lea    0x10(%r15),%rcx
    8cf8:	48 8b b5 30 de ff ff 	mov    -0x21d0(%rbp),%rsi
    8cff:	48 39 cf             	cmp    %rcx,%rdi
    8d02:	0f 84 18 0b 00 00    	je     9820 <_Z14pipe_interfacePP8HunspelliP8_IO_FILEPc+0xe20>
    8d08:	48 85 ff             	test   %rdi,%rdi
    8d0b:	48 8b 8d f0 dd ff ff 	mov    -0x2210(%rbp),%rcx
    8d12:	48 89 85 e0 dd ff ff 	mov    %rax,-0x2220(%rbp)
    8d19:	48 89 95 e8 dd ff ff 	mov    %rdx,-0x2218(%rbp)
    8d20:	48 89 b5 f0 dd ff ff 	mov    %rsi,-0x2210(%rbp)
    8d27:	0f 84 08 0b 00 00    	je     9835 <_Z14pipe_interfacePP8HunspelliP8_IO_FILEPc+0xe35>
    8d2d:	48 89 bd 20 de ff ff 	mov    %rdi,-0x21e0(%rbp)
    8d34:	48 89 8d 30 de ff ff 	mov    %rcx,-0x21d0(%rbp)
    8d3b:	48 c7 85 28 de ff ff 	movq   $0x0,-0x21d8(%rbp)
    8d42:	00 00 00 00 
    8d46:	c6 07 00             	movb   $0x0,(%rdi)
    8d49:	48 8b bd 20 de ff ff 	mov    -0x21e0(%rbp),%rdi
    8d50:	4c 39 ef             	cmp    %r13,%rdi
    8d53:	74 05                	je     8d5a <_Z14pipe_interfacePP8HunspelliP8_IO_FILEPc+0x35a>
    8d55:	e8 a6 ba ff ff       	callq  4800 <_ZdlPv@plt>
    8d5a:	48 8d 15 f4 8c 00 00 	lea    0x8cf4(%rip),%rdx        # 11a55 <_ZTS9XMLParser+0x35d>
    8d61:	48 89 df             	mov    %rbx,%rdi
    8d64:	4c 89 ad 20 de ff ff 	mov    %r13,-0x21e0(%rbp)
    8d6b:	48 8d 72 ff          	lea    -0x1(%rdx),%rsi
    8d6f:	e8 5c d4 ff ff       	callq  61d0 <_ZNSt7__cxx1112basic_stringIcSt11char_traitsIcESaIcEE12_M_constructIPKcEEvT_S8_St20forward_iterator_tag.isra.52>
    8d74:	48 8d 15 66 84 00 00 	lea    0x8466(%rip),%rdx        # 111e1 <_IO_stdin_used+0xde1>
    8d7b:	4c 89 e7             	mov    %r12,%rdi
    8d7e:	4c 89 b5 00 de ff ff 	mov    %r14,-0x2200(%rbp)
    8d85:	48 8d 72 fa          	lea    -0x6(%rdx),%rsi
    8d89:	e8 42 d4 ff ff       	callq  61d0 <_ZNSt7__cxx1112basic_stringIcSt11char_traitsIcESaIcEE12_M_constructIPKcEEvT_S8_St20forward_iterator_tag.isra.52>
    8d8e:	48 89 da             	mov    %rbx,%rdx
    8d91:	4c 89 e6             	mov    %r12,%rsi
    8d94:	4c 89 ff             	mov    %r15,%rdi
    8d97:	e8 24 bb ff ff       	callq  48c0 <_Z8mystrrepRNSt7__cxx1112basic_stringIcSt11char_traitsIcESaIcEEERKS4_S7_@plt>
    8d9c:	48 8b bd 00 de ff ff 	mov    -0x2200(%rbp),%rdi
    8da3:	4c 39 f7             	cmp    %r14,%rdi
    8da6:	74 05                	je     8dad <_Z14pipe_interfacePP8HunspelliP8_IO_FILEPc+0x3ad>
    8da8:	e8 53 ba ff ff       	callq  4800 <_ZdlPv@plt>
    8dad:	48 8b bd 20 de ff ff 	mov    -0x21e0(%rbp),%rdi
    8db4:	4c 39 ef             	cmp    %r13,%rdi
    8db7:	74 05                	je     8dbe <_Z14pipe_interfacePP8HunspelliP8_IO_FILEPc+0x3be>
    8db9:	e8 42 ba ff ff       	callq  4800 <_ZdlPv@plt>
    8dbe:	8b 0d f0 c4 20 00    	mov    0x20c4f0(%rip),%ecx        # 2152b4 <filter_mode>
    8dc4:	83 f9 0b             	cmp    $0xb,%ecx
    8dc7:	0f 87 db fe ff ff    	ja     8ca8 <_Z14pipe_interfacePP8HunspelliP8_IO_FILEPc+0x2a8>
    8dcd:	48 8d 35 78 87 00 00 	lea    0x8778(%rip),%rsi        # 1154c <_IO_stdin_used+0x114c>
    8dd4:	89 ca                	mov    %ecx,%edx
    8dd6:	48 63 04 96          	movslq (%rsi,%rdx,4),%rax
    8dda:	48 01 f0             	add    %rsi,%rax
    8ddd:	ff e0                	jmpq   *%rax
    8ddf:	90                   	nop
    8de0:	48 8d bd 20 dd ff ff 	lea    -0x22e0(%rbp),%rdi
    8de7:	48 8d 15 26 86 00 00 	lea    0x8626(%rip),%rdx        # 11414 <_IO_stdin_used+0x1014>
    8dee:	48 8d 47 10          	lea    0x10(%rdi),%rax
    8df2:	48 89 d6             	mov    %rdx,%rsi
    8df5:	48 89 bd 40 dc ff ff 	mov    %rdi,-0x23c0(%rbp)
    8dfc:	48 89 85 20 dd ff ff 	mov    %rax,-0x22e0(%rbp)
    8e03:	e8 c8 d3 ff ff       	callq  61d0 <_ZNSt7__cxx1112basic_stringIcSt11char_traitsIcESaIcEE12_M_constructIPKcEEvT_S8_St20forward_iterator_tag.isra.52>
    8e08:	31 db                	xor    %ebx,%ebx
    8e0a:	4d 85 e4             	test   %r12,%r12
    8e0d:	0f 84 1d fd ff ff    	je     8b30 <_Z14pipe_interfacePP8HunspelliP8_IO_FILEPc+0x130>
    8e13:	be 2e 00 00 00       	mov    $0x2e,%esi
    8e18:	4c 89 e7             	mov    %r12,%rdi
    8e1b:	e8 c0 e1 ff ff       	callq  6fe0 <_Z8basenamePKcc>
    8e20:	48 89 c3             	mov    %rax,%rbx
    8e23:	e9 08 fd ff ff       	jmpq   8b30 <_Z14pipe_interfacePP8HunspelliP8_IO_FILEPc+0x130>
    8e28:	0f 1f 84 00 00 00 00 	nopl   0x0(%rax,%rax,1)
    8e2f:	00 
    8e30:	83 f9 08             	cmp    $0x8,%ecx
    8e33:	48 8b 05 c6 c3 20 00 	mov    0x20c3c6(%rip),%rax        # 215200 <stderr@@GLIBC_2.2.5>
    8e3a:	48 0f 45 05 9e c3 20 	cmovne 0x20c39e(%rip),%rax        # 2151e0 <stdout@@GLIBC_2.2.5>
    8e41:	00 
    8e42:	48 8b b5 a8 dc ff ff 	mov    -0x2358(%rbp),%rsi
    8e49:	4c 89 fa             	mov    %r15,%rdx
    8e4c:	48 89 df             	mov    %rbx,%rdi
    8e4f:	48 89 85 50 dc ff ff 	mov    %rax,-0x23b0(%rbp)
    8e56:	48 8b 06             	mov    (%rsi),%rax
    8e59:	ff 50 18             	callq  *0x18(%rax)
    8e5c:	48 8b bd 98 dc ff ff 	mov    -0x2368(%rbp),%rdi
    8e63:	48 8d b5 bc dc ff ff 	lea    -0x2344(%rbp),%rsi
    8e6a:	45 31 c0             	xor    %r8d,%r8d
    8e6d:	31 c9                	xor    %ecx,%ecx
    8e6f:	48 89 da             	mov    %rbx,%rdx
    8e72:	e8 b9 e1 ff ff       	callq  7030 <_Z5checkPP8HunspellPiRKNSt7__cxx1112basic_stringIcSt11char_traitsIcESaIcEEES2_PS8_>
    8e77:	48 8b bd 20 de ff ff 	mov    -0x21e0(%rbp),%rdi
